 cryptest

 Timestamp is 4f4c448c (Tue Feb 28 11:05:48 2012)

 Preferred load address is 00400000

 Start         Length     Name                   Class
 0001:00000000 0014dd42H .text                   CODE
 0001:0014dd50 000241e2H .text$x                 CODE
 0002:00000000 000001e0H .idata$5                DATA
 0002:000001e0 000299e4H .rdata                  DATA
 0002:00029bc8 0001c134H .rdata$r                DATA
 0002:00045d00 0002eb70H .xdata$x                DATA
 0002:00074870 0000003cH .idata$2                DATA
 0002:000748ac 00000014H .idata$3                DATA
 0002:000748c0 000001e0H .idata$4                DATA
 0002:00074aa0 0000073eH .idata$6                DATA
 0002:000751de 00000000H .edata                  DATA
 0003:00000000 00000004H .CRT$XCA                DATA
 0003:00000004 000002dcH .CRT$XCU                DATA
 0003:000002e0 00000004H .CRT$XCZ                DATA
 0003:000002e4 00000004H .CRT$XIA                DATA
 0003:000002e8 00000010H .CRT$XIC                DATA
 0003:000002f8 00000004H .CRT$XIY                DATA
 0003:000002fc 00000004H .CRT$XIZ                DATA
 0003:00000300 00000004H .CRT$XPA                DATA
 0003:00000304 00000004H .CRT$XPX                DATA
 0003:00000308 00000004H .CRT$XPZ                DATA
 0003:0000030c 00000004H .CRT$XTA                DATA
 0003:00000310 00000004H .CRT$XTB                DATA
 0003:00000314 00000004H .CRT$XTZ                DATA
 0003:00000320 00048754H .data                   DATA
 0003:00048a78 000058b0H .bss                    DATA

  Address         Publics by Value              Rva+Base     Lib:Object

 0001:0000006e       ?OutputResultBytes@@YAXPBDNN@Z 0040106e f   bench.obj
 0001:000001e9       ?OutputResultKeying@@YAXNN@Z 004011e9 f   bench.obj
 0001:000002e2       ?OutputResultOperations@@YAXPBD0_NKN@Z 004012e2 f   bench.obj
 0001:0000047d       ?BenchMark@@YAXPBDAAVStreamTransformation@CryptoPP@@N@Z 0040147d f   bench.obj
 0001:0000056b       ?BenchMark@@YAXPBDAAVAuthenticatedSymmetricCipher@CryptoPP@@N@Z 0040156b f   bench.obj
 0001:000005b6       ?BenchMark@@YAXPBDAAVHashTransformation@CryptoPP@@N@Z 004015b6 f   bench.obj
 0001:0000068a       ?BenchMarkKeying@@YAXAAVSimpleKeyingInterface@CryptoPP@@IABVNameValuePairs@2@@Z 0040168a f   bench.obj
 0001:00000709       ?BenchmarkAll@@YAXNN@Z     00401709 f   bench.obj
 0001:00000f3e       ??6?$basic_ostream@DU?$char_traits@D@std@@@std@@QAEAAV01@N@Z 00401f3e f i bench.obj
 0001:0000105d       ?put@?$basic_ostream@DU?$char_traits@D@std@@@std@@QAEAAV12@D@Z 0040205d f i bench.obj
 0001:00001124       ??1locale@std@@QAE@XZ      00402124 f i bench.obj
 0001:0000113c       ?_Decref@facet@locale@std@@QAEPAV123@XZ 0040213c f i bench.obj
 0001:00001175       ?getloc@ios_base@std@@QBE?AVlocale@2@XZ 00402175 f i bench.obj
 0001:00001192       ?_Incref@facet@locale@std@@QAEXXZ 00402192 f i bench.obj
 0001:000011b8       ??0?$SecBlock@EV?$AllocatorWithCleanup@E$0A@@CryptoPP@@@CryptoPP@@QAE@I@Z 004021b8 f i bench.obj
 0001:000011b8       ??0?$SecBlock@EV?$AllocatorWithCleanup@E$00@CryptoPP@@@CryptoPP@@QAE@I@Z 004021b8 f i bench.obj
 0001:000011e3       ??1?$SecBlock@EV?$AllocatorWithCleanup@E$00@CryptoPP@@@CryptoPP@@QAE@XZ 004021e3 f i bench.obj
 0001:000011e3       ??1?$SecBlock@EV?$AllocatorWithCleanup@E$0A@@CryptoPP@@@CryptoPP@@QAE@XZ 004021e3 f i bench.obj
 0001:000011fb       ??1sentry@?$basic_ostream@DU?$char_traits@D@std@@@std@@QAE@XZ 004021fb f i bench.obj
 0001:0000121d       ?sputc@?$basic_streambuf@DU?$char_traits@D@std@@@std@@QAEHD@Z 0040221d f i bench.obj
 0001:0000124f       ?opfx@?$basic_ostream@DU?$char_traits@D@std@@@std@@QAE_NXZ 0040224f f i bench.obj
 0001:0000127f       ?_Pninc@?$basic_streambuf@DU?$char_traits@D@std@@@std@@IAEPADXZ 0040227f f i bench.obj
 0001:0000128f       ?CheckSize@?$AllocatorBase@E@CryptoPP@@KAXI@Z 0040228f f i bench.obj
 0001:000012fd       ?_Tidy@?$basic_string@DU?$char_traits@D@std@@V?$allocator@D@2@@std@@AAEX_N@Z 004022fd f i bench.obj
 0001:00001339       ??0Exception@CryptoPP@@QAE@W4ErrorType@01@ABV?$basic_string@DU?$char_traits@D@std@@V?$allocator@D@2@@std@@@Z 00402339 f i bench.obj
 0001:00001397       ?assign@?$basic_string@DU?$char_traits@D@std@@V?$allocator@D@2@@std@@QAEAAV12@ABV12@II@Z 00402397 f i bench.obj
 0001:00001465       ?what@Exception@CryptoPP@@UBEPBDXZ 00402465 f i bench.obj
 0001:00001472       ??0InvalidArgument@CryptoPP@@QAE@ABV01@@Z 00402472 f i bench.obj
 0001:0000148a       ??0Exception@CryptoPP@@QAE@ABV01@@Z 0040248a f i bench.obj
 0001:000014ec       ?assign@?$basic_string@DU?$char_traits@D@std@@V?$allocator@D@2@@std@@QAEAAV12@PBDI@Z 004024ec f i bench.obj
 0001:00001521       ?erase@?$basic_string@DU?$char_traits@D@std@@V?$allocator@D@2@@std@@QAEAAV12@II@Z 00402521 f i bench.obj
 0001:00001588       ?_Grow@?$basic_string@DU?$char_traits@D@std@@V?$allocator@D@2@@std@@AAE_NI_N@Z 00402588 f i bench.obj
 0001:0000160d       ?_Copy@?$basic_string@DU?$char_traits@D@std@@V?$allocator@D@2@@std@@AAEXI@Z 0040260d f i bench.obj
 0001:000016ca       ?_Split@?$basic_string@DU?$char_traits@D@std@@V?$allocator@D@2@@std@@AAEXXZ 004026ca f i bench.obj
 0001:000016fa       ?MakeParameters@CryptoPP@@YA?AVAlgorithmParameters@1@PBDABH_N@Z 004026fa f i bench.obj
 0001:00001755       ??6std@@YAAAV?$basic_ostream@DU?$char_traits@D@std@@@0@AAV10@PBD@Z 00402755 f i bench.obj
 0001:000018b9       ?RoundUpToMultipleOf@CryptoPP@@YAIABI0@Z 004028b9 f i bench.obj
 0001:0000194e       ?BenchMarkByName2@@YAXPBDI0ABVNameValuePairs@CryptoPP@@PAVAuthenticatedSymmetricCipher@2@2@Z 0040294e f i bench.obj
 0001:00001b88       ??Hstd@@YA?AV?$basic_string@DU?$char_traits@D@std@@V?$allocator@D@2@@0@PBDABV10@@Z 00402b88 f i bench.obj
 0001:00001c0d       ??Hstd@@YA?AV?$basic_string@DU?$char_traits@D@std@@V?$allocator@D@2@@0@ABV10@PBD@Z 00402c0d f i bench.obj
 0001:00001c96       ?IntToString@CryptoPP@@YA?AV?$basic_string@DU?$char_traits@D@std@@V?$allocator@D@2@@std@@II@Z 00402c96 f i bench.obj
 0001:00001d80       ?MakeParameters@CryptoPP@@YA?AVAlgorithmParameters@1@PBDABVConstByteArrayParameter@1@_N@Z 00402d80 f i bench.obj
 0001:00001ddb       ?BenchMarkByName2@@YAXPBDI0ABVNameValuePairs@CryptoPP@@PAVAuthenticatedSymmetricCipher@2@PAVMessageAuthenticationCode@2@@Z 00402ddb f i bench.obj
 0001:00002021       ?BenchMarkByNameKeyLess@@YAXPBD0ABVNameValuePairs@CryptoPP@@PAVHashTransformation@2@@Z 00403021 f i bench.obj
 0001:000020d3       ?use_facet@std@@YAABV?$num_put@DV?$ostreambuf_iterator@DU?$char_traits@D@std@@@std@@@1@ABVlocale@1@PBV21@_N@Z 004030d3 f i bench.obj
 0001:000021af       ??1bad_cast@std@@UAE@XZ    004031af f i bench.obj
 0001:000021ba       ?_Doraise@bad_cast@std@@MBEXXZ 004031ba f i bench.obj
 0001:000021d7       ??_Ebad_cast@std@@UAEPAXI@Z 004031d7 f i bench.obj
 0001:000021d7       ??_Gbad_cast@std@@UAEPAXI@Z 004031d7 f i bench.obj
 0001:000021f3       ??0bad_cast@std@@QAE@ABV01@@Z 004031f3 f i bench.obj
 0001:0000220b       ??Bid@locale@std@@QAEIXZ   0040320b f i bench.obj
 0001:0000223b       ??_Gfacet@locale@std@@UAEPAXI@Z 0040323b f i bench.obj
 0001:0000223b       ??_Efacet@locale@std@@UAEPAXI@Z 0040323b f i bench.obj
 0001:00002258       ?do_put@?$num_put@DV?$ostreambuf_iterator@DU?$char_traits@D@std@@@std@@@std@@MBE?AV?$ostreambuf_iterator@DU?$char_traits@D@std@@@2@V32@AAVios_base@2@D_N@Z 00403258 f i bench.obj
 0001:000023f4       ?do_put@?$num_put@DV?$ostreambuf_iterator@DU?$char_traits@D@std@@@std@@@std@@MBE?AV?$ostreambuf_iterator@DU?$char_traits@D@std@@@2@V32@AAVios_base@2@DJ@Z 004033f4 f i bench.obj
 0001:0000244c       ?do_put@?$num_put@DV?$ostreambuf_iterator@DU?$char_traits@D@std@@@std@@@std@@MBE?AV?$ostreambuf_iterator@DU?$char_traits@D@std@@@2@V32@AAVios_base@2@DK@Z 0040344c f i bench.obj
 0001:000024a4       ?do_put@?$num_put@DV?$ostreambuf_iterator@DU?$char_traits@D@std@@@std@@@std@@MBE?AV?$ostreambuf_iterator@DU?$char_traits@D@std@@@2@V32@AAVios_base@2@DN@Z 004034a4 f i bench.obj
 0001:00002522       ?do_put@?$num_put@DV?$ostreambuf_iterator@DU?$char_traits@D@std@@@std@@@std@@MBE?AV?$ostreambuf_iterator@DU?$char_traits@D@std@@@2@V32@AAVios_base@2@DO@Z 00403522 f i bench.obj
 0001:000025a0       ?do_put@?$num_put@DV?$ostreambuf_iterator@DU?$char_traits@D@std@@@std@@@std@@MBE?AV?$ostreambuf_iterator@DU?$char_traits@D@std@@@2@V32@AAVios_base@2@DPBX@Z 004035a0 f i bench.obj
 0001:0000266a       ?append@?$basic_string@DU?$char_traits@D@std@@V?$allocator@D@2@@std@@QAEAAV12@ID@Z 0040366a f i bench.obj
 0001:000026c3       ?_Ffmt@?$num_put@GV?$ostreambuf_iterator@GU?$char_traits@G@std@@@std@@@std@@KAPADPADDH@Z 004036c3 f i bench.obj
 0001:000026c3       ?_Ffmt@?$num_put@DV?$ostreambuf_iterator@DU?$char_traits@D@std@@@std@@@std@@KAPADPADDH@Z 004036c3 f i bench.obj
 0001:00002721       ?_Fput@?$num_put@DV?$ostreambuf_iterator@DU?$char_traits@D@std@@@std@@@std@@KA?AV?$ostreambuf_iterator@DU?$char_traits@D@std@@@2@V32@AAVios_base@2@DPBDII@Z 00403721 f i bench.obj
 0001:000029d4       ?_Ifmt@?$num_put@GV?$ostreambuf_iterator@GU?$char_traits@G@std@@@std@@@std@@KAPADPADDH@Z 004039d4 f i bench.obj
 0001:000029d4       ?_Ifmt@?$num_put@DV?$ostreambuf_iterator@DU?$char_traits@D@std@@@std@@@std@@KAPADPADDH@Z 004039d4 f i bench.obj
 0001:00002a2e       ?_Iput@?$num_put@DV?$ostreambuf_iterator@DU?$char_traits@D@std@@@std@@@std@@KA?AV?$ostreambuf_iterator@DU?$char_traits@D@std@@@2@V32@AAVios_base@2@DPADI@Z 00403a2e f i bench.obj
 0001:00002cc3       ?falsename@?$numpunct@D@std@@QBE?AV?$basic_string@DU?$char_traits@D@std@@V?$allocator@D@2@@2@XZ 00403cc3 f i bench.obj
 0001:00002cc3       ?curr_symbol@?$_Mpunct@D@std@@QBE?AV?$basic_string@DU?$char_traits@D@std@@V?$allocator@D@2@@2@XZ 00403cc3 f i bench.obj
 0001:00002cc3       ?curr_symbol@?$_Mpunct@G@std@@QBE?AV?$basic_string@GU?$char_traits@G@std@@V?$allocator@G@2@@2@XZ 00403cc3 f i bench.obj
 0001:00002cc3       ?falsename@?$numpunct@G@std@@QBE?AV?$basic_string@GU?$char_traits@G@std@@V?$allocator@G@2@@2@XZ 00403cc3 f i bench.obj
 0001:00002cda       ??4?$ostreambuf_iterator@DU?$char_traits@D@std@@@std@@QAEAAV01@D@Z 00403cda f i bench.obj
 0001:00002cfb       ?SecureWipeArray@CryptoPP@@YAXPAEI@Z 00403cfb f i bench.obj
 0001:00002d11       ?use_facet@std@@YAABV?$numpunct@D@1@ABVlocale@1@PBV21@_N@Z 00403d11 f i bench.obj
 0001:00002dd5       ??0?$numpunct@D@std@@QAE@I@Z 00403dd5 f i bench.obj
 0001:00002e2e       ?do_positive_sign@?$_Mpunct@D@std@@MBE?AV?$basic_string@DU?$char_traits@D@std@@V?$allocator@D@2@@2@XZ 00403e2e f i bench.obj
 0001:00002e2e       ?do_truename@?$numpunct@D@std@@MBE?AV?$basic_string@DU?$char_traits@D@std@@V?$allocator@D@2@@2@XZ 00403e2e f i bench.obj
 0001:00002e64       ??_E?$numpunct@D@std@@UAEPAXI@Z 00403e64 f i bench.obj
 0001:00002e64       ??_G?$numpunct@D@std@@UAEPAXI@Z 00403e64 f i bench.obj
 0001:00002e80       ??1?$numpunct@D@std@@UAE@XZ 00403e80 f i bench.obj
 0001:00002eac       ?Assign@ConstByteArrayParameter@CryptoPP@@QAEXPBEI_N@Z 00403eac f i bench.obj
 0001:00002ef3       ?memcpy_s@CryptoPP@@YAXPAXIPBXI@Z 00403ef3 f i bench.obj
 0001:00002f72       ?StandardReallocate@CryptoPP@@YAPAEAAV?$AllocatorWithCleanup@E$00@1@PAEII_N@Z 00403f72 f i bench.obj
 0001:00002f72       ?StandardReallocate@CryptoPP@@YAPAEAAV?$AllocatorWithCleanup@E$0A@@1@PAEII_N@Z 00403f72 f i bench.obj
 0001:00003001       ?CreateObject@?$ObjectFactoryRegistry@VAuthenticatedSymmetricCipher@CryptoPP@@$0A@@CryptoPP@@QBEPAVAuthenticatedSymmetricCipher@2@PBD@Z 00404001 f i bench.obj
 0001:00003036       ?CreateObject@?$ObjectFactoryRegistry@VHashTransformation@CryptoPP@@$0A@@CryptoPP@@QBEPAVHashTransformation@2@PBD@Z 00404036 f i bench.obj
 0001:0000306b       ??1?$auto_ptr@VSymmetricCipher@CryptoPP@@@std@@QAE@XZ 0040406b f i bench.obj
 0001:0000306b       ??1?$auto_ptr@VAuthenticatedSymmetricCipher@CryptoPP@@@std@@QAE@XZ 0040406b f i bench.obj
 0001:0000306b       ??1?$auto_ptr@VHashTransformation@CryptoPP@@@std@@QAE@XZ 0040406b f i bench.obj
 0001:0000306b       ??1?$auto_ptr@VPK_MessageAccumulatorBase@CryptoPP@@@std@@QAE@XZ 0040406b f i bench.obj
 0001:0000306b       ??1?$auto_ptr@VPK_Decryptor@CryptoPP@@@std@@QAE@XZ 0040406b f i bench.obj
 0001:0000306b       ??1?$auto_ptr@VPK_Encryptor@CryptoPP@@@std@@QAE@XZ 0040406b f i bench.obj
 0001:0000306b       ??1?$auto_ptr@VPK_Verifier@CryptoPP@@@std@@QAE@XZ 0040406b f i bench.obj
 0001:0000306b       ??1?$auto_ptr@VBlockTransformation@CryptoPP@@@std@@QAE@XZ 0040406b f i bench.obj
 0001:0000306b       ??1?$auto_ptr@VChannelSwitch@CryptoPP@@@std@@QAE@XZ 0040406b f i bench.obj
 0001:0000306b       ??1?$auto_ptr@VMessageAuthenticationCode@CryptoPP@@@std@@QAE@XZ 0040406b f i bench.obj
 0001:0000306b       ??1?$auto_ptr@VPK_Signer@CryptoPP@@@std@@QAE@XZ 0040406b f i bench.obj
 0001:0000307e       ?_Save@?$_Tidyfac@V?$num_put@DV?$ostreambuf_iterator@DU?$char_traits@D@std@@@std@@@std@@@std@@SAPAV?$num_put@DV?$ostreambuf_iterator@DU?$char_traits@D@std@@@std@@@2@PAV32@@Z 0040407e f i bench.obj
 0001:000030cc       ?_Save@?$_Tidyfac@V?$numpunct@D@std@@@std@@SAPAV?$numpunct@D@2@PAV32@@Z 004040cc f i bench.obj
 0001:0000311a       ??0FactoryNotFound@?$ObjectFactoryRegistry@VAuthenticatedSymmetricCipher@CryptoPP@@$0A@@CryptoPP@@QAE@ABV012@@Z 0040411a f i bench.obj
 0001:00003132       ??0FactoryNotFound@?$ObjectFactoryRegistry@VHashTransformation@CryptoPP@@$0A@@CryptoPP@@QAE@ABV012@@Z 00404132 f i bench.obj
 0001:0000314a       ??_EFactoryNotFound@?$ObjectFactoryRegistry@VSymmetricCipher@CryptoPP@@$00@CryptoPP@@UAEPAXI@Z 0040414a f i bench.obj
 0001:0000314a       ??_GFactoryNotFound@?$ObjectFactoryRegistry@VPK_Decryptor@CryptoPP@@$0A@@CryptoPP@@UAEPAXI@Z 0040414a f i bench.obj
 0001:0000314a       ??_EInvalidDataFormat@CryptoPP@@UAEPAXI@Z 0040414a f i bench.obj
 0001:0000314a       ??_GFactoryNotFound@?$ObjectFactoryRegistry@VSymmetricCipher@CryptoPP@@$00@CryptoPP@@UAEPAXI@Z 0040414a f i bench.obj
 0001:0000314a       ??_ECannotFlush@CryptoPP@@UAEPAXI@Z 0040414a f i bench.obj
 0001:0000314a       ??_EValueTypeMismatch@NameValuePairs@CryptoPP@@UAEPAXI@Z 0040414a f i bench.obj
 0001:0000314a       ??_GFactoryNotFound@?$ObjectFactoryRegistry@VPK_Verifier@CryptoPP@@$0A@@CryptoPP@@UAEPAXI@Z 0040414a f i bench.obj
 0001:0000314a       ??_GValueTypeMismatch@NameValuePairs@CryptoPP@@UAEPAXI@Z 0040414a f i bench.obj
 0001:0000314a       ??_EParameterNotUsed@AlgorithmParametersBase@CryptoPP@@UAEPAXI@Z 0040414a f i bench.obj
 0001:0000314a       ??_EInvalidMaterial@CryptoMaterial@CryptoPP@@UAEPAXI@Z 0040414a f i bench.obj
 0001:0000314a       ??_GNotImplemented@CryptoPP@@UAEPAXI@Z 0040414a f i bench.obj
 0001:0000314a       ??_ETestFailure@@UAEPAXI@Z 0040414a f i bench.obj
 0001:0000314a       ??_GFactoryNotFound@?$ObjectFactoryRegistry@VHashTransformation@CryptoPP@@$0A@@CryptoPP@@UAEPAXI@Z 0040414a f i bench.obj
 0001:0000314a       ??_ENotImplemented@CryptoPP@@UAEPAXI@Z 0040414a f i bench.obj
 0001:0000314a       ??_GFactoryNotFound@?$ObjectFactoryRegistry@VMessageAuthenticationCode@CryptoPP@@$0A@@CryptoPP@@UAEPAXI@Z 0040414a f i bench.obj
 0001:0000314a       ??_GFactoryNotFound@?$ObjectFactoryRegistry@VAuthenticatedSymmetricCipher@CryptoPP@@$0A@@CryptoPP@@UAEPAXI@Z 0040414a f i bench.obj
 0001:0000314a       ??_EBlockingInputOnly@BufferedTransformation@CryptoPP@@UAEPAXI@Z 0040414a f i bench.obj
 0001:0000314a       ??_GInvalidDataFormat@CryptoPP@@UAEPAXI@Z 0040414a f i bench.obj
 0001:0000314a       ??_GInputRejected@?$InputRejecting@VFilter@CryptoPP@@@CryptoPP@@UAEPAXI@Z 0040414a f i bench.obj
 0001:0000314a       ??_EFactoryNotFound@?$ObjectFactoryRegistry@VPK_Signer@CryptoPP@@$0A@@CryptoPP@@UAEPAXI@Z 0040414a f i bench.obj
 0001:0000314a       ??_GFactoryNotFound@?$ObjectFactoryRegistry@VAuthenticatedSymmetricCipher@CryptoPP@@$00@CryptoPP@@UAEPAXI@Z 0040414a f i bench.obj
 0001:0000314a       ??_EFactoryNotFound@?$ObjectFactoryRegistry@VAuthenticatedSymmetricCipher@CryptoPP@@$0A@@CryptoPP@@UAEPAXI@Z 0040414a f i bench.obj
 0001:0000314a       ??_EFactoryNotFound@?$ObjectFactoryRegistry@VMessageAuthenticationCode@CryptoPP@@$0A@@CryptoPP@@UAEPAXI@Z 0040414a f i bench.obj
 0001:0000314a       ??_GDL_BadElement@CryptoPP@@UAEPAXI@Z 0040414a f i bench.obj
 0001:0000314a       ??_GInputRejected@?$InputRejecting@VBufferedTransformation@CryptoPP@@@CryptoPP@@UAEPAXI@Z 0040414a f i bench.obj
 0001:0000314a       ??_GFactoryNotFound@?$ObjectFactoryRegistry@VSymmetricCipher@CryptoPP@@$0A@@CryptoPP@@UAEPAXI@Z 0040414a f i bench.obj
 0001:0000314a       ??_EInvalidArgument@CryptoPP@@UAEPAXI@Z 0040414a f i bench.obj
 0001:0000314a       ??_GBlockingInputOnly@BufferedTransformation@CryptoPP@@UAEPAXI@Z 0040414a f i bench.obj
 0001:0000314a       ??_GSelfTestFailure@CryptoPP@@UAEPAXI@Z 0040414a f i bench.obj
 0001:0000314a       ??_GFactoryNotFound@?$ObjectFactoryRegistry@VPK_Signer@CryptoPP@@$0A@@CryptoPP@@UAEPAXI@Z 0040414a f i bench.obj
 0001:0000314a       ??_EFactoryNotFound@?$ObjectFactoryRegistry@VHashTransformation@CryptoPP@@$0A@@CryptoPP@@UAEPAXI@Z 0040414a f i bench.obj
 0001:0000314a       ??_GFactoryNotFound@?$ObjectFactoryRegistry@VPK_Encryptor@CryptoPP@@$0A@@CryptoPP@@UAEPAXI@Z 0040414a f i bench.obj
 0001:0000314a       ??_EDL_BadElement@CryptoPP@@UAEPAXI@Z 0040414a f i bench.obj
 0001:0000314a       ??_GCannotFlush@CryptoPP@@UAEPAXI@Z 0040414a f i bench.obj
 0001:0000314a       ??_ESelfTestFailure@CryptoPP@@UAEPAXI@Z 0040414a f i bench.obj
 0001:0000314a       ??_EFactoryNotFound@?$ObjectFactoryRegistry@VPK_Verifier@CryptoPP@@$0A@@CryptoPP@@UAEPAXI@Z 0040414a f i bench.obj
 0001:0000314a       ??_GInvalidArgument@CryptoPP@@UAEPAXI@Z 0040414a f i bench.obj
 0001:0000314a       ??_GException@CryptoPP@@UAEPAXI@Z 0040414a f i bench.obj
 0001:0000314a       ??_GParameterNotUsed@AlgorithmParametersBase@CryptoPP@@UAEPAXI@Z 0040414a f i bench.obj
 0001:0000314a       ??_GTestFailure@@UAEPAXI@Z 0040414a f i bench.obj
 0001:0000314a       ??_EInputRejected@?$InputRejecting@VFilter@CryptoPP@@@CryptoPP@@UAEPAXI@Z 0040414a f i bench.obj
 0001:0000314a       ??_EFactoryNotFound@?$ObjectFactoryRegistry@VAuthenticatedSymmetricCipher@CryptoPP@@$00@CryptoPP@@UAEPAXI@Z 0040414a f i bench.obj
 0001:0000314a       ??_EFactoryNotFound@?$ObjectFactoryRegistry@VPK_Encryptor@CryptoPP@@$0A@@CryptoPP@@UAEPAXI@Z 0040414a f i bench.obj
 0001:0000314a       ??_GInvalidMaterial@CryptoMaterial@CryptoPP@@UAEPAXI@Z 0040414a f i bench.obj
 0001:0000314a       ??_EFactoryNotFound@?$ObjectFactoryRegistry@VPK_Decryptor@CryptoPP@@$0A@@CryptoPP@@UAEPAXI@Z 0040414a f i bench.obj
 0001:0000314a       ??_EFactoryNotFound@?$ObjectFactoryRegistry@VSymmetricCipher@CryptoPP@@$0A@@CryptoPP@@UAEPAXI@Z 0040414a f i bench.obj
 0001:0000314a       ??_EInputRejected@?$InputRejecting@VBufferedTransformation@CryptoPP@@@CryptoPP@@UAEPAXI@Z 0040414a f i bench.obj
 0001:0000314a       ??_EException@CryptoPP@@UAEPAXI@Z 0040414a f i bench.obj
 0001:00003166       ?_Init@?$numpunct@D@std@@IAEXABV_Locinfo@2@@Z 00404166 f i bench.obj
 0001:000031af       ?GetFactory@?$ObjectFactoryRegistry@VAuthenticatedSymmetricCipher@CryptoPP@@$0A@@CryptoPP@@QBEPBV?$ObjectFactory@VAuthenticatedSymmetricCipher@CryptoPP@@@2@PBD@Z 004041af f i bench.obj
 0001:00003220       ??0FactoryNotFound@?$ObjectFactoryRegistry@VAuthenticatedSymmetricCipher@CryptoPP@@$0A@@CryptoPP@@QAE@PBD@Z 00404220 f i bench.obj
 0001:000032a8       ?GetFactory@?$ObjectFactoryRegistry@VHashTransformation@CryptoPP@@$0A@@CryptoPP@@QBEPBV?$ObjectFactory@VHashTransformation@CryptoPP@@@2@PBD@Z 004042a8 f i bench.obj
 0001:00003319       ??0FactoryNotFound@?$ObjectFactoryRegistry@VHashTransformation@CryptoPP@@$0A@@CryptoPP@@QAE@PBD@Z 00404319 f i bench.obj
 0001:000033a1       ?_Tidy@?$_Tidyfac@V?$num_put@DV?$ostreambuf_iterator@DU?$char_traits@D@std@@@std@@@std@@@std@@SAXXZ 004043a1 f i bench.obj
 0001:000033ee       ?_Tidy@?$_Tidyfac@V?$numpunct@D@std@@@std@@SAXXZ 004043ee f i bench.obj
 0001:0000343b       ?append@?$basic_string@DU?$char_traits@D@std@@V?$allocator@D@2@@std@@QAEAAV12@ABV12@II@Z 0040443b f i bench.obj
 0001:000034c1       ?append@?$basic_string@DU?$char_traits@D@std@@V?$allocator@D@2@@std@@QAEAAV12@PBDI@Z 004044c1 f i bench.obj
 0001:00003516       ?find@?$_Tree@V?$basic_string@DU?$char_traits@D@std@@V?$allocator@D@2@@std@@U?$pair@$$CBV?$basic_string@DU?$char_traits@D@std@@V?$allocator@D@2@@std@@PAX@2@U_Kfn@?$map@V?$basic_string@DU?$char_traits@D@std@@V?$allocator@D@2@@std@@PAXU?$less@V?$basic_string@DU?$char_traits@D@std@@V?$allocator@D@2@@std@@@2@V?$allocator@PAX@2@@2@U?$less@V?$basic_string@DU?$char_traits@D@std@@V?$allocator@D@2@@std@@@2@V?$allocator@PAX@2@@std@@QBE?AVconst_iterator@12@ABV?$basic_string@DU?$char_traits@D@std@@V?$allocator@D@2@@2@@Z 00404516 f i bench.obj
 0001:00003557       ?_Lbound@?$_Tree@V?$basic_string@DU?$char_traits@D@std@@V?$allocator@D@2@@std@@U?$pair@$$CBV?$basic_string@DU?$char_traits@D@std@@V?$allocator@D@2@@std@@PAX@2@U_Kfn@?$map@V?$basic_string@DU?$char_traits@D@std@@V?$allocator@D@2@@std@@PAXU?$less@V?$basic_string@DU?$char_traits@D@std@@V?$allocator@D@2@@std@@@2@V?$allocator@PAX@2@@2@U?$less@V?$basic_string@DU?$char_traits@D@std@@V?$allocator@D@2@@std@@@2@V?$allocator@PAX@2@@std@@IBEPAU_Node@12@ABV?$basic_string@DU?$char_traits@D@std@@V?$allocator@D@2@@2@@Z 00404557 f i bench.obj
 0001:0000358b       ??Hstd@@YA?AV?$basic_string@DU?$char_traits@D@std@@V?$allocator@D@2@@0@DABV10@@Z 0040458b f i bench.obj
 0001:00003608       ?assign@?$basic_string@DU?$char_traits@D@std@@V?$allocator@D@2@@std@@QAEAAV12@ID@Z 00404608 f i bench.obj
 0001:0000364e       ??RAlgorithmParameters@CryptoPP@@QAEAAV01@PBDABVConstByteArrayParameter@1@_N@Z 0040464e f i bench.obj
 0001:00003704       ?AssignValue@?$AlgorithmParametersTemplate@VConstByteArrayParameter@CryptoPP@@@CryptoPP@@UBEXPBDABVtype_info@@PAX@Z 00404704 f i bench.obj
 0001:00003761       ?MoveInto@?$AlgorithmParametersTemplate@VConstByteArrayParameter@CryptoPP@@@CryptoPP@@UBEXPAX@Z 00404761 f i bench.obj
 0001:000037ac       ??4ConstByteArrayParameter@CryptoPP@@QAEAAV01@ABV01@@Z 004047ac f i bench.obj
 0001:000037d5       ??_G?$AlgorithmParametersTemplate@VConstByteArrayParameter@CryptoPP@@@CryptoPP@@UAEPAXI@Z 004047d5 f i bench.obj
 0001:000037d5       ??_E?$AlgorithmParametersTemplate@VConstByteArrayParameter@CryptoPP@@@CryptoPP@@UAEPAXI@Z 004047d5 f i bench.obj
 0001:000037f1       ??0ConstByteArrayParameter@CryptoPP@@QAE@ABV01@@Z 004047f1 f i bench.obj
 0001:0000381a       ??1?$AlgorithmParametersTemplate@VConstByteArrayParameter@CryptoPP@@@CryptoPP@@UAE@XZ 0040481a f i bench.obj
 0001:0000384f       ?ThrowIfTypeMismatch@NameValuePairs@CryptoPP@@SAXPBDABVtype_info@@1@Z 0040484f f i bench.obj
 0001:000038c0       ??0ValueTypeMismatch@NameValuePairs@CryptoPP@@QAE@ABV?$basic_string@DU?$char_traits@D@std@@V?$allocator@D@2@@std@@ABVtype_info@@1@Z 004048c0 f i bench.obj
 0001:000039cc       ??0ValueTypeMismatch@NameValuePairs@CryptoPP@@QAE@ABV012@@Z 004049cc f i bench.obj
 0001:000039f9       ??0?$SecBlock@EV?$AllocatorWithCleanup@E$0A@@CryptoPP@@@CryptoPP@@QAE@ABV01@@Z 004049f9 f i bench.obj
 0001:00003a3a       ?Assign@?$SecBlock@EV?$AllocatorWithCleanup@E$0A@@CryptoPP@@@CryptoPP@@QAEXABV12@@Z 00404a3a f i bench.obj
 0001:00003a66       ??0AlgorithmParametersBase@CryptoPP@@QAE@ABV01@@Z 00404a66 f i bench.obj
 0001:00003ac9       ??1AlgorithmParametersBase@CryptoPP@@UAE@XZ 00404ac9 f i bench.obj
 0001:00003b35       ??0ParameterNotUsed@AlgorithmParametersBase@CryptoPP@@QAE@PBD@Z 00404b35 f i bench.obj
 0001:00003bda       ??_GAlgorithmParametersBase@CryptoPP@@UAEPAXI@Z 00404bda f i bench.obj
 0001:00003bda       ??_EAlgorithmParametersBase@CryptoPP@@UAEPAXI@Z 00404bda f i bench.obj
 0001:00003bf6       ??0ParameterNotUsed@AlgorithmParametersBase@CryptoPP@@QAE@ABV012@@Z 00404bf6 f i bench.obj
 0001:00003c0e       ??RAlgorithmParameters@CryptoPP@@QAEAAV01@PBDABH_N@Z 00404c0e f i bench.obj
 0001:00003cb0       ?AssignValue@?$AlgorithmParametersTemplate@H@CryptoPP@@UBEXPBDABVtype_info@@PAX@Z 00404cb0 f i bench.obj
 0001:00003d08       ?MoveInto@?$AlgorithmParametersTemplate@H@CryptoPP@@UBEXPAX@Z 00404d08 f i bench.obj
 0001:00003d49       ??1?$AlgorithmParametersTemplate@PBD@CryptoPP@@UAE@XZ 00404d49 f i bench.obj
 0001:00003d49       ??1?$AlgorithmParametersTemplate@_N@CryptoPP@@UAE@XZ 00404d49 f i bench.obj
 0001:00003d49       ??1?$AlgorithmParametersTemplate@PAVRandomNumberGenerator@CryptoPP@@@CryptoPP@@UAE@XZ 00404d49 f i bench.obj
 0001:00003d49       ??1?$AlgorithmParametersTemplate@H@CryptoPP@@UAE@XZ 00404d49 f i bench.obj
 0001:00003d49       ??1?$AlgorithmParametersTemplate@PBH@CryptoPP@@UAE@XZ 00404d49 f i bench.obj
 0001:00003d49       ??1?$AlgorithmParametersTemplate@PAV?$basic_ostream@DU?$char_traits@D@std@@@std@@@CryptoPP@@UAE@XZ 00404d49 f i bench.obj
 0001:00003d4e       ?Registry@?$ObjectFactoryRegistry@VAuthenticatedSymmetricCipher@CryptoPP@@$0A@@CryptoPP@@SAAAV12@ZZ 00404d4e f i bench.obj
 0001:00003d79       ?BenchMarkByName2@@YAXPBDI0ABVNameValuePairs@CryptoPP@@PAVMessageAuthenticationCode@2@2@Z 00404d79 f i bench.obj
 0001:00003fbf       ?Registry@?$ObjectFactoryRegistry@VHashTransformation@CryptoPP@@$0A@@CryptoPP@@SAAAV12@ZZ 00404fbf f i bench.obj
 0001:00003fea       ?BenchMarkByName2@@YAXPBDI0ABVNameValuePairs@CryptoPP@@PAVSymmetricCipher@2@2@Z 00404fea f i bench.obj
 0001:00004230       ?_Maklocstr@std@@YAPADPBDPAD@Z 00405230 f i bench.obj
 0001:00004259       ?s_registry@?1??Registry@?$ObjectFactoryRegistry@VHashTransformation@CryptoPP@@$0A@@CryptoPP@@SAAAV12@ZZ@$AV12@A 00405259 f i bench.obj
 0001:00004263       ?s_registry@?1??Registry@?$ObjectFactoryRegistry@VAuthenticatedSymmetricCipher@CryptoPP@@$0A@@CryptoPP@@SAAAV12@ZZ@$AV12@A 00405263 f i bench.obj
 0001:000042bd       ??0?$ObjectFactoryRegistry@VSymmetricCipher@CryptoPP@@$0A@@CryptoPP@@QAE@XZ 004052bd f i bench.obj
 0001:000042bd       ??0?$ObjectFactoryRegistry@VSymmetricCipher@CryptoPP@@$00@CryptoPP@@QAE@XZ 004052bd f i bench.obj
 0001:000042bd       ??0?$ObjectFactoryRegistry@VPK_Verifier@CryptoPP@@$0A@@CryptoPP@@QAE@XZ 004052bd f i bench.obj
 0001:000042bd       ??0?$ObjectFactoryRegistry@VAuthenticatedSymmetricCipher@CryptoPP@@$0A@@CryptoPP@@QAE@XZ 004052bd f i bench.obj
 0001:000042bd       ??0?$ObjectFactoryRegistry@VSimpleKeyAgreementDomain@CryptoPP@@$0A@@CryptoPP@@QAE@XZ 004052bd f i bench.obj
 0001:000042bd       ??0?$ObjectFactoryRegistry@VMessageAuthenticationCode@CryptoPP@@$0A@@CryptoPP@@QAE@XZ 004052bd f i bench.obj
 0001:000042bd       ??0?$ObjectFactoryRegistry@VHashTransformation@CryptoPP@@$0A@@CryptoPP@@QAE@XZ 004052bd f i bench.obj
 0001:000042bd       ??0?$ObjectFactoryRegistry@VPK_Decryptor@CryptoPP@@$0A@@CryptoPP@@QAE@XZ 004052bd f i bench.obj
 0001:000042bd       ??0?$ObjectFactoryRegistry@VAuthenticatedSymmetricCipher@CryptoPP@@$00@CryptoPP@@QAE@XZ 004052bd f i bench.obj
 0001:000042bd       ??0?$ObjectFactoryRegistry@VPK_Signer@CryptoPP@@$0A@@CryptoPP@@QAE@XZ 004052bd f i bench.obj
 0001:000042bd       ??0?$ObjectFactoryRegistry@VPK_Encryptor@CryptoPP@@$0A@@CryptoPP@@QAE@XZ 004052bd f i bench.obj
 0001:000042dd       ??1ConstByteArrayParameter@CryptoPP@@QAE@XZ 004052dd f i bench.obj
 0001:000042e5       ??1AlgorithmParameters@CryptoPP@@UAE@XZ 004052e5 f i bench.obj
 0001:0000430b       ?compare@?$basic_string@DU?$char_traits@D@std@@V?$allocator@D@2@@std@@QBEHABV12@@Z 0040530b f i bench.obj
 0001:0000432d       ??1?$ObjectFactoryRegistry@VAuthenticatedSymmetricCipher@CryptoPP@@$0A@@CryptoPP@@QAE@XZ 0040532d f i bench.obj
 0001:0000438a       ??1?$map@V?$basic_string@DU?$char_traits@D@std@@V?$allocator@D@2@@std@@PAXU?$less@V?$basic_string@DU?$char_traits@D@std@@V?$allocator@D@2@@std@@@2@V?$allocator@PAX@2@@std@@QAE@XZ 0040538a f i bench.obj
 0001:0000438f       ??1?$_Tree@V?$basic_string@DU?$char_traits@D@std@@V?$allocator@D@2@@std@@U?$pair@$$CBV?$basic_string@DU?$char_traits@D@std@@V?$allocator@D@2@@std@@PAX@2@U_Kfn@?$map@V?$basic_string@DU?$char_traits@D@std@@V?$allocator@D@2@@std@@PAXU?$less@V?$basic_string@DU?$char_traits@D@std@@V?$allocator@D@2@@std@@@2@V?$allocator@PAX@2@@2@U?$less@V?$basic_string@DU?$char_traits@D@std@@V?$allocator@D@2@@std@@@2@V?$allocator@PAX@2@@std@@QAE@XZ 0040538f f i bench.obj
 0001:000043ee       ??1?$ObjectFactoryRegistry@VHashTransformation@CryptoPP@@$0A@@CryptoPP@@QAE@XZ 004053ee f i bench.obj
 0001:0000444b       ?CreateObject@?$ObjectFactoryRegistry@VMessageAuthenticationCode@CryptoPP@@$0A@@CryptoPP@@QBEPAVMessageAuthenticationCode@2@PBD@Z 0040544b f i bench.obj
 0001:00004480       ?CreateObject@?$ObjectFactoryRegistry@VSymmetricCipher@CryptoPP@@$0A@@CryptoPP@@QBEPAVSymmetricCipher@2@PBD@Z 00405480 f i bench.obj
 0001:000044f5       ??0FactoryNotFound@?$ObjectFactoryRegistry@VMessageAuthenticationCode@CryptoPP@@$0A@@CryptoPP@@QAE@ABV012@@Z 004054f5 f i bench.obj
 0001:0000450d       ??0FactoryNotFound@?$ObjectFactoryRegistry@VSymmetricCipher@CryptoPP@@$0A@@CryptoPP@@QAE@ABV012@@Z 0040550d f i bench.obj
 0001:00004525       ?compare@?$basic_string@DU?$char_traits@D@std@@V?$allocator@D@2@@std@@QBEHIIPBDI@Z 00405525 f i bench.obj
 0001:00004588       ?erase@?$_Tree@V?$basic_string@DU?$char_traits@D@std@@V?$allocator@D@2@@std@@U?$pair@$$CBV?$basic_string@DU?$char_traits@D@std@@V?$allocator@D@2@@std@@PAX@2@U_Kfn@?$map@V?$basic_string@DU?$char_traits@D@std@@V?$allocator@D@2@@std@@PAXU?$less@V?$basic_string@DU?$char_traits@D@std@@V?$allocator@D@2@@std@@@2@V?$allocator@PAX@2@@2@U?$less@V?$basic_string@DU?$char_traits@D@std@@V?$allocator@D@2@@std@@@2@V?$allocator@PAX@2@@std@@QAE?AViterator@12@V312@0@Z 00405588 f i bench.obj
 0001:000045ff       ?GetFactory@?$ObjectFactoryRegistry@VMessageAuthenticationCode@CryptoPP@@$0A@@CryptoPP@@QBEPBV?$ObjectFactory@VMessageAuthenticationCode@CryptoPP@@@2@PBD@Z 004055ff f i bench.obj
 0001:00004670       ??0FactoryNotFound@?$ObjectFactoryRegistry@VMessageAuthenticationCode@CryptoPP@@$0A@@CryptoPP@@QAE@PBD@Z 00405670 f i bench.obj
 0001:000046f8       ?GetFactory@?$ObjectFactoryRegistry@VSymmetricCipher@CryptoPP@@$0A@@CryptoPP@@QBEPBV?$ObjectFactory@VSymmetricCipher@CryptoPP@@@2@PBD@Z 004056f8 f i bench.obj
 0001:00004769       ??0FactoryNotFound@?$ObjectFactoryRegistry@VSymmetricCipher@CryptoPP@@$0A@@CryptoPP@@QAE@PBD@Z 00405769 f i bench.obj
 0001:000047f1       ?erase@?$_Tree@V?$basic_string@DU?$char_traits@D@std@@V?$allocator@D@2@@std@@U?$pair@$$CBV?$basic_string@DU?$char_traits@D@std@@V?$allocator@D@2@@std@@PAX@2@U_Kfn@?$map@V?$basic_string@DU?$char_traits@D@std@@V?$allocator@D@2@@std@@PAXU?$less@V?$basic_string@DU?$char_traits@D@std@@V?$allocator@D@2@@std@@@2@V?$allocator@PAX@2@@2@U?$less@V?$basic_string@DU?$char_traits@D@std@@V?$allocator@D@2@@std@@@2@V?$allocator@PAX@2@@std@@QAE?AViterator@12@V312@@Z 004057f1 f i bench.obj
 0001:00004a90       ?_Erase@?$_Tree@V?$basic_string@DU?$char_traits@D@std@@V?$allocator@D@2@@std@@U?$pair@$$CBV?$basic_string@DU?$char_traits@D@std@@V?$allocator@D@2@@std@@PAX@2@U_Kfn@?$map@V?$basic_string@DU?$char_traits@D@std@@V?$allocator@D@2@@std@@PAXU?$less@V?$basic_string@DU?$char_traits@D@std@@V?$allocator@D@2@@std@@@2@V?$allocator@PAX@2@@2@U?$less@V?$basic_string@DU?$char_traits@D@std@@V?$allocator@D@2@@std@@@2@V?$allocator@PAX@2@@std@@IAEXPAU_Node@12@@Z 00405a90 f i bench.obj
 0001:00004ace       ?_Init@?$_Tree@V?$basic_string@DU?$char_traits@D@std@@V?$allocator@D@2@@std@@U?$pair@$$CBV?$basic_string@DU?$char_traits@D@std@@V?$allocator@D@2@@std@@PAX@2@U_Kfn@?$map@V?$basic_string@DU?$char_traits@D@std@@V?$allocator@D@2@@std@@PAXU?$less@V?$basic_string@DU?$char_traits@D@std@@V?$allocator@D@2@@std@@@2@V?$allocator@PAX@2@@2@U?$less@V?$basic_string@DU?$char_traits@D@std@@V?$allocator@D@2@@std@@@2@V?$allocator@PAX@2@@std@@IAEXXZ 00405ace f i bench.obj
 0001:00004b57       ?_Inc@const_iterator@?$_Tree@V?$basic_string@DU?$char_traits@D@std@@V?$allocator@D@2@@std@@U?$pair@$$CBV?$basic_string@DU?$char_traits@D@std@@V?$allocator@D@2@@std@@PAX@2@U_Kfn@?$map@V?$basic_string@DU?$char_traits@D@std@@V?$allocator@D@2@@std@@PAXU?$less@V?$basic_string@DU?$char_traits@D@std@@V?$allocator@D@2@@std@@@2@V?$allocator@PAX@2@@2@U?$less@V?$basic_string@DU?$char_traits@D@std@@V?$allocator@D@2@@std@@@2@V?$allocator@PAX@2@@std@@QAEXXZ 00405b57 f i bench.obj
 0001:00004b8d       ?_Lrotate@?$_Tree@V?$basic_string@DU?$char_traits@D@std@@V?$allocator@D@2@@std@@U?$pair@$$CBV?$basic_string@DU?$char_traits@D@std@@V?$allocator@D@2@@std@@PAX@2@U_Kfn@?$map@V?$basic_string@DU?$char_traits@D@std@@V?$allocator@D@2@@std@@PAXU?$less@V?$basic_string@DU?$char_traits@D@std@@V?$allocator@D@2@@std@@@2@V?$allocator@PAX@2@@2@U?$less@V?$basic_string@DU?$char_traits@D@std@@V?$allocator@D@2@@std@@@2@V?$allocator@PAX@2@@std@@IAEXPAU_Node@12@@Z 00405b8d f i bench.obj
 0001:00004bd1       ?_Rrotate@?$_Tree@V?$basic_string@DU?$char_traits@D@std@@V?$allocator@D@2@@std@@U?$pair@$$CBV?$basic_string@DU?$char_traits@D@std@@V?$allocator@D@2@@std@@PAX@2@U_Kfn@?$map@V?$basic_string@DU?$char_traits@D@std@@V?$allocator@D@2@@std@@PAXU?$less@V?$basic_string@DU?$char_traits@D@std@@V?$allocator@D@2@@std@@@2@V?$allocator@PAX@2@@2@U?$less@V?$basic_string@DU?$char_traits@D@std@@V?$allocator@D@2@@std@@@2@V?$allocator@PAX@2@@std@@IAEXPAU_Node@12@@Z 00405bd1 f i bench.obj
 0001:00004c17       ?Registry@?$ObjectFactoryRegistry@VMessageAuthenticationCode@CryptoPP@@$0A@@CryptoPP@@SAAAV12@ZZ 00405c17 f i bench.obj
 0001:00004c42       ?Registry@?$ObjectFactoryRegistry@VSymmetricCipher@CryptoPP@@$0A@@CryptoPP@@SAAAV12@ZZ 00405c42 f i bench.obj
 0001:00004c6d       ?s_registry@?1??Registry@?$ObjectFactoryRegistry@VSymmetricCipher@CryptoPP@@$0A@@CryptoPP@@SAAAV12@ZZ@$AV12@A 00405c6d f i bench.obj
 0001:00004c77       ?s_registry@?1??Registry@?$ObjectFactoryRegistry@VMessageAuthenticationCode@CryptoPP@@$0A@@CryptoPP@@SAAAV12@ZZ@$AV12@A 00405c77 f i bench.obj
 0001:00004c81       ??1?$pair@$$CBV?$basic_string@DU?$char_traits@D@std@@V?$allocator@D@2@@std@@PAX@std@@QAE@XZ 00405c81 f i bench.obj
 0001:00004c81       ??1?$basic_string@DU?$char_traits@D@std@@V?$allocator@D@2@@std@@QAE@XZ 00405c81 f i bench.obj
 0001:00004c89       ??1?$ObjectFactoryRegistry@VMessageAuthenticationCode@CryptoPP@@$0A@@CryptoPP@@QAE@XZ 00405c89 f i bench.obj
 0001:00004c89       ??1?$ObjectFactoryRegistry@VSymmetricCipher@CryptoPP@@$0A@@CryptoPP@@QAE@XZ 00405c89 f i bench.obj
 0001:00004cc9       ?BenchMarkEncryption@@YAXPBDAAVPK_Encryptor@CryptoPP@@N_N@Z 00405cc9 f   bench2.obj
 0001:00004de5       ?BenchMarkDecryption@@YAXPBDAAVPK_Decryptor@CryptoPP@@AAVPK_Encryptor@2@N@Z 00405de5 f   bench2.obj
 0001:00004eed       ?BenchMarkSigning@@YAXPBDAAVPK_Signer@CryptoPP@@N_N@Z 00405eed f   bench2.obj
 0001:00005001       ?BenchMarkVerification@@YAXPBDABVPK_Signer@CryptoPP@@AAVPK_Verifier@2@N_N@Z 00406001 f   bench2.obj
 0001:00005127       ?BenchMarkKeyGen@@YAXPBDAAVSimpleKeyAgreementDomain@CryptoPP@@N_N@Z 00406127 f   bench2.obj
 0001:00005227       ?BenchMarkKeyGen@@YAXPBDAAVAuthenticatedKeyAgreementDomain@CryptoPP@@N_N@Z 00406227 f   bench2.obj
 0001:00005327       ?BenchMarkAgreement@@YAXPBDAAVSimpleKeyAgreementDomain@CryptoPP@@N_N@Z 00406327 f   bench2.obj
 0001:0000549b       ?BenchMarkAgreement@@YAXPBDAAVAuthenticatedKeyAgreementDomain@CryptoPP@@N_N@Z 0040649b f   bench2.obj
 0001:000056e4       ?BenchmarkAll2@@YAXNN@Z    004066e4 f   bench2.obj
 0001:00005c80       ??_D?$DL_GroupParameters_EC@VECP@CryptoPP@@@CryptoPP@@QAEXXZ 00406c80 f i bench2.obj
 0001:00005c97       ??1?$DH_Domain@V?$DL_GroupParameters_EC@VECP@CryptoPP@@@CryptoPP@@U?$EnumToType@W4CofactorMultiplicationOption@CryptoPP@@$01@2@@CryptoPP@@UAE@XZ 00406c97 f i bench2.obj
 0001:00005cc0       ??1?$MQV_Domain@V?$DL_GroupParameters_EC@VECP@CryptoPP@@@CryptoPP@@U?$EnumToType@W4CofactorMultiplicationOption@CryptoPP@@$01@2@@CryptoPP@@UAE@XZ 00406cc0 f i bench2.obj
 0001:00005ce9       ??_D?$DL_GroupParameters_EC@VEC2N@CryptoPP@@@CryptoPP@@QAEXXZ 00406ce9 f i bench2.obj
 0001:00005d00       ??1?$DH_Domain@V?$DL_GroupParameters_EC@VEC2N@CryptoPP@@@CryptoPP@@U?$EnumToType@W4CofactorMultiplicationOption@CryptoPP@@$01@2@@CryptoPP@@UAE@XZ 00406d00 f i bench2.obj
 0001:00005d29       ??1?$MQV_Domain@V?$DL_GroupParameters_EC@VEC2N@CryptoPP@@@CryptoPP@@U?$EnumToType@W4CofactorMultiplicationOption@CryptoPP@@$01@2@@CryptoPP@@UAE@XZ 00406d29 f i bench2.obj
 0001:00005d52       ??1?$DL_GroupParameters_EC@VECP@CryptoPP@@@CryptoPP@@UAE@XZ 00406d52 f i bench2.obj
 0001:00005db1       ??1?$DL_GroupParameters_EC@VEC2N@CryptoPP@@@CryptoPP@@UAE@XZ 00406db1 f i bench2.obj
 0001:00005e10       ??1?$DL_GroupParametersImpl@V?$EcPrecomputation@VECP@CryptoPP@@@CryptoPP@@V?$DL_FixedBasePrecomputationImpl@UECPPoint@CryptoPP@@@2@V?$DL_GroupParameters@UECPPoint@CryptoPP@@@2@@CryptoPP@@UAE@XZ 00406e10 f i bench2.obj
 0001:00005e49       ??1?$DL_GroupParametersImpl@V?$EcPrecomputation@VEC2N@CryptoPP@@@CryptoPP@@V?$DL_FixedBasePrecomputationImpl@UEC2NPoint@CryptoPP@@@2@V?$DL_GroupParameters@UEC2NPoint@CryptoPP@@@2@@CryptoPP@@UAE@XZ 00406e49 f i bench2.obj
 0001:00005e85       ??1?$DL_ObjectImplBase@V?$DL_DecryptorBase@UECPPoint@CryptoPP@@@CryptoPP@@U?$DL_CryptoSchemeOptions@U?$ECIES@VECP@CryptoPP@@U?$EnumToType@W4CofactorMultiplicationOption@CryptoPP@@$0A@@2@$0A@@CryptoPP@@U?$DL_Keys_EC@VECP@CryptoPP@@@2@V?$DL_KeyAgreementAlgorithm_DH@UECPPoint@CryptoPP@@U?$EnumToType@W4CofactorMultiplicationOption@CryptoPP@@$0A@@2@@2@V?$DL_KeyDerivationAlgorithm_P1363@UECPPoint@CryptoPP@@$0A@V?$P1363_KDF2@VSHA1@CryptoPP@@@2@@2@V?$DL_EncryptionAlgorithm_Xor@V?$HMAC@VSHA1@CryptoPP@@@CryptoPP@@$0A@@2@@2@V?$DL_PrivateKey_EC@VECP@CryptoPP@@@2@@CryptoPP@@UAE@XZ 00406e85 f i bench2.obj
 0001:00005eab       ??1?$DL_ObjectImplBase@V?$DL_EncryptorBase@UECPPoint@CryptoPP@@@CryptoPP@@U?$DL_CryptoSchemeOptions@U?$ECIES@VECP@CryptoPP@@U?$EnumToType@W4CofactorMultiplicationOption@CryptoPP@@$0A@@2@$0A@@CryptoPP@@U?$DL_Keys_EC@VECP@CryptoPP@@@2@V?$DL_KeyAgreementAlgorithm_DH@UECPPoint@CryptoPP@@U?$EnumToType@W4CofactorMultiplicationOption@CryptoPP@@$0A@@2@@2@V?$DL_KeyDerivationAlgorithm_P1363@UECPPoint@CryptoPP@@$0A@V?$P1363_KDF2@VSHA1@CryptoPP@@@2@@2@V?$DL_EncryptionAlgorithm_Xor@V?$HMAC@VSHA1@CryptoPP@@@CryptoPP@@$0A@@2@@2@V?$DL_PublicKey_EC@VECP@CryptoPP@@@2@@CryptoPP@@UAE@XZ 00406eab f i bench2.obj
 0001:00005ed1       ??1?$DL_ObjectImplBase@V?$DL_SignerBase@UECPPoint@CryptoPP@@@CryptoPP@@U?$DL_SignatureSchemeOptions@V?$DL_SS@U?$DL_Keys_ECDSA@VECP@CryptoPP@@@CryptoPP@@V?$DL_Algorithm_ECDSA@VECP@CryptoPP@@@2@VDL_SignatureMessageEncodingMethod_DSA@2@VSHA1@2@H@CryptoPP@@U?$DL_Keys_ECDSA@VECP@CryptoPP@@@2@V?$DL_Algorithm_ECDSA@VECP@CryptoPP@@@2@VDL_SignatureMessageEncodingMethod_DSA@2@VSHA1@2@@2@V?$DL_PrivateKey_WithSignaturePairwiseConsistencyTest@V?$DL_PrivateKey_EC@VECP@CryptoPP@@@CryptoPP@@U?$ECDSA@VECP@CryptoPP@@VSHA256@2@@2@@2@@CryptoPP@@UAE@XZ 00406ed1 f i bench2.obj
 0001:00005ef7       ??1?$DL_ObjectImplBase@V?$DL_VerifierBase@UECPPoint@CryptoPP@@@CryptoPP@@U?$DL_SignatureSchemeOptions@V?$DL_SS@U?$DL_Keys_ECDSA@VECP@CryptoPP@@@CryptoPP@@V?$DL_Algorithm_ECDSA@VECP@CryptoPP@@@2@VDL_SignatureMessageEncodingMethod_DSA@2@VSHA1@2@H@CryptoPP@@U?$DL_Keys_ECDSA@VECP@CryptoPP@@@2@V?$DL_Algorithm_ECDSA@VECP@CryptoPP@@@2@VDL_SignatureMessageEncodingMethod_DSA@2@VSHA1@2@@2@V?$DL_PublicKey_EC@VECP@CryptoPP@@@2@@CryptoPP@@UAE@XZ 00406ef7 f i bench2.obj
 0001:00005f1d       ??1?$EcPrecomputation@VECP@CryptoPP@@@CryptoPP@@QAE@XZ 00406f1d f i bench2.obj
 0001:00005f53       ??1?$DL_FixedBasePrecomputationImpl@UECPPoint@CryptoPP@@@CryptoPP@@QAE@XZ 00406f53 f i bench2.obj
 0001:00005f9f       ??1?$DL_ObjectImplBase@V?$DL_DecryptorBase@UEC2NPoint@CryptoPP@@@CryptoPP@@U?$DL_CryptoSchemeOptions@U?$ECIES@VEC2N@CryptoPP@@U?$EnumToType@W4CofactorMultiplicationOption@CryptoPP@@$0A@@2@$0A@@CryptoPP@@U?$DL_Keys_EC@VEC2N@CryptoPP@@@2@V?$DL_KeyAgreementAlgorithm_DH@UEC2NPoint@CryptoPP@@U?$EnumToType@W4CofactorMultiplicationOption@CryptoPP@@$0A@@2@@2@V?$DL_KeyDerivationAlgorithm_P1363@UEC2NPoint@CryptoPP@@$0A@V?$P1363_KDF2@VSHA1@CryptoPP@@@2@@2@V?$DL_EncryptionAlgorithm_Xor@V?$HMAC@VSHA1@CryptoPP@@@CryptoPP@@$0A@@2@@2@V?$DL_PrivateKey_EC@VEC2N@CryptoPP@@@2@@CryptoPP@@UAE@XZ 00406f9f f i bench2.obj
 0001:00005fc5       ??1?$DL_ObjectImplBase@V?$DL_EncryptorBase@UEC2NPoint@CryptoPP@@@CryptoPP@@U?$DL_CryptoSchemeOptions@U?$ECIES@VEC2N@CryptoPP@@U?$EnumToType@W4CofactorMultiplicationOption@CryptoPP@@$0A@@2@$0A@@CryptoPP@@U?$DL_Keys_EC@VEC2N@CryptoPP@@@2@V?$DL_KeyAgreementAlgorithm_DH@UEC2NPoint@CryptoPP@@U?$EnumToType@W4CofactorMultiplicationOption@CryptoPP@@$0A@@2@@2@V?$DL_KeyDerivationAlgorithm_P1363@UEC2NPoint@CryptoPP@@$0A@V?$P1363_KDF2@VSHA1@CryptoPP@@@2@@2@V?$DL_EncryptionAlgorithm_Xor@V?$HMAC@VSHA1@CryptoPP@@@CryptoPP@@$0A@@2@@2@V?$DL_PublicKey_EC@VEC2N@CryptoPP@@@2@@CryptoPP@@UAE@XZ 00406fc5 f i bench2.obj
 0001:00005feb       ??1?$DL_ObjectImplBase@V?$DL_SignerBase@UEC2NPoint@CryptoPP@@@CryptoPP@@U?$DL_SignatureSchemeOptions@V?$DL_SS@U?$DL_Keys_ECDSA@VEC2N@CryptoPP@@@CryptoPP@@V?$DL_Algorithm_ECDSA@VEC2N@CryptoPP@@@2@VDL_SignatureMessageEncodingMethod_DSA@2@VSHA1@2@H@CryptoPP@@U?$DL_Keys_ECDSA@VEC2N@CryptoPP@@@2@V?$DL_Algorithm_ECDSA@VEC2N@CryptoPP@@@2@VDL_SignatureMessageEncodingMethod_DSA@2@VSHA1@2@@2@V?$DL_PrivateKey_WithSignaturePairwiseConsistencyTest@V?$DL_PrivateKey_EC@VEC2N@CryptoPP@@@CryptoPP@@U?$ECDSA@VEC2N@CryptoPP@@VSHA256@2@@2@@2@@CryptoPP@@UAE@XZ 00406feb f i bench2.obj
 0001:00006011       ??1?$DL_ObjectImplBase@V?$DL_VerifierBase@UEC2NPoint@CryptoPP@@@CryptoPP@@U?$DL_SignatureSchemeOptions@V?$DL_SS@U?$DL_Keys_ECDSA@VEC2N@CryptoPP@@@CryptoPP@@V?$DL_Algorithm_ECDSA@VEC2N@CryptoPP@@@2@VDL_SignatureMessageEncodingMethod_DSA@2@VSHA1@2@H@CryptoPP@@U?$DL_Keys_ECDSA@VEC2N@CryptoPP@@@2@V?$DL_Algorithm_ECDSA@VEC2N@CryptoPP@@@2@VDL_SignatureMessageEncodingMethod_DSA@2@VSHA1@2@@2@V?$DL_PublicKey_EC@VEC2N@CryptoPP@@@2@@CryptoPP@@UAE@XZ 00407011 f i bench2.obj
 0001:00006037       ??1?$EcPrecomputation@VEC2N@CryptoPP@@@CryptoPP@@QAE@XZ 00407037 f i bench2.obj
 0001:0000603f       ??1?$DL_FixedBasePrecomputationImpl@UEC2NPoint@CryptoPP@@@CryptoPP@@QAE@XZ 0040703f f i bench2.obj
 0001:0000608b       ??_D?$DL_PrivateKey_WithSignaturePairwiseConsistencyTest@V?$DL_PrivateKey_EC@VECP@CryptoPP@@@CryptoPP@@U?$ECDSA@VECP@CryptoPP@@VSHA256@2@@2@@CryptoPP@@QAEXXZ 0040708b f i bench2.obj
 0001:000060a3       ??_D?$DL_PrivateKey_WithSignaturePairwiseConsistencyTest@V?$DL_PrivateKey_EC@VEC2N@CryptoPP@@@CryptoPP@@U?$ECDSA@VEC2N@CryptoPP@@VSHA256@2@@2@@CryptoPP@@QAEXXZ 004070a3 f i bench2.obj
 0001:000060bb       ??1?$DL_PrivateKey_WithSignaturePairwiseConsistencyTest@V?$DL_PrivateKey_EC@VEC2N@CryptoPP@@@CryptoPP@@U?$ECDSA@VEC2N@CryptoPP@@VSHA256@2@@2@@CryptoPP@@UAE@XZ 004070bb f i bench2.obj
 0001:000060bb       ??1?$DL_PrivateKey_EC@VEC2N@CryptoPP@@@CryptoPP@@UAE@XZ 004070bb f i bench2.obj
 0001:000060c0       ??1?$DL_PrivateKeyImpl@V?$DL_GroupParameters_EC@VECP@CryptoPP@@@CryptoPP@@@CryptoPP@@UAE@XZ 004070c0 f i bench2.obj
 0001:00006127       ??1?$DL_PublicKeyImpl@V?$DL_GroupParameters_EC@VECP@CryptoPP@@@CryptoPP@@@CryptoPP@@UAE@XZ 00407127 f i bench2.obj
 0001:00006172       ??1?$DL_PrivateKeyImpl@V?$DL_GroupParameters_EC@VEC2N@CryptoPP@@@CryptoPP@@@CryptoPP@@UAE@XZ 00407172 f i bench2.obj
 0001:000061d9       ??1?$DL_PublicKeyImpl@V?$DL_GroupParameters_EC@VEC2N@CryptoPP@@@CryptoPP@@@CryptoPP@@UAE@XZ 004071d9 f i bench2.obj
 0001:00006224       ??1?$DL_KeyImpl@VPKCS8PrivateKey@CryptoPP@@V?$DL_GroupParameters_EC@VECP@CryptoPP@@@2@VOID@2@@CryptoPP@@UAE@XZ 00407224 f i bench2.obj
 0001:00006260       ??1?$DL_KeyImpl@VX509PublicKey@CryptoPP@@V?$DL_GroupParameters_EC@VECP@CryptoPP@@@2@VOID@2@@CryptoPP@@UAE@XZ 00407260 f i bench2.obj
 0001:00006289       ??1?$DL_KeyImpl@VPKCS8PrivateKey@CryptoPP@@V?$DL_GroupParameters_EC@VEC2N@CryptoPP@@@2@VOID@2@@CryptoPP@@UAE@XZ 00407289 f i bench2.obj
 0001:000062c5       ??1?$DL_KeyImpl@VX509PublicKey@CryptoPP@@V?$DL_GroupParameters_EC@VEC2N@CryptoPP@@@2@VOID@2@@CryptoPP@@UAE@XZ 004072c5 f i bench2.obj
 0001:000062ee       ??1PKCS8PrivateKey@CryptoPP@@UAE@XZ 004072ee f i bench2.obj
 0001:00006314       ??1?$vector@IV?$allocator@I@std@@@std@@QAE@XZ 00407314 f i bench2.obj
 0001:00006334       ??1?$SecBlock@IV?$AllocatorWithCleanup@I$00@CryptoPP@@@CryptoPP@@QAE@XZ 00407334 f i bench2.obj
 0001:00006334       ??1?$SecBlock@IV?$AllocatorWithCleanup@I$0A@@CryptoPP@@@CryptoPP@@QAE@XZ 00407334 f i bench2.obj
 0001:0000634c       ?Clone@Clonable@CryptoPP@@UBEPAV12@XZ 0040734c f i bench2.obj
 0001:000063a8       ??0NotImplemented@CryptoPP@@QAE@ABV01@@Z 004073a8 f i bench2.obj
 0001:000063c0       ?AlgorithmName@Algorithm@CryptoPP@@UBE?AV?$basic_string@DU?$char_traits@D@std@@V?$allocator@D@2@@std@@XZ 004073c0 f i bench2.obj
 0001:000063f8       ??1?$vector@UECPPoint@CryptoPP@@V?$allocator@UECPPoint@CryptoPP@@@std@@@std@@QAE@XZ 004073f8 f i bench2.obj
 0001:0000642b       ??1?$vector@UEC2NPoint@CryptoPP@@V?$allocator@UEC2NPoint@CryptoPP@@@std@@@std@@QAE@XZ 0040742b f i bench2.obj
 0001:0000645e       ??0?$DL_GroupParameters_EC@VECP@CryptoPP@@@CryptoPP@@QAE@ABVOID@1@@Z 0040745e f i bench2.obj
 0001:00006514       ?ThrowIfInvalid@CryptoMaterial@CryptoPP@@UBEXAAVRandomNumberGenerator@2@I@Z 00407514 f i bench2.obj
 0001:0000658d       ?Save@CryptoMaterial@CryptoPP@@UBEXAAVBufferedTransformation@2@@Z 0040758d f i bench2.obj
 0001:000065e9       ?Load@CryptoMaterial@CryptoPP@@UAEXAAVBufferedTransformation@2@@Z 004075e9 f i bench2.obj
 0001:00006645       ??0InvalidMaterial@CryptoMaterial@CryptoPP@@QAE@ABV012@@Z 00407645 f i bench2.obj
 0001:0000665d       ??0InvalidDataFormat@CryptoPP@@QAE@ABV01@@Z 0040765d f i bench2.obj
 0001:00006675       ?EncodeElement@?$DL_GroupParameters_EC@VECP@CryptoPP@@@CryptoPP@@UBEX_NABUECPPoint@2@PAE@Z 00407675 f i bench2.obj
 0001:000066b0       ?GetEncodedElementSize@?$DL_GroupParameters_EC@VECP@CryptoPP@@@CryptoPP@@UBEI_N@Z 004076b0 f i bench2.obj
 0001:000066e6       ?DecodeElement@?$DL_GroupParameters_EC@VECP@CryptoPP@@@CryptoPP@@UBE?AUECPPoint@2@PBE_N@Z 004076e6 f i bench2.obj
 0001:000067ad       ?GetMaxExponent@?$DL_GroupParameters_EC@VECP@CryptoPP@@@CryptoPP@@UBE?AVInteger@2@XZ 004077ad f i bench2.obj
 0001:0000680d       ?SetSubgroupGenerator@?$DL_GroupParameters@UECPPoint@CryptoPP@@@CryptoPP@@UAEXABUECPPoint@2@@Z 0040780d f i bench2.obj
 0001:0000680d       ?SetSubgroupGenerator@?$DL_GroupParameters@UEC2NPoint@CryptoPP@@@CryptoPP@@UAEXABUEC2NPoint@2@@Z 0040780d f i bench2.obj
 0001:0000680d       ?SetSubgroupGenerator@?$DL_GroupParameters@VInteger@CryptoPP@@@CryptoPP@@UAEXABVInteger@2@@Z 0040780d f i bench2.obj
 0001:00006832       ?ExponentiateElement@?$DL_GroupParameters@UECPPoint@CryptoPP@@@CryptoPP@@UBE?AUECPPoint@2@ABU32@ABVInteger@2@@Z 00407832 f i bench2.obj
 0001:000068a7       ?GetGroupOrder@?$DL_GroupParameters@UECPPoint@CryptoPP@@@CryptoPP@@UBE?AVInteger@2@XZ 004078a7 f i bench2.obj
 0001:00006906       ??0?$DL_GroupParameters_EC@VEC2N@CryptoPP@@@CryptoPP@@QAE@ABVOID@1@@Z 00407906 f i bench2.obj
 0001:000069c1       ?GetSubgroupOrder@?$DL_GroupParameters_EC@VEC2N@CryptoPP@@@CryptoPP@@UBEABVInteger@2@XZ 004079c1 f i bench2.obj
 0001:000069c8       ?EncodeElement@?$DL_GroupParameters_EC@VEC2N@CryptoPP@@@CryptoPP@@UBEX_NABUEC2NPoint@2@PAE@Z 004079c8 f i bench2.obj
 0001:00006a02       ?GetEncodedElementSize@?$DL_GroupParameters_EC@VEC2N@CryptoPP@@@CryptoPP@@UBEI_N@Z 00407a02 f i bench2.obj
 0001:00006a30       ?DecodeElement@?$DL_GroupParameters_EC@VEC2N@CryptoPP@@@CryptoPP@@UBE?AUEC2NPoint@2@PBE_N@Z 00407a30 f i bench2.obj
 0001:00006af3       ?GetMaxExponent@?$DL_GroupParameters_EC@VEC2N@CryptoPP@@@CryptoPP@@UBE?AVInteger@2@XZ 00407af3 f i bench2.obj
 0001:00006b53       ?IsIdentity@?$DL_GroupParameters_EC@VECP@CryptoPP@@@CryptoPP@@UBE_NABUECPPoint@2@@Z 00407b53 f i bench2.obj
 0001:00006b53       ?IsIdentity@?$DL_GroupParameters_EC@VEC2N@CryptoPP@@@CryptoPP@@UBE_NABUEC2NPoint@2@@Z 00407b53 f i bench2.obj
 0001:00006b5c       ?ExponentiateElement@?$DL_GroupParameters@UEC2NPoint@CryptoPP@@@CryptoPP@@UBE?AUEC2NPoint@2@ABU32@ABVInteger@2@@Z 00407b5c f i bench2.obj
 0001:00006bd1       ?GetGroupOrder@?$DL_GroupParameters@UEC2NPoint@CryptoPP@@@CryptoPP@@UBE?AVInteger@2@XZ 00407bd1 f i bench2.obj
 0001:00006c70       ??0?$PK_FinalTemplate@V?$DL_EncryptorImpl@U?$DL_CryptoSchemeOptions@U?$ECIES@VECP@CryptoPP@@U?$EnumToType@W4CofactorMultiplicationOption@CryptoPP@@$0A@@2@$0A@@CryptoPP@@U?$DL_Keys_EC@VECP@CryptoPP@@@2@V?$DL_KeyAgreementAlgorithm_DH@UECPPoint@CryptoPP@@U?$EnumToType@W4CofactorMultiplicationOption@CryptoPP@@$0A@@2@@2@V?$DL_KeyDerivationAlgorithm_P1363@UECPPoint@CryptoPP@@$0A@V?$P1363_KDF2@VSHA1@CryptoPP@@@2@@2@V?$DL_EncryptionAlgorithm_Xor@V?$HMAC@VSHA1@CryptoPP@@@CryptoPP@@$0A@@2@@CryptoPP@@@CryptoPP@@@CryptoPP@@QAE@ABVAsymmetricAlgorithm@1@@Z 00407c70 f i bench2.obj
 0001:00006cc2       ??1?$PK_FinalTemplate@V?$DL_EncryptorImpl@U?$DL_CryptoSchemeOptions@U?$ECIES@VECP@CryptoPP@@U?$EnumToType@W4CofactorMultiplicationOption@CryptoPP@@$0A@@2@$0A@@CryptoPP@@U?$DL_Keys_EC@VECP@CryptoPP@@@2@V?$DL_KeyAgreementAlgorithm_DH@UECPPoint@CryptoPP@@U?$EnumToType@W4CofactorMultiplicationOption@CryptoPP@@$0A@@2@@2@V?$DL_KeyDerivationAlgorithm_P1363@UECPPoint@CryptoPP@@$0A@V?$P1363_KDF2@VSHA1@CryptoPP@@@2@@2@V?$DL_EncryptionAlgorithm_Xor@V?$HMAC@VSHA1@CryptoPP@@@CryptoPP@@$0A@@2@@CryptoPP@@@CryptoPP@@@CryptoPP@@UAE@XZ 00407cc2 f i bench2.obj
 0001:00006cc2       ??1?$DL_EncryptorImpl@U?$DL_CryptoSchemeOptions@U?$ECIES@VECP@CryptoPP@@U?$EnumToType@W4CofactorMultiplicationOption@CryptoPP@@$0A@@2@$0A@@CryptoPP@@U?$DL_Keys_EC@VECP@CryptoPP@@@2@V?$DL_KeyAgreementAlgorithm_DH@UECPPoint@CryptoPP@@U?$EnumToType@W4CofactorMultiplicationOption@CryptoPP@@$0A@@2@@2@V?$DL_KeyDerivationAlgorithm_P1363@UECPPoint@CryptoPP@@$0A@V?$P1363_KDF2@VSHA1@CryptoPP@@@2@@2@V?$DL_EncryptionAlgorithm_Xor@V?$HMAC@VSHA1@CryptoPP@@@CryptoPP@@$0A@@2@@CryptoPP@@@CryptoPP@@UAE@XZ 00407cc2 f i bench2.obj
 0001:00006cc7       ??0?$PK_FinalTemplate@V?$DL_SignerImpl@U?$DL_SignatureSchemeOptions@V?$DL_SS@U?$DL_Keys_ECDSA@VECP@CryptoPP@@@CryptoPP@@V?$DL_Algorithm_ECDSA@VECP@CryptoPP@@@2@VDL_SignatureMessageEncodingMethod_DSA@2@VSHA1@2@H@CryptoPP@@U?$DL_Keys_ECDSA@VECP@CryptoPP@@@2@V?$DL_Algorithm_ECDSA@VECP@CryptoPP@@@2@VDL_SignatureMessageEncodingMethod_DSA@2@VSHA1@2@@CryptoPP@@@CryptoPP@@@CryptoPP@@QAE@ABVAsymmetricAlgorithm@1@@Z 00407cc7 f i bench2.obj
 0001:00006d28       ??1?$PK_FinalTemplate@V?$DL_SignerImpl@U?$DL_SignatureSchemeOptions@V?$DL_SS@U?$DL_Keys_ECDSA@VECP@CryptoPP@@@CryptoPP@@V?$DL_Algorithm_ECDSA@VECP@CryptoPP@@@2@VDL_SignatureMessageEncodingMethod_DSA@2@VSHA1@2@H@CryptoPP@@U?$DL_Keys_ECDSA@VECP@CryptoPP@@@2@V?$DL_Algorithm_ECDSA@VECP@CryptoPP@@@2@VDL_SignatureMessageEncodingMethod_DSA@2@VSHA1@2@@CryptoPP@@@CryptoPP@@@CryptoPP@@UAE@XZ 00407d28 f i bench2.obj
 0001:00006d28       ??1?$DL_SignerImpl@U?$DL_SignatureSchemeOptions@V?$DL_SS@U?$DL_Keys_ECDSA@VECP@CryptoPP@@@CryptoPP@@V?$DL_Algorithm_ECDSA@VECP@CryptoPP@@@2@VDL_SignatureMessageEncodingMethod_DSA@2@VSHA1@2@H@CryptoPP@@U?$DL_Keys_ECDSA@VECP@CryptoPP@@@2@V?$DL_Algorithm_ECDSA@VECP@CryptoPP@@@2@VDL_SignatureMessageEncodingMethod_DSA@2@VSHA1@2@@CryptoPP@@@CryptoPP@@UAE@XZ 00407d28 f i bench2.obj
 0001:00006d2d       ?AccessMaterial@PrivateKeyAlgorithm@CryptoPP@@UAEAAVCryptoMaterial@2@XZ 00407d2d f i bench2.obj
 0001:00006d2d       ?AccessMaterial@KeyAgreementAlgorithm@CryptoPP@@UAEAAVCryptoMaterial@2@XZ 00407d2d f i bench2.obj
 0001:00006d42       ?GetMaterial@PrivateKeyAlgorithm@CryptoPP@@UBEABVCryptoMaterial@2@XZ 00407d42 f i bench2.obj
 0001:00006d42       ?GetMaterial@KeyAgreementAlgorithm@CryptoPP@@UBEABVCryptoMaterial@2@XZ 00407d42 f i bench2.obj
 0001:00006d57       ?GetPublicKey@PublicKeyAlgorithm@CryptoPP@@UBEABVPublicKey@2@XZ 00407d57 f i bench2.obj
 0001:00006d57       ?GetCryptoParameters@KeyAgreementAlgorithm@CryptoPP@@UBEABVCryptoParameters@2@XZ 00407d57 f i bench2.obj
 0001:00006d57       ?GetPrivateKey@PrivateKeyAlgorithm@CryptoPP@@UBEABVPrivateKey@2@XZ 00407d57 f i bench2.obj
 0001:00006d5c       ?MaxSignatureLength@PK_SignatureScheme@CryptoPP@@UBEII@Z 00407d5c f i bench2.obj
 0001:00006d64       ?NewSignatureAccumulator@?$DL_SignerImpl@U?$DL_SignatureSchemeOptions@V?$DL_SS@U?$DL_Keys_ECDSA@VECP@CryptoPP@@@CryptoPP@@V?$DL_Algorithm_ECDSA@VECP@CryptoPP@@@2@VDL_SignatureMessageEncodingMethod_DSA@2@VSHA1@2@H@CryptoPP@@U?$DL_Keys_ECDSA@VECP@CryptoPP@@@2@V?$DL_Algorithm_ECDSA@VECP@CryptoPP@@@2@VDL_SignatureMessageEncodingMethod_DSA@2@VSHA1@2@@CryptoPP@@@CryptoPP@@UBEPAVPK_MessageAccumulator@2@AAVRandomNumberGenerator@2@@Z 00407d64 f i bench2.obj
 0001:00006db9       ?AccessKeyInterface@?$DL_ObjectImplBase@V?$DL_SignerBase@VInteger@CryptoPP@@@CryptoPP@@U?$DL_SignatureSchemeOptions@V?$DL_SS@UDL_SignatureKeys_LUC@CryptoPP@@VDL_Algorithm_LUC_HMP@2@VDL_SignatureMessageEncodingMethod_DSA@2@VSHA1@2@H@CryptoPP@@UDL_SignatureKeys_LUC@2@VDL_Algorithm_LUC_HMP@2@VDL_SignatureMessageEncodingMethod_DSA@2@VSHA1@2@@2@V?$DL_PrivateKey_GFP@VDL_GroupParameters_LUC@CryptoPP@@@2@@CryptoPP@@MAEAAV?$DL_PrivateKey@VInteger@CryptoPP@@@2@XZ 00407db9 f i bench2.obj
 0001:00006db9       ?AccessKeyInterface@?$DL_ObjectImplBase@V?$DL_VerifierBase@VInteger@CryptoPP@@@CryptoPP@@U?$DL_SignatureSchemeOptions@V?$DL_SS@UDL_SignatureKeys_GFP@CryptoPP@@V?$DL_Algorithm_GDSA@VInteger@CryptoPP@@@2@VDL_SignatureMessageEncodingMethod_DSA@2@VSHA1@2@H@CryptoPP@@UDL_SignatureKeys_GFP@2@V?$DL_Algorithm_GDSA@VInteger@CryptoPP@@@2@VDL_SignatureMessageEncodingMethod_DSA@2@VSHA1@2@@2@V?$DL_PublicKey_GFP@VDL_GroupParameters_GFP@CryptoPP@@@2@@CryptoPP@@MAEAAV?$DL_PublicKey@VInteger@CryptoPP@@@2@XZ 00407db9 f i bench2.obj
 0001:00006db9       ?AccessKeyInterface@?$DL_ObjectImplBase@V?$DL_EncryptorBase@UECPPoint@CryptoPP@@@CryptoPP@@U?$DL_CryptoSchemeOptions@U?$ECIES@VECP@CryptoPP@@U?$EnumToType@W4CofactorMultiplicationOption@CryptoPP@@$0A@@2@$0A@@CryptoPP@@U?$DL_Keys_EC@VECP@CryptoPP@@@2@V?$DL_KeyAgreementAlgorithm_DH@UECPPoint@CryptoPP@@U?$EnumToType@W4CofactorMultiplicationOption@CryptoPP@@$0A@@2@@2@V?$DL_KeyDerivationAlgorithm_P1363@UECPPoint@CryptoPP@@$0A@V?$P1363_KDF2@VSHA1@CryptoPP@@@2@@2@V?$DL_EncryptionAlgorithm_Xor@V?$HMAC@VSHA1@CryptoPP@@@CryptoPP@@$0A@@2@@2@V?$DL_PublicKey_EC@VECP@CryptoPP@@@2@@CryptoPP@@MAEAAV?$DL_PublicKey@UECPPoint@CryptoPP@@@2@XZ 00407db9 f i bench2.obj
 0001:00006db9       ?GetKeyInterface@?$DL_ObjectImplBase@V?$DL_SignerBase@UECPPoint@CryptoPP@@@CryptoPP@@U?$DL_SignatureSchemeOptions@V?$DL_SS@U?$DL_Keys_ECDSA@VECP@CryptoPP@@@CryptoPP@@V?$DL_Algorithm_ECDSA@VECP@CryptoPP@@@2@VDL_SignatureMessageEncodingMethod_DSA@2@VSHA1@2@H@CryptoPP@@U?$DL_Keys_ECDSA@VECP@CryptoPP@@@2@V?$DL_Algorithm_ECDSA@VECP@CryptoPP@@@2@VDL_SignatureMessageEncodingMethod_DSA@2@VSHA1@2@@2@V?$DL_PrivateKey_WithSignaturePairwiseConsistencyTest@V?$DL_PrivateKey_EC@VECP@CryptoPP@@@CryptoPP@@U?$ECDSA@VECP@CryptoPP@@VSHA256@2@@2@@2@@CryptoPP@@MBEABV?$DL_PrivateKey@UECPPoint@CryptoPP@@@2@XZ 00407db9 f i bench2.obj
 0001:00006db9       ?GetKeyInterface@?$DL_ObjectImplBase@V?$DL_VerifierBase@UEC2NPoint@CryptoPP@@@CryptoPP@@U?$DL_SignatureSchemeOptions@V?$DL_SS@U?$DL_Keys_ECDSA@VEC2N@CryptoPP@@@CryptoPP@@V?$DL_Algorithm_ECDSA@VEC2N@CryptoPP@@@2@VDL_SignatureMessageEncodingMethod_DSA@2@VSHA256@2@H@CryptoPP@@U?$DL_Keys_ECDSA@VEC2N@CryptoPP@@@2@V?$DL_Algorithm_ECDSA@VEC2N@CryptoPP@@@2@VDL_SignatureMessageEncodingMethod_DSA@2@VSHA256@2@@2@V?$DL_PublicKey_EC@VEC2N@CryptoPP@@@2@@CryptoPP@@MBEABV?$DL_PublicKey@UEC2NPoint@CryptoPP@@@2@XZ 00407db9 f i bench2.obj
 0001:00006db9       ?GetKeyInterface@?$DL_ObjectImplBase@V?$DL_VerifierBase@UEC2NPoint@CryptoPP@@@CryptoPP@@U?$DL_SignatureSchemeOptions@V?$DL_SS@U?$DL_Keys_ECDSA@VEC2N@CryptoPP@@@CryptoPP@@V?$DL_Algorithm_ECDSA@VEC2N@CryptoPP@@@2@VDL_SignatureMessageEncodingMethod_DSA@2@VSHA1@2@H@CryptoPP@@U?$DL_Keys_ECDSA@VEC2N@CryptoPP@@@2@V?$DL_Algorithm_ECDSA@VEC2N@CryptoPP@@@2@VDL_SignatureMessageEncodingMethod_DSA@2@VSHA1@2@@2@V?$DL_PublicKey_EC@VEC2N@CryptoPP@@@2@@CryptoPP@@MBEABV?$DL_PublicKey@UEC2NPoint@CryptoPP@@@2@XZ 00407db9 f i bench2.obj
 0001:00006db9       ?GetKeyInterface@?$DL_ObjectImplBase@V?$DL_EncryptorBase@VInteger@CryptoPP@@@CryptoPP@@U?$DL_CryptoSchemeOptions@U?$DLIES@U?$EnumToType@W4CofactorMultiplicationOption@CryptoPP@@$0A@@CryptoPP@@$00@CryptoPP@@UDL_CryptoKeys_GFP@2@V?$DL_KeyAgreementAlgorithm_DH@VInteger@CryptoPP@@U?$EnumToType@W4CofactorMultiplicationOption@CryptoPP@@$0A@@2@@2@V?$DL_KeyDerivationAlgorithm_P1363@VInteger@CryptoPP@@$00V?$P1363_KDF2@VSHA1@CryptoPP@@@2@@2@V?$DL_EncryptionAlgorithm_Xor@V?$HMAC@VSHA1@CryptoPP@@@CryptoPP@@$00@2@@2@V?$DL_PublicKey_GFP@VDL_GroupParameters_GFP_DefaultSafePrime@CryptoPP@@@2@@CryptoPP@@MBEABV?$DL_PublicKey@VInteger@CryptoPP@@@2@XZ 00407db9 f i bench2.obj
 0001:00006db9       ?AccessAbstractGroupParameters@?$DH_Domain@V?$DL_GroupParameters_EC@VECP@CryptoPP@@@CryptoPP@@U?$EnumToType@W4CofactorMultiplicationOption@CryptoPP@@$01@2@@CryptoPP@@EAEAAV?$DL_GroupParameters@UECPPoint@CryptoPP@@@2@XZ 00407db9 f i bench2.obj
 0001:00006db9       ?GetKeyInterface@?$DL_ObjectImplBase@V?$DL_SignerBase@UECPPoint@CryptoPP@@@CryptoPP@@U?$DL_SignatureSchemeOptions@V?$DL_SS@U?$DL_Keys_ECDSA@VECP@CryptoPP@@@CryptoPP@@V?$DL_Algorithm_ECDSA@VECP@CryptoPP@@@2@VDL_SignatureMessageEncodingMethod_DSA@2@VSHA256@2@H@CryptoPP@@U?$DL_Keys_ECDSA@VECP@CryptoPP@@@2@V?$DL_Algorithm_ECDSA@VECP@CryptoPP@@@2@VDL_SignatureMessageEncodingMethod_DSA@2@VSHA256@2@@2@V?$DL_PrivateKey_WithSignaturePairwiseConsistencyTest@V?$DL_PrivateKey_EC@VECP@CryptoPP@@@CryptoPP@@U?$ECDSA@VECP@CryptoPP@@VSHA256@2@@2@@2@@CryptoPP@@MBEABV?$DL_PrivateKey@UECPPoint@CryptoPP@@@2@XZ 00407db9 f i bench2.obj
 0001:00006db9       ?GetKeyInterface@?$DL_ObjectImplBase@V?$DL_VerifierBase@VInteger@CryptoPP@@@CryptoPP@@U?$DL_SignatureSchemeOptions@V?$DL_SS@UDL_SignatureKeys_GFP@CryptoPP@@V?$DL_Algorithm_GDSA@VInteger@CryptoPP@@@2@VDL_SignatureMessageEncodingMethod_DSA@2@VSHA1@2@H@CryptoPP@@UDL_SignatureKeys_GFP@2@V?$DL_Algorithm_GDSA@VInteger@CryptoPP@@@2@VDL_SignatureMessageEncodingMethod_DSA@2@VSHA1@2@@2@V?$DL_PublicKey_GFP@VDL_GroupParameters_GFP@CryptoPP@@@2@@CryptoPP@@MBEABV?$DL_PublicKey@VInteger@CryptoPP@@@2@XZ 00407db9 f i bench2.obj
 0001:00006db9       ?AccessKeyInterface@?$DL_ObjectImplBase@V?$DL_EncryptorBase@VInteger@CryptoPP@@@CryptoPP@@U?$DL_CryptoSchemeOptions@U?$DLIES@U?$EnumToType@W4CofactorMultiplicationOption@CryptoPP@@$0A@@CryptoPP@@$00@CryptoPP@@UDL_CryptoKeys_GFP@2@V?$DL_KeyAgreementAlgorithm_DH@VInteger@CryptoPP@@U?$EnumToType@W4CofactorMultiplicationOption@CryptoPP@@$0A@@2@@2@V?$DL_KeyDerivationAlgorithm_P1363@VInteger@CryptoPP@@$00V?$P1363_KDF2@VSHA1@CryptoPP@@@2@@2@V?$DL_EncryptionAlgorithm_Xor@V?$HMAC@VSHA1@CryptoPP@@@CryptoPP@@$00@2@@2@V?$DL_PublicKey_GFP@VDL_GroupParameters_GFP_DefaultSafePrime@CryptoPP@@@2@@CryptoPP@@MAEAAV?$DL_PublicKey@VInteger@CryptoPP@@@2@XZ 00407db9 f i bench2.obj
 0001:00006db9       ?GetKeyInterface@?$DL_ObjectImplBase@V?$DL_VerifierBase@VInteger@CryptoPP@@@CryptoPP@@U?$DL_SignatureSchemeOptions@UDSA@CryptoPP@@UDL_Keys_DSA@2@V?$DL_Algorithm_GDSA@VInteger@CryptoPP@@@2@VDL_SignatureMessageEncodingMethod_DSA@2@VSHA1@2@@2@V?$DL_PublicKey_GFP@VDL_GroupParameters_DSA@CryptoPP@@@2@@CryptoPP@@MBEABV?$DL_PublicKey@VInteger@CryptoPP@@@2@XZ 00407db9 f i bench2.obj
 0001:00006db9       ?GetKeyInterface@?$DL_ObjectImplBase@V?$DL_VerifierBase@UECPPoint@CryptoPP@@@CryptoPP@@U?$DL_SignatureSchemeOptions@V?$DL_SS@U?$DL_Keys_ECDSA@VECP@CryptoPP@@@CryptoPP@@V?$DL_Algorithm_ECDSA@VECP@CryptoPP@@@2@VDL_SignatureMessageEncodingMethod_DSA@2@VSHA1@2@H@CryptoPP@@U?$DL_Keys_ECDSA@VECP@CryptoPP@@@2@V?$DL_Algorithm_ECDSA@VECP@CryptoPP@@@2@VDL_SignatureMessageEncodingMethod_DSA@2@VSHA1@2@@2@V?$DL_PublicKey_EC@VECP@CryptoPP@@@2@@CryptoPP@@MBEABV?$DL_PublicKey@UECPPoint@CryptoPP@@@2@XZ 00407db9 f i bench2.obj
 0001:00006db9       ?AccessCryptoParameters@?$MQV_Domain@V?$DL_GroupParameters_EC@VEC2N@CryptoPP@@@CryptoPP@@U?$EnumToType@W4CofactorMultiplicationOption@CryptoPP@@$01@2@@CryptoPP@@UAEAAVCryptoParameters@2@XZ 00407db9 f i bench2.obj
 0001:00006db9       ?AccessKeyInterface@?$DL_ObjectImplBase@V?$DL_VerifierBase@UEC2NPoint@CryptoPP@@@CryptoPP@@U?$DL_SignatureSchemeOptions@V?$DL_SS@U?$DL_Keys_ECDSA@VEC2N@CryptoPP@@@CryptoPP@@V?$DL_Algorithm_ECDSA@VEC2N@CryptoPP@@@2@VDL_SignatureMessageEncodingMethod_DSA@2@VSHA1@2@H@CryptoPP@@U?$DL_Keys_ECDSA@VEC2N@CryptoPP@@@2@V?$DL_Algorithm_ECDSA@VEC2N@CryptoPP@@@2@VDL_SignatureMessageEncodingMethod_DSA@2@VSHA1@2@@2@V?$DL_PublicKey_EC@VEC2N@CryptoPP@@@2@@CryptoPP@@MAEAAV?$DL_PublicKey@UEC2NPoint@CryptoPP@@@2@XZ 00407db9 f i bench2.obj
 0001:00006db9       ?GetKeyInterface@?$DL_ObjectImplBase@V?$DL_EncryptorBase@UEC2NPoint@CryptoPP@@@CryptoPP@@U?$DL_CryptoSchemeOptions@U?$ECIES@VEC2N@CryptoPP@@U?$EnumToType@W4CofactorMultiplicationOption@CryptoPP@@$0A@@2@$0A@@CryptoPP@@U?$DL_Keys_EC@VEC2N@CryptoPP@@@2@V?$DL_KeyAgreementAlgorithm_DH@UEC2NPoint@CryptoPP@@U?$EnumToType@W4CofactorMultiplicationOption@CryptoPP@@$0A@@2@@2@V?$DL_KeyDerivationAlgorithm_P1363@UEC2NPoint@CryptoPP@@$0A@V?$P1363_KDF2@VSHA1@CryptoPP@@@2@@2@V?$DL_EncryptionAlgorithm_Xor@V?$HMAC@VSHA1@CryptoPP@@@CryptoPP@@$0A@@2@@2@V?$DL_PublicKey_EC@VEC2N@CryptoPP@@@2@@CryptoPP@@MBEABV?$DL_PublicKey@UEC2NPoint@CryptoPP@@@2@XZ 00407db9 f i bench2.obj
 0001:00006db9       ?AccessKeyInterface@?$DL_ObjectImplBase@V?$DL_DecryptorBase@VInteger@CryptoPP@@@CryptoPP@@U?$DL_CryptoSchemeOptions@U?$DLIES@U?$EnumToType@W4CofactorMultiplicationOption@CryptoPP@@$0A@@CryptoPP@@$00@CryptoPP@@UDL_CryptoKeys_GFP@2@V?$DL_KeyAgreementAlgorithm_DH@VInteger@CryptoPP@@U?$EnumToType@W4CofactorMultiplicationOption@CryptoPP@@$0A@@2@@2@V?$DL_KeyDerivationAlgorithm_P1363@VInteger@CryptoPP@@$00V?$P1363_KDF2@VSHA1@CryptoPP@@@2@@2@V?$DL_EncryptionAlgorithm_Xor@V?$HMAC@VSHA1@CryptoPP@@@CryptoPP@@$00@2@@2@V?$DL_PrivateKey_GFP@VDL_GroupParameters_GFP_DefaultSafePrime@CryptoPP@@@2@@CryptoPP@@MAEAAV?$DL_PrivateKey@VInteger@CryptoPP@@@2@XZ 00407db9 f i bench2.obj
 0001:00006db9       ?AccessKeyInterface@?$DL_ObjectImplBase@V?$DL_DecryptorBase@UECPPoint@CryptoPP@@@CryptoPP@@U?$DL_CryptoSchemeOptions@U?$ECIES@VECP@CryptoPP@@U?$EnumToType@W4CofactorMultiplicationOption@CryptoPP@@$0A@@2@$0A@@CryptoPP@@U?$DL_Keys_EC@VECP@CryptoPP@@@2@V?$DL_KeyAgreementAlgorithm_DH@UECPPoint@CryptoPP@@U?$EnumToType@W4CofactorMultiplicationOption@CryptoPP@@$0A@@2@@2@V?$DL_KeyDerivationAlgorithm_P1363@UECPPoint@CryptoPP@@$0A@V?$P1363_KDF2@VSHA1@CryptoPP@@@2@@2@V?$DL_EncryptionAlgorithm_Xor@V?$HMAC@VSHA1@CryptoPP@@@CryptoPP@@$0A@@2@@2@V?$DL_PrivateKey_EC@VECP@CryptoPP@@@2@@CryptoPP@@MAEAAV?$DL_PrivateKey@UECPPoint@CryptoPP@@@2@XZ 00407db9 f i bench2.obj
 0001:00006db9       ?GetKeyInterface@?$DL_ObjectImplBase@V?$DL_VerifierBase@VInteger@CryptoPP@@@CryptoPP@@U?$DL_SignatureSchemeOptions@V?$DL_SS@UDL_SignatureKeys_GFP@CryptoPP@@V?$DL_Algorithm_NR@VInteger@CryptoPP@@@2@VDL_SignatureMessageEncodingMethod_NR@2@VSHA1@2@H@CryptoPP@@UDL_SignatureKeys_GFP@2@V?$DL_Algorithm_NR@VInteger@CryptoPP@@@2@VDL_SignatureMessageEncodingMethod_NR@2@VSHA1@2@@2@V?$DL_PublicKey_GFP@VDL_GroupParameters_GFP@CryptoPP@@@2@@CryptoPP@@MBEABV?$DL_PublicKey@VInteger@CryptoPP@@@2@XZ 00407db9 f i bench2.obj
 0001:00006db9       ?AccessKeyInterface@?$DL_ObjectImplBase@V?$DL_SignerBase@UECPPoint@CryptoPP@@@CryptoPP@@U?$DL_SignatureSchemeOptions@V?$DL_SS@U?$DL_Keys_ECDSA@VECP@CryptoPP@@@CryptoPP@@V?$DL_Algorithm_ECDSA@VECP@CryptoPP@@@2@VDL_SignatureMessageEncodingMethod_DSA@2@VSHA256@2@H@CryptoPP@@U?$DL_Keys_ECDSA@VECP@CryptoPP@@@2@V?$DL_Algorithm_ECDSA@VECP@CryptoPP@@@2@VDL_SignatureMessageEncodingMethod_DSA@2@VSHA256@2@@2@V?$DL_PrivateKey_WithSignaturePairwiseConsistencyTest@V?$DL_PrivateKey_EC@VECP@CryptoPP@@@CryptoPP@@U?$ECDSA@VECP@CryptoPP@@VSHA256@2@@2@@2@@CryptoPP@@MAEAAV?$DL_PrivateKey@UECPPoint@CryptoPP@@@2@XZ 00407db9 f i bench2.obj
 0001:00006db9       ?AccessCryptoParameters@?$MQV_Domain@V?$DL_GroupParameters_EC@VECP@CryptoPP@@@CryptoPP@@U?$EnumToType@W4CofactorMultiplicationOption@CryptoPP@@$01@2@@CryptoPP@@UAEAAVCryptoParameters@2@XZ 00407db9 f i bench2.obj
 0001:00006db9       ?GetGroup@?$EcPrecomputation@VEC2N@CryptoPP@@@CryptoPP@@UBEABV?$AbstractGroup@UEC2NPoint@CryptoPP@@@2@XZ 00407db9 f i bench2.obj
 0001:00006db9       ?AccessKeyInterface@?$DL_ObjectImplBase@V?$DL_SignerBase@UEC2NPoint@CryptoPP@@@CryptoPP@@U?$DL_SignatureSchemeOptions@V?$DL_SS@U?$DL_Keys_ECDSA@VEC2N@CryptoPP@@@CryptoPP@@V?$DL_Algorithm_ECDSA@VEC2N@CryptoPP@@@2@VDL_SignatureMessageEncodingMethod_DSA@2@VSHA256@2@H@CryptoPP@@U?$DL_Keys_ECDSA@VEC2N@CryptoPP@@@2@V?$DL_Algorithm_ECDSA@VEC2N@CryptoPP@@@2@VDL_SignatureMessageEncodingMethod_DSA@2@VSHA256@2@@2@V?$DL_PrivateKey_WithSignaturePairwiseConsistencyTest@V?$DL_PrivateKey_EC@VEC2N@CryptoPP@@@CryptoPP@@U?$ECDSA@VEC2N@CryptoPP@@VSHA256@2@@2@@2@@CryptoPP@@MAEAAV?$DL_PrivateKey@UEC2NPoint@CryptoPP@@@2@XZ 00407db9 f i bench2.obj
 0001:00006db9       ?GetKeyInterface@?$DL_ObjectImplBase@V?$DL_EncryptorBase@UECPPoint@CryptoPP@@@CryptoPP@@U?$DL_CryptoSchemeOptions@U?$ECIES@VECP@CryptoPP@@U?$EnumToType@W4CofactorMultiplicationOption@CryptoPP@@$0A@@2@$0A@@CryptoPP@@U?$DL_Keys_EC@VECP@CryptoPP@@@2@V?$DL_KeyAgreementAlgorithm_DH@UECPPoint@CryptoPP@@U?$EnumToType@W4CofactorMultiplicationOption@CryptoPP@@$0A@@2@@2@V?$DL_KeyDerivationAlgorithm_P1363@UECPPoint@CryptoPP@@$0A@V?$P1363_KDF2@VSHA1@CryptoPP@@@2@@2@V?$DL_EncryptionAlgorithm_Xor@V?$HMAC@VSHA1@CryptoPP@@@CryptoPP@@$0A@@2@@2@V?$DL_PublicKey_EC@VECP@CryptoPP@@@2@@CryptoPP@@MBEABV?$DL_PublicKey@UECPPoint@CryptoPP@@@2@XZ 00407db9 f i bench2.obj
 0001:00006db9       ?GetKeyInterface@?$DL_ObjectImplBase@V?$DL_DecryptorBase@VInteger@CryptoPP@@@CryptoPP@@U?$DL_CryptoSchemeOptions@UElGamal@CryptoPP@@UElGamalKeys@2@HHH@2@V?$DL_PrivateKey_GFP_OldFormat@V?$DL_PrivateKey_GFP@VDL_GroupParameters_GFP_DefaultSafePrime@CryptoPP@@@CryptoPP@@@2@@CryptoPP@@MBEABV?$DL_PrivateKey@VInteger@CryptoPP@@@2@XZ 00407db9 f i bench2.obj
 0001:00006db9       ?AccessKeyInterface@?$DL_ObjectImplBase@V?$DL_VerifierBase@VInteger@CryptoPP@@@CryptoPP@@U?$DL_SignatureSchemeOptions@V?$DL_SS@UDL_SignatureKeys_LUC@CryptoPP@@VDL_Algorithm_LUC_HMP@2@VDL_SignatureMessageEncodingMethod_DSA@2@VSHA1@2@H@CryptoPP@@UDL_SignatureKeys_LUC@2@VDL_Algorithm_LUC_HMP@2@VDL_SignatureMessageEncodingMethod_DSA@2@VSHA1@2@@2@V?$DL_PublicKey_GFP@VDL_GroupParameters_LUC@CryptoPP@@@2@@CryptoPP@@MAEAAV?$DL_PublicKey@VInteger@CryptoPP@@@2@XZ 00407db9 f i bench2.obj
 0001:00006db9       ?GetKeyInterface@?$DL_ObjectImplBase@V?$DL_SignerBase@UEC2NPoint@CryptoPP@@@CryptoPP@@U?$DL_SignatureSchemeOptions@V?$DL_SS@U?$DL_Keys_ECDSA@VEC2N@CryptoPP@@@CryptoPP@@V?$DL_Algorithm_ECDSA@VEC2N@CryptoPP@@@2@VDL_SignatureMessageEncodingMethod_DSA@2@VSHA256@2@H@CryptoPP@@U?$DL_Keys_ECDSA@VEC2N@CryptoPP@@@2@V?$DL_Algorithm_ECDSA@VEC2N@CryptoPP@@@2@VDL_SignatureMessageEncodingMethod_DSA@2@VSHA256@2@@2@V?$DL_PrivateKey_WithSignaturePairwiseConsistencyTest@V?$DL_PrivateKey_EC@VEC2N@CryptoPP@@@CryptoPP@@U?$ECDSA@VEC2N@CryptoPP@@VSHA256@2@@2@@2@@CryptoPP@@MBEABV?$DL_PrivateKey@UEC2NPoint@CryptoPP@@@2@XZ 00407db9 f i bench2.obj
 0001:00006db9       ?GetKeyInterface@?$DL_ObjectImplBase@V?$DL_VerifierBase@UECPPoint@CryptoPP@@@CryptoPP@@U?$DL_SignatureSchemeOptions@V?$DL_SS@U?$DL_Keys_ECDSA@VECP@CryptoPP@@@CryptoPP@@V?$DL_Algorithm_ECDSA@VECP@CryptoPP@@@2@VDL_SignatureMessageEncodingMethod_DSA@2@VSHA256@2@H@CryptoPP@@U?$DL_Keys_ECDSA@VECP@CryptoPP@@@2@V?$DL_Algorithm_ECDSA@VECP@CryptoPP@@@2@VDL_SignatureMessageEncodingMethod_DSA@2@VSHA256@2@@2@V?$DL_PublicKey_EC@VECP@CryptoPP@@@2@@CryptoPP@@MBEABV?$DL_PublicKey@UECPPoint@CryptoPP@@@2@XZ 00407db9 f i bench2.obj
 0001:00006db9       ?GetKeyInterface@?$DL_ObjectImplBase@V?$DL_SignerBase@VInteger@CryptoPP@@@CryptoPP@@U?$DL_SignatureSchemeOptions@V?$DL_SS@UDL_SignatureKeys_GFP@CryptoPP@@V?$DL_Algorithm_NR@VInteger@CryptoPP@@@2@VDL_SignatureMessageEncodingMethod_NR@2@VSHA1@2@H@CryptoPP@@UDL_SignatureKeys_GFP@2@V?$DL_Algorithm_NR@VInteger@CryptoPP@@@2@VDL_SignatureMessageEncodingMethod_NR@2@VSHA1@2@@2@V?$DL_PrivateKey_GFP@VDL_GroupParameters_GFP@CryptoPP@@@2@@CryptoPP@@MBEABV?$DL_PrivateKey@VInteger@CryptoPP@@@2@XZ 00407db9 f i bench2.obj
 0001:00006db9       ?AccessKeyInterface@?$DL_ObjectImplBase@V?$DL_EncryptorBase@UEC2NPoint@CryptoPP@@@CryptoPP@@U?$DL_CryptoSchemeOptions@U?$ECIES@VEC2N@CryptoPP@@U?$EnumToType@W4CofactorMultiplicationOption@CryptoPP@@$0A@@2@$0A@@CryptoPP@@U?$DL_Keys_EC@VEC2N@CryptoPP@@@2@V?$DL_KeyAgreementAlgorithm_DH@UEC2NPoint@CryptoPP@@U?$EnumToType@W4CofactorMultiplicationOption@CryptoPP@@$0A@@2@@2@V?$DL_KeyDerivationAlgorithm_P1363@UEC2NPoint@CryptoPP@@$0A@V?$P1363_KDF2@VSHA1@CryptoPP@@@2@@2@V?$DL_EncryptionAlgorithm_Xor@V?$HMAC@VSHA1@CryptoPP@@@CryptoPP@@$0A@@2@@2@V?$DL_PublicKey_EC@VEC2N@CryptoPP@@@2@@CryptoPP@@MAEAAV?$DL_PublicKey@UEC2NPoint@CryptoPP@@@2@XZ 00407db9 f i bench2.obj
 0001:00006db9       ?GetKeyInterface@?$DL_ObjectImplBase@V?$DL_SignerBase@VInteger@CryptoPP@@@CryptoPP@@U?$DL_SignatureSchemeOptions@V?$DL_SS@UDL_SignatureKeys_GFP@CryptoPP@@V?$DL_Algorithm_GDSA@VInteger@CryptoPP@@@2@VDL_SignatureMessageEncodingMethod_DSA@2@VSHA1@2@H@CryptoPP@@UDL_SignatureKeys_GFP@2@V?$DL_Algorithm_GDSA@VInteger@CryptoPP@@@2@VDL_SignatureMessageEncodingMethod_DSA@2@VSHA1@2@@2@V?$DL_PrivateKey_GFP@VDL_GroupParameters_GFP@CryptoPP@@@2@@CryptoPP@@MBEABV?$DL_PrivateKey@VInteger@CryptoPP@@@2@XZ 00407db9 f i bench2.obj
 0001:00006db9       ?GetKeyInterface@?$DL_ObjectImplBase@V?$DL_VerifierBase@VInteger@CryptoPP@@@CryptoPP@@U?$DL_SignatureSchemeOptions@V?$DL_SS@UDL_SignatureKeys_LUC@CryptoPP@@VDL_Algorithm_LUC_HMP@2@VDL_SignatureMessageEncodingMethod_DSA@2@VSHA1@2@H@CryptoPP@@UDL_SignatureKeys_LUC@2@VDL_Algorithm_LUC_HMP@2@VDL_SignatureMessageEncodingMethod_DSA@2@VSHA1@2@@2@V?$DL_PublicKey_GFP@VDL_GroupParameters_LUC@CryptoPP@@@2@@CryptoPP@@MBEABV?$DL_PublicKey@VInteger@CryptoPP@@@2@XZ 00407db9 f i bench2.obj
 0001:00006db9       ?AccessKeyInterface@?$DL_ObjectImplBase@V?$DL_SignerBase@UEC2NPoint@CryptoPP@@@CryptoPP@@U?$DL_SignatureSchemeOptions@V?$DL_SS@U?$DL_Keys_ECDSA@VEC2N@CryptoPP@@@CryptoPP@@V?$DL_Algorithm_ECDSA@VEC2N@CryptoPP@@@2@VDL_SignatureMessageEncodingMethod_DSA@2@VSHA1@2@H@CryptoPP@@U?$DL_Keys_ECDSA@VEC2N@CryptoPP@@@2@V?$DL_Algorithm_ECDSA@VEC2N@CryptoPP@@@2@VDL_SignatureMessageEncodingMethod_DSA@2@VSHA1@2@@2@V?$DL_PrivateKey_WithSignaturePairwiseConsistencyTest@V?$DL_PrivateKey_EC@VEC2N@CryptoPP@@@CryptoPP@@U?$ECDSA@VEC2N@CryptoPP@@VSHA256@2@@2@@2@@CryptoPP@@MAEAAV?$DL_PrivateKey@UEC2NPoint@CryptoPP@@@2@XZ 00407db9 f i bench2.obj
 0001:00006db9       ?GetKeyInterface@?$DL_ObjectImplBase@V?$DL_DecryptorBase@UECPPoint@CryptoPP@@@CryptoPP@@U?$DL_CryptoSchemeOptions@U?$ECIES@VECP@CryptoPP@@U?$EnumToType@W4CofactorMultiplicationOption@CryptoPP@@$0A@@2@$0A@@CryptoPP@@U?$DL_Keys_EC@VECP@CryptoPP@@@2@V?$DL_KeyAgreementAlgorithm_DH@UECPPoint@CryptoPP@@U?$EnumToType@W4CofactorMultiplicationOption@CryptoPP@@$0A@@2@@2@V?$DL_KeyDerivationAlgorithm_P1363@UECPPoint@CryptoPP@@$0A@V?$P1363_KDF2@VSHA1@CryptoPP@@@2@@2@V?$DL_EncryptionAlgorithm_Xor@V?$HMAC@VSHA1@CryptoPP@@@CryptoPP@@$0A@@2@@2@V?$DL_PrivateKey_EC@VECP@CryptoPP@@@2@@CryptoPP@@MBEABV?$DL_PrivateKey@UECPPoint@CryptoPP@@@2@XZ 00407db9 f i bench2.obj
 0001:00006db9       ?GetKeyInterface@?$DL_ObjectImplBase@V?$DL_DecryptorBase@UEC2NPoint@CryptoPP@@@CryptoPP@@U?$DL_CryptoSchemeOptions@U?$ECIES@VEC2N@CryptoPP@@U?$EnumToType@W4CofactorMultiplicationOption@CryptoPP@@$0A@@2@$0A@@CryptoPP@@U?$DL_Keys_EC@VEC2N@CryptoPP@@@2@V?$DL_KeyAgreementAlgorithm_DH@UEC2NPoint@CryptoPP@@U?$EnumToType@W4CofactorMultiplicationOption@CryptoPP@@$0A@@2@@2@V?$DL_KeyDerivationAlgorithm_P1363@UEC2NPoint@CryptoPP@@$0A@V?$P1363_KDF2@VSHA1@CryptoPP@@@2@@2@V?$DL_EncryptionAlgorithm_Xor@V?$HMAC@VSHA1@CryptoPP@@@CryptoPP@@$0A@@2@@2@V?$DL_PrivateKey_EC@VEC2N@CryptoPP@@@2@@CryptoPP@@MBEABV?$DL_PrivateKey@UEC2NPoint@CryptoPP@@@2@XZ 00407db9 f i bench2.obj
 0001:00006db9       ?AccessAbstractGroupParameters@?$DH_Domain@V?$DL_GroupParameters_EC@VEC2N@CryptoPP@@@CryptoPP@@U?$EnumToType@W4CofactorMultiplicationOption@CryptoPP@@$01@2@@CryptoPP@@EAEAAV?$DL_GroupParameters@UEC2NPoint@CryptoPP@@@2@XZ 00407db9 f i bench2.obj
 0001:00006db9       ?GetKeyInterface@?$DL_ObjectImplBase@V?$DL_SignerBase@VInteger@CryptoPP@@@CryptoPP@@U?$DL_SignatureSchemeOptions@UDSA@CryptoPP@@UDL_Keys_DSA@2@V?$DL_Algorithm_GDSA@VInteger@CryptoPP@@@2@VDL_SignatureMessageEncodingMethod_DSA@2@VSHA1@2@@2@V?$DL_PrivateKey_WithSignaturePairwiseConsistencyTest@V?$DL_PrivateKey_GFP@VDL_GroupParameters_DSA@CryptoPP@@@CryptoPP@@UDSA@2@@2@@CryptoPP@@MBEABV?$DL_PrivateKey@VInteger@CryptoPP@@@2@XZ 00407db9 f i bench2.obj
 0001:00006db9       ?GetKeyInterface@?$DL_ObjectImplBase@V?$DL_EncryptorBase@VInteger@CryptoPP@@@CryptoPP@@U?$DL_CryptoSchemeOptions@UElGamal@CryptoPP@@UElGamalKeys@2@HHH@2@V?$DL_PublicKey_GFP_OldFormat@V?$DL_PublicKey_GFP@VDL_GroupParameters_GFP_DefaultSafePrime@CryptoPP@@@CryptoPP@@@2@@CryptoPP@@MBEABV?$DL_PublicKey@VInteger@CryptoPP@@@2@XZ 00407db9 f i bench2.obj
 0001:00006db9       ?GetKeyInterface@?$DL_ObjectImplBase@V?$DL_DecryptorBase@VInteger@CryptoPP@@@CryptoPP@@U?$DL_CryptoSchemeOptions@U?$LUC_IES@U?$EnumToType@W4CofactorMultiplicationOption@CryptoPP@@$0A@@CryptoPP@@$00@CryptoPP@@UDL_CryptoKeys_LUC@2@V?$DL_KeyAgreementAlgorithm_DH@VInteger@CryptoPP@@U?$EnumToType@W4CofactorMultiplicationOption@CryptoPP@@$0A@@2@@2@V?$DL_KeyDerivationAlgorithm_P1363@VInteger@CryptoPP@@$00V?$P1363_KDF2@VSHA1@CryptoPP@@@2@@2@V?$DL_EncryptionAlgorithm_Xor@V?$HMAC@VSHA1@CryptoPP@@@CryptoPP@@$00@2@@2@V?$DL_PrivateKey_GFP@VDL_GroupParameters_LUC_DefaultSafePrime@CryptoPP@@@2@@CryptoPP@@MBEABV?$DL_PrivateKey@VInteger@CryptoPP@@@2@XZ 00407db9 f i bench2.obj
 0001:00006db9       ?AccessKeyInterface@?$DL_ObjectImplBase@V?$DL_SignerBase@VInteger@CryptoPP@@@CryptoPP@@U?$DL_SignatureSchemeOptions@UDSA@CryptoPP@@UDL_Keys_DSA@2@V?$DL_Algorithm_GDSA@VInteger@CryptoPP@@@2@VDL_SignatureMessageEncodingMethod_DSA@2@VSHA1@2@@2@V?$DL_PrivateKey_WithSignaturePairwiseConsistencyTest@V?$DL_PrivateKey_GFP@VDL_GroupParameters_DSA@CryptoPP@@@CryptoPP@@UDSA@2@@2@@CryptoPP@@MAEAAV?$DL_PrivateKey@VInteger@CryptoPP@@@2@XZ 00407db9 f i bench2.obj
 0001:00006db9       ?AccessKeyInterface@?$DL_ObjectImplBase@V?$DL_EncryptorBase@VInteger@CryptoPP@@@CryptoPP@@U?$DL_CryptoSchemeOptions@UElGamal@CryptoPP@@UElGamalKeys@2@HHH@2@V?$DL_PublicKey_GFP_OldFormat@V?$DL_PublicKey_GFP@VDL_GroupParameters_GFP_DefaultSafePrime@CryptoPP@@@CryptoPP@@@2@@CryptoPP@@MAEAAV?$DL_PublicKey@VInteger@CryptoPP@@@2@XZ 00407db9 f i bench2.obj
 0001:00006db9       ?AccessKeyInterface@?$DL_ObjectImplBase@V?$DL_VerifierBase@VInteger@CryptoPP@@@CryptoPP@@U?$DL_SignatureSchemeOptions@V?$DL_SS@UDL_SignatureKeys_GFP@CryptoPP@@V?$DL_Algorithm_NR@VInteger@CryptoPP@@@2@VDL_SignatureMessageEncodingMethod_NR@2@VSHA1@2@H@CryptoPP@@UDL_SignatureKeys_GFP@2@V?$DL_Algorithm_NR@VInteger@CryptoPP@@@2@VDL_SignatureMessageEncodingMethod_NR@2@VSHA1@2@@2@V?$DL_PublicKey_GFP@VDL_GroupParameters_GFP@CryptoPP@@@2@@CryptoPP@@MAEAAV?$DL_PublicKey@VInteger@CryptoPP@@@2@XZ 00407db9 f i bench2.obj
 0001:00006db9       ?GetKeyInterface@?$DL_ObjectImplBase@V?$DL_SignerBase@VInteger@CryptoPP@@@CryptoPP@@U?$DL_SignatureSchemeOptions@V?$DL_SS@UDL_SignatureKeys_LUC@CryptoPP@@VDL_Algorithm_LUC_HMP@2@VDL_SignatureMessageEncodingMethod_DSA@2@VSHA1@2@H@CryptoPP@@UDL_SignatureKeys_LUC@2@VDL_Algorithm_LUC_HMP@2@VDL_SignatureMessageEncodingMethod_DSA@2@VSHA1@2@@2@V?$DL_PrivateKey_GFP@VDL_GroupParameters_LUC@CryptoPP@@@2@@CryptoPP@@MBEABV?$DL_PrivateKey@VInteger@CryptoPP@@@2@XZ 00407db9 f i bench2.obj
 0001:00006db9       ?AccessKeyInterface@?$DL_ObjectImplBase@V?$DL_SignerBase@VInteger@CryptoPP@@@CryptoPP@@U?$DL_SignatureSchemeOptions@V?$DL_SS@UDL_SignatureKeys_GFP@CryptoPP@@V?$DL_Algorithm_GDSA@VInteger@CryptoPP@@@2@VDL_SignatureMessageEncodingMethod_DSA@2@VSHA1@2@H@CryptoPP@@UDL_SignatureKeys_GFP@2@V?$DL_Algorithm_GDSA@VInteger@CryptoPP@@@2@VDL_SignatureMessageEncodingMethod_DSA@2@VSHA1@2@@2@V?$DL_PrivateKey_GFP@VDL_GroupParameters_GFP@CryptoPP@@@2@@CryptoPP@@MAEAAV?$DL_PrivateKey@VInteger@CryptoPP@@@2@XZ 00407db9 f i bench2.obj
 0001:00006db9       ?AccessKeyInterface@?$DL_ObjectImplBase@V?$DL_DecryptorBase@VInteger@CryptoPP@@@CryptoPP@@U?$DL_CryptoSchemeOptions@UElGamal@CryptoPP@@UElGamalKeys@2@HHH@2@V?$DL_PrivateKey_GFP_OldFormat@V?$DL_PrivateKey_GFP@VDL_GroupParameters_GFP_DefaultSafePrime@CryptoPP@@@CryptoPP@@@2@@CryptoPP@@MAEAAV?$DL_PrivateKey@VInteger@CryptoPP@@@2@XZ 00407db9 f i bench2.obj
 0001:00006db9       ?AccessKeyInterface@?$DL_ObjectImplBase@V?$DL_SignerBase@VInteger@CryptoPP@@@CryptoPP@@U?$DL_SignatureSchemeOptions@V?$DL_SS@UDL_SignatureKeys_GFP@CryptoPP@@V?$DL_Algorithm_NR@VInteger@CryptoPP@@@2@VDL_SignatureMessageEncodingMethod_NR@2@VSHA1@2@H@CryptoPP@@UDL_SignatureKeys_GFP@2@V?$DL_Algorithm_NR@VInteger@CryptoPP@@@2@VDL_SignatureMessageEncodingMethod_NR@2@VSHA1@2@@2@V?$DL_PrivateKey_GFP@VDL_GroupParameters_GFP@CryptoPP@@@2@@CryptoPP@@MAEAAV?$DL_PrivateKey@VInteger@CryptoPP@@@2@XZ 00407db9 f i bench2.obj
 0001:00006db9       ?AccessKeyInterface@?$DL_ObjectImplBase@V?$DL_VerifierBase@UECPPoint@CryptoPP@@@CryptoPP@@U?$DL_SignatureSchemeOptions@V?$DL_SS@U?$DL_Keys_ECDSA@VECP@CryptoPP@@@CryptoPP@@V?$DL_Algorithm_ECDSA@VECP@CryptoPP@@@2@VDL_SignatureMessageEncodingMethod_DSA@2@VSHA1@2@H@CryptoPP@@U?$DL_Keys_ECDSA@VECP@CryptoPP@@@2@V?$DL_Algorithm_ECDSA@VECP@CryptoPP@@@2@VDL_SignatureMessageEncodingMethod_DSA@2@VSHA1@2@@2@V?$DL_PublicKey_EC@VECP@CryptoPP@@@2@@CryptoPP@@MAEAAV?$DL_PublicKey@UECPPoint@CryptoPP@@@2@XZ 00407db9 f i bench2.obj
 0001:00006db9       ?AccessKeyInterface@?$DL_ObjectImplBase@V?$DL_DecryptorBase@VInteger@CryptoPP@@@CryptoPP@@U?$DL_CryptoSchemeOptions@U?$LUC_IES@U?$EnumToType@W4CofactorMultiplicationOption@CryptoPP@@$0A@@CryptoPP@@$00@CryptoPP@@UDL_CryptoKeys_LUC@2@V?$DL_KeyAgreementAlgorithm_DH@VInteger@CryptoPP@@U?$EnumToType@W4CofactorMultiplicationOption@CryptoPP@@$0A@@2@@2@V?$DL_KeyDerivationAlgorithm_P1363@VInteger@CryptoPP@@$00V?$P1363_KDF2@VSHA1@CryptoPP@@@2@@2@V?$DL_EncryptionAlgorithm_Xor@V?$HMAC@VSHA1@CryptoPP@@@CryptoPP@@$00@2@@2@V?$DL_PrivateKey_GFP@VDL_GroupParameters_LUC_DefaultSafePrime@CryptoPP@@@2@@CryptoPP@@MAEAAV?$DL_PrivateKey@VInteger@CryptoPP@@@2@XZ 00407db9 f i bench2.obj
 0001:00006db9       ?AccessKeyInterface@?$DL_ObjectImplBase@V?$DL_EncryptorBase@VInteger@CryptoPP@@@CryptoPP@@U?$DL_CryptoSchemeOptions@U?$LUC_IES@U?$EnumToType@W4CofactorMultiplicationOption@CryptoPP@@$0A@@CryptoPP@@$00@CryptoPP@@UDL_CryptoKeys_LUC@2@V?$DL_KeyAgreementAlgorithm_DH@VInteger@CryptoPP@@U?$EnumToType@W4CofactorMultiplicationOption@CryptoPP@@$0A@@2@@2@V?$DL_KeyDerivationAlgorithm_P1363@VInteger@CryptoPP@@$00V?$P1363_KDF2@VSHA1@CryptoPP@@@2@@2@V?$DL_EncryptionAlgorithm_Xor@V?$HMAC@VSHA1@CryptoPP@@@CryptoPP@@$00@2@@2@V?$DL_PublicKey_GFP@VDL_GroupParameters_LUC_DefaultSafePrime@CryptoPP@@@2@@CryptoPP@@MAEAAV?$DL_PublicKey@VInteger@CryptoPP@@@2@XZ 00407db9 f i bench2.obj
 0001:00006db9       ?GetKeyInterface@?$DL_ObjectImplBase@V?$DL_DecryptorBase@VInteger@CryptoPP@@@CryptoPP@@U?$DL_CryptoSchemeOptions@U?$DLIES@U?$EnumToType@W4CofactorMultiplicationOption@CryptoPP@@$0A@@CryptoPP@@$00@CryptoPP@@UDL_CryptoKeys_GFP@2@V?$DL_KeyAgreementAlgorithm_DH@VInteger@CryptoPP@@U?$EnumToType@W4CofactorMultiplicationOption@CryptoPP@@$0A@@2@@2@V?$DL_KeyDerivationAlgorithm_P1363@VInteger@CryptoPP@@$00V?$P1363_KDF2@VSHA1@CryptoPP@@@2@@2@V?$DL_EncryptionAlgorithm_Xor@V?$HMAC@VSHA1@CryptoPP@@@CryptoPP@@$00@2@@2@V?$DL_PrivateKey_GFP@VDL_GroupParameters_GFP_DefaultSafePrime@CryptoPP@@@2@@CryptoPP@@MBEABV?$DL_PrivateKey@VInteger@CryptoPP@@@2@XZ 00407db9 f i bench2.obj
 0001:00006db9       ?AccessKeyInterface@?$DL_ObjectImplBase@V?$DL_SignerBase@UECPPoint@CryptoPP@@@CryptoPP@@U?$DL_SignatureSchemeOptions@V?$DL_SS@U?$DL_Keys_ECDSA@VECP@CryptoPP@@@CryptoPP@@V?$DL_Algorithm_ECDSA@VECP@CryptoPP@@@2@VDL_SignatureMessageEncodingMethod_DSA@2@VSHA1@2@H@CryptoPP@@U?$DL_Keys_ECDSA@VECP@CryptoPP@@@2@V?$DL_Algorithm_ECDSA@VECP@CryptoPP@@@2@VDL_SignatureMessageEncodingMethod_DSA@2@VSHA1@2@@2@V?$DL_PrivateKey_WithSignaturePairwiseConsistencyTest@V?$DL_PrivateKey_EC@VECP@CryptoPP@@@CryptoPP@@U?$ECDSA@VECP@CryptoPP@@VSHA256@2@@2@@2@@CryptoPP@@MAEAAV?$DL_PrivateKey@UECPPoint@CryptoPP@@@2@XZ 00407db9 f i bench2.obj
 0001:00006db9       ?MultiplicativeGroup@?$AbstractRing@VInteger@CryptoPP@@@CryptoPP@@UBEABV?$AbstractGroup@VInteger@CryptoPP@@@2@XZ 00407db9 f i bench2.obj
 0001:00006db9       ?AccessKeyInterface@?$DL_ObjectImplBase@V?$DL_DecryptorBase@UEC2NPoint@CryptoPP@@@CryptoPP@@U?$DL_CryptoSchemeOptions@U?$ECIES@VEC2N@CryptoPP@@U?$EnumToType@W4CofactorMultiplicationOption@CryptoPP@@$0A@@2@$0A@@CryptoPP@@U?$DL_Keys_EC@VEC2N@CryptoPP@@@2@V?$DL_KeyAgreementAlgorithm_DH@UEC2NPoint@CryptoPP@@U?$EnumToType@W4CofactorMultiplicationOption@CryptoPP@@$0A@@2@@2@V?$DL_KeyDerivationAlgorithm_P1363@UEC2NPoint@CryptoPP@@$0A@V?$P1363_KDF2@VSHA1@CryptoPP@@@2@@2@V?$DL_EncryptionAlgorithm_Xor@V?$HMAC@VSHA1@CryptoPP@@@CryptoPP@@$0A@@2@@2@V?$DL_PrivateKey_EC@VEC2N@CryptoPP@@@2@@CryptoPP@@MAEAAV?$DL_PrivateKey@UEC2NPoint@CryptoPP@@@2@XZ 00407db9 f i bench2.obj
 0001:00006db9       ?AccessKeyInterface@?$DL_ObjectImplBase@V?$DL_VerifierBase@UECPPoint@CryptoPP@@@CryptoPP@@U?$DL_SignatureSchemeOptions@V?$DL_SS@U?$DL_Keys_ECDSA@VECP@CryptoPP@@@CryptoPP@@V?$DL_Algorithm_ECDSA@VECP@CryptoPP@@@2@VDL_SignatureMessageEncodingMethod_DSA@2@VSHA256@2@H@CryptoPP@@U?$DL_Keys_ECDSA@VECP@CryptoPP@@@2@V?$DL_Algorithm_ECDSA@VECP@CryptoPP@@@2@VDL_SignatureMessageEncodingMethod_DSA@2@VSHA256@2@@2@V?$DL_PublicKey_EC@VECP@CryptoPP@@@2@@CryptoPP@@MAEAAV?$DL_PublicKey@UECPPoint@CryptoPP@@@2@XZ 00407db9 f i bench2.obj
 0001:00006db9       ?AccessKeyInterface@?$DL_ObjectImplBase@V?$DL_VerifierBase@VInteger@CryptoPP@@@CryptoPP@@U?$DL_SignatureSchemeOptions@UDSA@CryptoPP@@UDL_Keys_DSA@2@V?$DL_Algorithm_GDSA@VInteger@CryptoPP@@@2@VDL_SignatureMessageEncodingMethod_DSA@2@VSHA1@2@@2@V?$DL_PublicKey_GFP@VDL_GroupParameters_DSA@CryptoPP@@@2@@CryptoPP@@MAEAAV?$DL_PublicKey@VInteger@CryptoPP@@@2@XZ 00407db9 f i bench2.obj
 0001:00006db9       ?GetKeyInterface@?$DL_ObjectImplBase@V?$DL_SignerBase@UEC2NPoint@CryptoPP@@@CryptoPP@@U?$DL_SignatureSchemeOptions@V?$DL_SS@U?$DL_Keys_ECDSA@VEC2N@CryptoPP@@@CryptoPP@@V?$DL_Algorithm_ECDSA@VEC2N@CryptoPP@@@2@VDL_SignatureMessageEncodingMethod_DSA@2@VSHA1@2@H@CryptoPP@@U?$DL_Keys_ECDSA@VEC2N@CryptoPP@@@2@V?$DL_Algorithm_ECDSA@VEC2N@CryptoPP@@@2@VDL_SignatureMessageEncodingMethod_DSA@2@VSHA1@2@@2@V?$DL_PrivateKey_WithSignaturePairwiseConsistencyTest@V?$DL_PrivateKey_EC@VEC2N@CryptoPP@@@CryptoPP@@U?$ECDSA@VEC2N@CryptoPP@@VSHA256@2@@2@@2@@CryptoPP@@MBEABV?$DL_PrivateKey@UEC2NPoint@CryptoPP@@@2@XZ 00407db9 f i bench2.obj
 0001:00006db9       ?AccessKeyInterface@?$DL_ObjectImplBase@V?$DL_VerifierBase@UEC2NPoint@CryptoPP@@@CryptoPP@@U?$DL_SignatureSchemeOptions@V?$DL_SS@U?$DL_Keys_ECDSA@VEC2N@CryptoPP@@@CryptoPP@@V?$DL_Algorithm_ECDSA@VEC2N@CryptoPP@@@2@VDL_SignatureMessageEncodingMethod_DSA@2@VSHA256@2@H@CryptoPP@@U?$DL_Keys_ECDSA@VEC2N@CryptoPP@@@2@V?$DL_Algorithm_ECDSA@VEC2N@CryptoPP@@@2@VDL_SignatureMessageEncodingMethod_DSA@2@VSHA256@2@@2@V?$DL_PublicKey_EC@VEC2N@CryptoPP@@@2@@CryptoPP@@MAEAAV?$DL_PublicKey@UEC2NPoint@CryptoPP@@@2@XZ 00407db9 f i bench2.obj
 0001:00006db9       ?GetKeyInterface@?$DL_ObjectImplBase@V?$DL_EncryptorBase@VInteger@CryptoPP@@@CryptoPP@@U?$DL_CryptoSchemeOptions@U?$LUC_IES@U?$EnumToType@W4CofactorMultiplicationOption@CryptoPP@@$0A@@CryptoPP@@$00@CryptoPP@@UDL_CryptoKeys_LUC@2@V?$DL_KeyAgreementAlgorithm_DH@VInteger@CryptoPP@@U?$EnumToType@W4CofactorMultiplicationOption@CryptoPP@@$0A@@2@@2@V?$DL_KeyDerivationAlgorithm_P1363@VInteger@CryptoPP@@$00V?$P1363_KDF2@VSHA1@CryptoPP@@@2@@2@V?$DL_EncryptionAlgorithm_Xor@V?$HMAC@VSHA1@CryptoPP@@@CryptoPP@@$00@2@@2@V?$DL_PublicKey_GFP@VDL_GroupParameters_LUC_DefaultSafePrime@CryptoPP@@@2@@CryptoPP@@MBEABV?$DL_PublicKey@VInteger@CryptoPP@@@2@XZ 00407db9 f i bench2.obj
 0001:00006dbd       ?GetDigestSize@?$DL_ObjectImplBase@V?$DL_VerifierBase@VInteger@CryptoPP@@@CryptoPP@@U?$DL_SignatureSchemeOptions@V?$DL_SS@UDL_SignatureKeys_GFP@CryptoPP@@V?$DL_Algorithm_NR@VInteger@CryptoPP@@@2@VDL_SignatureMessageEncodingMethod_NR@2@VSHA1@2@H@CryptoPP@@UDL_SignatureKeys_GFP@2@V?$DL_Algorithm_NR@VInteger@CryptoPP@@@2@VDL_SignatureMessageEncodingMethod_NR@2@VSHA1@2@@2@V?$DL_PublicKey_GFP@VDL_GroupParameters_GFP@CryptoPP@@@2@@CryptoPP@@MBEIXZ 00407dbd f i bench2.obj
 0001:00006dbd       ?DefaultKeyLength@?$SimpleKeyingInterfaceImpl@V?$ConcretePolicyHolder@V?$SEAL_Policy@U?$EnumToType@W4ByteOrder@CryptoPP@@$00@CryptoPP@@@CryptoPP@@V?$AdditiveCipherTemplate@V?$AbstractPolicyHolder@UAdditiveCipherAbstractPolicy@CryptoPP@@VSymmetricCipher@2@@CryptoPP@@@2@UAdditiveCipherAbstractPolicy@2@@CryptoPP@@U?$SEAL_Info@U?$EnumToType@W4ByteOrder@CryptoPP@@$00@CryptoPP@@@2@@CryptoPP@@UBEIXZ 00407dbd f i bench2.obj
 0001:00006dbd       ?MinKeyLength@?$SimpleKeyingInterfaceImpl@V?$ConcretePolicyHolder@V?$SEAL_Policy@U?$EnumToType@W4ByteOrder@CryptoPP@@$0A@@CryptoPP@@@CryptoPP@@V?$AdditiveCipherTemplate@V?$AbstractPolicyHolder@UAdditiveCipherAbstractPolicy@CryptoPP@@VSymmetricCipher@2@@CryptoPP@@@2@UAdditiveCipherAbstractPolicy@2@@CryptoPP@@U?$SEAL_Info@U?$EnumToType@W4ByteOrder@CryptoPP@@$0A@@CryptoPP@@@2@@CryptoPP@@UBEIXZ 00407dbd f i bench2.obj
 0001:00006dbd       ?DigestSize@?$IteratedHashWithStaticTransform@IU?$EnumToType@W4ByteOrder@CryptoPP@@$00@CryptoPP@@$0EA@$0BE@VSHA1@2@$0A@$0A@@CryptoPP@@UBEIXZ 00407dbd f i bench2.obj
 0001:00006dbd       ?GetDigestSize@?$DL_ObjectImplBase@V?$DL_VerifierBase@UECPPoint@CryptoPP@@@CryptoPP@@U?$DL_SignatureSchemeOptions@V?$DL_SS@U?$DL_Keys_ECDSA@VECP@CryptoPP@@@CryptoPP@@V?$DL_Algorithm_ECDSA@VECP@CryptoPP@@@2@VDL_SignatureMessageEncodingMethod_DSA@2@VSHA1@2@H@CryptoPP@@U?$DL_Keys_ECDSA@VECP@CryptoPP@@@2@V?$DL_Algorithm_ECDSA@VECP@CryptoPP@@@2@VDL_SignatureMessageEncodingMethod_DSA@2@VSHA1@2@@2@V?$DL_PublicKey_EC@VECP@CryptoPP@@@2@@CryptoPP@@MBEIXZ 00407dbd f i bench2.obj
 0001:00006dbd       ?GetDigestSize@?$DL_ObjectImplBase@V?$DL_SignerBase@VInteger@CryptoPP@@@CryptoPP@@U?$DL_SignatureSchemeOptions@UDSA@CryptoPP@@UDL_Keys_DSA@2@V?$DL_Algorithm_GDSA@VInteger@CryptoPP@@@2@VDL_SignatureMessageEncodingMethod_DSA@2@VSHA1@2@@2@V?$DL_PrivateKey_WithSignaturePairwiseConsistencyTest@V?$DL_PrivateKey_GFP@VDL_GroupParameters_DSA@CryptoPP@@@CryptoPP@@UDSA@2@@2@@CryptoPP@@MBEIXZ 00407dbd f i bench2.obj
 0001:00006dbd       ?GetDigestSize@?$DL_ObjectImplBase@V?$DL_VerifierBase@UEC2NPoint@CryptoPP@@@CryptoPP@@U?$DL_SignatureSchemeOptions@V?$DL_SS@U?$DL_Keys_ECDSA@VEC2N@CryptoPP@@@CryptoPP@@V?$DL_Algorithm_ECDSA@VEC2N@CryptoPP@@@2@VDL_SignatureMessageEncodingMethod_DSA@2@VSHA1@2@H@CryptoPP@@U?$DL_Keys_ECDSA@VEC2N@CryptoPP@@@2@V?$DL_Algorithm_ECDSA@VEC2N@CryptoPP@@@2@VDL_SignatureMessageEncodingMethod_DSA@2@VSHA1@2@@2@V?$DL_PublicKey_EC@VEC2N@CryptoPP@@@2@@CryptoPP@@MBEIXZ 00407dbd f i bench2.obj
 0001:00006dbd       ?GetDigestSize@?$TF_ObjectImplBase@VTF_VerifierBase@CryptoPP@@U?$TF_SignatureSchemeOptions@V?$TF_SS@UPSSR@CryptoPP@@VSHA1@2@URabin@2@H@CryptoPP@@URabin@2@V?$PSSR_MEM@$00VP1363_MGF1@CryptoPP@@$0?0$0A@$0A@@2@VSHA1@2@@2@VRabinFunction@2@@CryptoPP@@MBEIXZ 00407dbd f i bench2.obj
 0001:00006dbd       ?GetDigestSize@?$TF_ObjectImplBase@VTF_SignerBase@CryptoPP@@U?$TF_SignatureSchemeOptions@V?$TF_SS@UPKCS1v15@CryptoPP@@VSHA1@2@URSA@2@H@CryptoPP@@URSA@2@VPKCS1v15_SignatureMessageEncodingMethod@2@VSHA1@2@@2@VInvertibleRSAFunction@2@@CryptoPP@@MBEIXZ 00407dbd f i bench2.obj
 0001:00006dbd       ?GetDigestSize@?$TF_ObjectImplBase@VTF_VerifierBase@CryptoPP@@U?$TF_SignatureSchemeOptions@V?$TF_SS@UP1363_EMSA2@CryptoPP@@VSHA1@2@URW@2@H@CryptoPP@@URW@2@VEMSA2Pad@2@VSHA1@2@@2@VRWFunction@2@@CryptoPP@@MBEIXZ 00407dbd f i bench2.obj
 0001:00006dbd       ?MaxKeyLength@?$SimpleKeyingInterfaceImpl@V?$ConcretePolicyHolder@V?$SEAL_Policy@U?$EnumToType@W4ByteOrder@CryptoPP@@$00@CryptoPP@@@CryptoPP@@V?$AdditiveCipherTemplate@V?$AbstractPolicyHolder@UAdditiveCipherAbstractPolicy@CryptoPP@@VSymmetricCipher@2@@CryptoPP@@@2@UAdditiveCipherAbstractPolicy@2@@CryptoPP@@U?$SEAL_Info@U?$EnumToType@W4ByteOrder@CryptoPP@@$00@CryptoPP@@@2@@CryptoPP@@UBEIXZ 00407dbd f i bench2.obj
 0001:00006dbd       ?GetDigestSize@?$TF_ObjectImplBase@VTF_SignerBase@CryptoPP@@U?$TF_SignatureSchemeOptions@V?$TF_SS@UPKCS1v15@CryptoPP@@VSHA1@2@ULUC@2@H@CryptoPP@@ULUC@2@VPKCS1v15_SignatureMessageEncodingMethod@2@VSHA1@2@@2@VInvertibleLUCFunction@2@@CryptoPP@@MBEIXZ 00407dbd f i bench2.obj
 0001:00006dbd       ?GetDigestSize@?$TF_ObjectImplBase@VTF_VerifierBase@CryptoPP@@U?$TF_SignatureSchemeOptions@V?$TF_SS@UPKCS1v15@CryptoPP@@VSHA1@2@URSA@2@H@CryptoPP@@URSA@2@VPKCS1v15_SignatureMessageEncodingMethod@2@VSHA1@2@@2@VRSAFunction@2@@CryptoPP@@MBEIXZ 00407dbd f i bench2.obj
 0001:00006dbd       ?GetDigestSize@?$DL_ObjectImplBase@V?$DL_SignerBase@VInteger@CryptoPP@@@CryptoPP@@U?$DL_SignatureSchemeOptions@V?$DL_SS@UDL_SignatureKeys_GFP@CryptoPP@@V?$DL_Algorithm_NR@VInteger@CryptoPP@@@2@VDL_SignatureMessageEncodingMethod_NR@2@VSHA1@2@H@CryptoPP@@UDL_SignatureKeys_GFP@2@V?$DL_Algorithm_NR@VInteger@CryptoPP@@@2@VDL_SignatureMessageEncodingMethod_NR@2@VSHA1@2@@2@V?$DL_PrivateKey_GFP@VDL_GroupParameters_GFP@CryptoPP@@@2@@CryptoPP@@MBEIXZ 00407dbd f i bench2.obj
 0001:00006dbd       ?GetDigestSize@?$DL_ObjectImplBase@V?$DL_VerifierBase@VInteger@CryptoPP@@@CryptoPP@@U?$DL_SignatureSchemeOptions@V?$DL_SS@UDL_SignatureKeys_GFP@CryptoPP@@V?$DL_Algorithm_GDSA@VInteger@CryptoPP@@@2@VDL_SignatureMessageEncodingMethod_DSA@2@VSHA1@2@H@CryptoPP@@UDL_SignatureKeys_GFP@2@V?$DL_Algorithm_GDSA@VInteger@CryptoPP@@@2@VDL_SignatureMessageEncodingMethod_DSA@2@VSHA1@2@@2@V?$DL_PublicKey_GFP@VDL_GroupParameters_GFP@CryptoPP@@@2@@CryptoPP@@MBEIXZ 00407dbd f i bench2.obj
 0001:00006dbd       ?MaxKeyLength@?$SimpleKeyingInterfaceImpl@V?$ConcretePolicyHolder@V?$SEAL_Policy@U?$EnumToType@W4ByteOrder@CryptoPP@@$0A@@CryptoPP@@@CryptoPP@@V?$AdditiveCipherTemplate@V?$AbstractPolicyHolder@UAdditiveCipherAbstractPolicy@CryptoPP@@VSymmetricCipher@2@@CryptoPP@@@2@UAdditiveCipherAbstractPolicy@2@@CryptoPP@@U?$SEAL_Info@U?$EnumToType@W4ByteOrder@CryptoPP@@$0A@@CryptoPP@@@2@@CryptoPP@@UBEIXZ 00407dbd f i bench2.obj
 0001:00006dbd       ?GetDigestSize@?$TF_ObjectImplBase@VTF_SignerBase@CryptoPP@@U?$TF_SignatureSchemeOptions@V?$TF_SS@UPSS@CryptoPP@@VSHA1@2@URSA@2@H@CryptoPP@@URSA@2@V?$PSSR_MEM@$0A@VP1363_MGF1@CryptoPP@@$0?0$0A@$0A@@2@VSHA1@2@@2@VInvertibleRSAFunction@2@@CryptoPP@@MBEIXZ 00407dbd f i bench2.obj
 0001:00006dbd       ?GetDigestSize@?$TF_ObjectImplBase@VTF_SignerBase@CryptoPP@@U?$TF_SignatureSchemeOptions@V?$TF_SS@UP1363_EMSA5@CryptoPP@@VSHA1@2@UESIGN_Keys@2@H@CryptoPP@@UESIGN_Keys@2@V?$EMSA5Pad@VP1363_MGF1@CryptoPP@@@2@VSHA1@2@@2@VInvertibleESIGNFunction@2@@CryptoPP@@MBEIXZ 00407dbd f i bench2.obj
 0001:00006dbd       ?DefaultKeyLength@?$SimpleKeyingInterfaceImpl@VTTMAC_Base@CryptoPP@@V12@@CryptoPP@@UBEIXZ 00407dbd f i bench2.obj
 0001:00006dbd       ?GetDigestSize@?$TF_ObjectImplBase@VTF_VerifierBase@CryptoPP@@U?$TF_SignatureSchemeOptions@V?$TF_SS@UPSS@CryptoPP@@VSHA1@2@URSA@2@H@CryptoPP@@URSA@2@V?$PSSR_MEM@$0A@VP1363_MGF1@CryptoPP@@$0?0$0A@$0A@@2@VSHA1@2@@2@VRSAFunction@2@@CryptoPP@@MBEIXZ 00407dbd f i bench2.obj
 0001:00006dbd       ?DigestSize@?$IteratedHashWithStaticTransform@IU?$EnumToType@W4ByteOrder@CryptoPP@@$0A@@CryptoPP@@$0EA@$0BE@VRIPEMD160@2@$0A@$0A@@CryptoPP@@UBEIXZ 00407dbd f i bench2.obj
 0001:00006dbd       ?GetDigestSize@?$DL_ObjectImplBase@V?$DL_SignerBase@UECPPoint@CryptoPP@@@CryptoPP@@U?$DL_SignatureSchemeOptions@V?$DL_SS@U?$DL_Keys_ECDSA@VECP@CryptoPP@@@CryptoPP@@V?$DL_Algorithm_ECDSA@VECP@CryptoPP@@@2@VDL_SignatureMessageEncodingMethod_DSA@2@VSHA1@2@H@CryptoPP@@U?$DL_Keys_ECDSA@VECP@CryptoPP@@@2@V?$DL_Algorithm_ECDSA@VECP@CryptoPP@@@2@VDL_SignatureMessageEncodingMethod_DSA@2@VSHA1@2@@2@V?$DL_PrivateKey_WithSignaturePairwiseConsistencyTest@V?$DL_PrivateKey_EC@VECP@CryptoPP@@@CryptoPP@@U?$ECDSA@VECP@CryptoPP@@VSHA256@2@@2@@2@@CryptoPP@@MBEIXZ 00407dbd f i bench2.obj
 0001:00006dbd       ?GetDigestSize@?$DL_ObjectImplBase@V?$DL_VerifierBase@VInteger@CryptoPP@@@CryptoPP@@U?$DL_SignatureSchemeOptions@UDSA@CryptoPP@@UDL_Keys_DSA@2@V?$DL_Algorithm_GDSA@VInteger@CryptoPP@@@2@VDL_SignatureMessageEncodingMethod_DSA@2@VSHA1@2@@2@V?$DL_PublicKey_GFP@VDL_GroupParameters_DSA@CryptoPP@@@2@@CryptoPP@@MBEIXZ 00407dbd f i bench2.obj
 0001:00006dbd       ?DigestSize@?$OAEP@VSHA1@CryptoPP@@VP1363_MGF1@2@@CryptoPP@@MBEIXZ 00407dbd f i bench2.obj
 0001:00006dbd       ?GetDigestSize@?$TF_ObjectImplBase@VTF_SignerBase@CryptoPP@@U?$TF_SignatureSchemeOptions@V?$TF_SS@UPSSR@CryptoPP@@VSHA1@2@URW@2@H@CryptoPP@@URW@2@V?$PSSR_MEM@$00VP1363_MGF1@CryptoPP@@$0?0$0A@$0A@@2@VSHA1@2@@2@VInvertibleRWFunction@2@@CryptoPP@@MBEIXZ 00407dbd f i bench2.obj
 0001:00006dbd       ?GetDigestSize@?$TF_ObjectImplBase@VTF_SignerBase@CryptoPP@@U?$TF_SignatureSchemeOptions@V?$TF_SS@UPSSR@CryptoPP@@VSHA1@2@URabin@2@H@CryptoPP@@URabin@2@V?$PSSR_MEM@$00VP1363_MGF1@CryptoPP@@$0?0$0A@$0A@@2@VSHA1@2@@2@VInvertibleRabinFunction@2@@CryptoPP@@MBEIXZ 00407dbd f i bench2.obj
 0001:00006dbd       ?GetDigestSize@?$DL_ObjectImplBase@V?$DL_SignerBase@VInteger@CryptoPP@@@CryptoPP@@U?$DL_SignatureSchemeOptions@V?$DL_SS@UDL_SignatureKeys_GFP@CryptoPP@@V?$DL_Algorithm_GDSA@VInteger@CryptoPP@@@2@VDL_SignatureMessageEncodingMethod_DSA@2@VSHA1@2@H@CryptoPP@@UDL_SignatureKeys_GFP@2@V?$DL_Algorithm_GDSA@VInteger@CryptoPP@@@2@VDL_SignatureMessageEncodingMethod_DSA@2@VSHA1@2@@2@V?$DL_PrivateKey_GFP@VDL_GroupParameters_GFP@CryptoPP@@@2@@CryptoPP@@MBEIXZ 00407dbd f i bench2.obj
 0001:00006dbd       ?GetDigestSize@?$DL_ObjectImplBase@V?$DL_VerifierBase@VInteger@CryptoPP@@@CryptoPP@@U?$DL_SignatureSchemeOptions@V?$DL_SS@UDL_SignatureKeys_LUC@CryptoPP@@VDL_Algorithm_LUC_HMP@2@VDL_SignatureMessageEncodingMethod_DSA@2@VSHA1@2@H@CryptoPP@@UDL_SignatureKeys_LUC@2@VDL_Algorithm_LUC_HMP@2@VDL_SignatureMessageEncodingMethod_DSA@2@VSHA1@2@@2@V?$DL_PublicKey_GFP@VDL_GroupParameters_LUC@CryptoPP@@@2@@CryptoPP@@MBEIXZ 00407dbd f i bench2.obj
 0001:00006dbd       ?GetDigestSize@?$DL_ObjectImplBase@V?$DL_SignerBase@UEC2NPoint@CryptoPP@@@CryptoPP@@U?$DL_SignatureSchemeOptions@V?$DL_SS@U?$DL_Keys_ECDSA@VEC2N@CryptoPP@@@CryptoPP@@V?$DL_Algorithm_ECDSA@VEC2N@CryptoPP@@@2@VDL_SignatureMessageEncodingMethod_DSA@2@VSHA1@2@H@CryptoPP@@U?$DL_Keys_ECDSA@VEC2N@CryptoPP@@@2@V?$DL_Algorithm_ECDSA@VEC2N@CryptoPP@@@2@VDL_SignatureMessageEncodingMethod_DSA@2@VSHA1@2@@2@V?$DL_PrivateKey_WithSignaturePairwiseConsistencyTest@V?$DL_PrivateKey_EC@VEC2N@CryptoPP@@@CryptoPP@@U?$ECDSA@VEC2N@CryptoPP@@VSHA256@2@@2@@2@@CryptoPP@@MBEIXZ 00407dbd f i bench2.obj
 0001:00006dbd       ?GetDigestSize@?$DL_ObjectImplBase@V?$DL_SignerBase@VInteger@CryptoPP@@@CryptoPP@@U?$DL_SignatureSchemeOptions@V?$DL_SS@UDL_SignatureKeys_LUC@CryptoPP@@VDL_Algorithm_LUC_HMP@2@VDL_SignatureMessageEncodingMethod_DSA@2@VSHA1@2@H@CryptoPP@@UDL_SignatureKeys_LUC@2@VDL_Algorithm_LUC_HMP@2@VDL_SignatureMessageEncodingMethod_DSA@2@VSHA1@2@@2@V?$DL_PrivateKey_GFP@VDL_GroupParameters_LUC@CryptoPP@@@2@@CryptoPP@@MBEIXZ 00407dbd f i bench2.obj
 0001:00006dbd       ?GetDigestSize@?$TF_ObjectImplBase@VTF_VerifierBase@CryptoPP@@U?$TF_SignatureSchemeOptions@V?$TF_SS@UPSSR@CryptoPP@@VSHA1@2@URW@2@H@CryptoPP@@URW@2@V?$PSSR_MEM@$00VP1363_MGF1@CryptoPP@@$0?0$0A@$0A@@2@VSHA1@2@@2@VRWFunction@2@@CryptoPP@@MBEIXZ 00407dbd f i bench2.obj
 0001:00006dbd       ?MinKeyLength@?$SimpleKeyingInterfaceImpl@V?$ConcretePolicyHolder@V?$SEAL_Policy@U?$EnumToType@W4ByteOrder@CryptoPP@@$00@CryptoPP@@@CryptoPP@@V?$AdditiveCipherTemplate@V?$AbstractPolicyHolder@UAdditiveCipherAbstractPolicy@CryptoPP@@VSymmetricCipher@2@@CryptoPP@@@2@UAdditiveCipherAbstractPolicy@2@@CryptoPP@@U?$SEAL_Info@U?$EnumToType@W4ByteOrder@CryptoPP@@$00@CryptoPP@@@2@@CryptoPP@@UBEIXZ 00407dbd f i bench2.obj
 0001:00006dbd       ?MinKeyLength@?$SimpleKeyingInterfaceImpl@VTTMAC_Base@CryptoPP@@V12@@CryptoPP@@UBEIXZ 00407dbd f i bench2.obj
 0001:00006dbd       ?GetDigestSize@?$TF_ObjectImplBase@VTF_VerifierBase@CryptoPP@@U?$TF_SignatureSchemeOptions@V?$TF_SS@UPKCS1v15@CryptoPP@@VSHA1@2@ULUC@2@H@CryptoPP@@ULUC@2@VPKCS1v15_SignatureMessageEncodingMethod@2@VSHA1@2@@2@VLUCFunction@2@@CryptoPP@@MBEIXZ 00407dbd f i bench2.obj
 0001:00006dbd       ?MaxKeyLength@?$SimpleKeyingInterfaceImpl@VTTMAC_Base@CryptoPP@@V12@@CryptoPP@@UBEIXZ 00407dbd f i bench2.obj
 0001:00006dbd       ?DigestSize@TTMAC_Base@CryptoPP@@UBEIXZ 00407dbd f i bench2.obj
 0001:00006dbd       ?GetDigestSize@?$TF_ObjectImplBase@VTF_SignerBase@CryptoPP@@U?$TF_SignatureSchemeOptions@V?$TF_SS@UP1363_EMSA2@CryptoPP@@VSHA1@2@URW@2@H@CryptoPP@@URW@2@VEMSA2Pad@2@VSHA1@2@@2@VInvertibleRWFunction@2@@CryptoPP@@MBEIXZ 00407dbd f i bench2.obj
 0001:00006dbd       ?GetDigestSize@?$TF_ObjectImplBase@VTF_VerifierBase@CryptoPP@@U?$TF_SignatureSchemeOptions@V?$TF_SS@UP1363_EMSA5@CryptoPP@@VSHA1@2@UESIGN_Keys@2@H@CryptoPP@@UESIGN_Keys@2@V?$EMSA5Pad@VP1363_MGF1@CryptoPP@@@2@VSHA1@2@@2@VESIGNFunction@2@@CryptoPP@@MBEIXZ 00407dbd f i bench2.obj
 0001:00006dbd       ?DefaultKeyLength@?$SimpleKeyingInterfaceImpl@V?$ConcretePolicyHolder@V?$SEAL_Policy@U?$EnumToType@W4ByteOrder@CryptoPP@@$0A@@CryptoPP@@@CryptoPP@@V?$AdditiveCipherTemplate@V?$AbstractPolicyHolder@UAdditiveCipherAbstractPolicy@CryptoPP@@VSymmetricCipher@2@@CryptoPP@@@2@UAdditiveCipherAbstractPolicy@2@@CryptoPP@@U?$SEAL_Info@U?$EnumToType@W4ByteOrder@CryptoPP@@$0A@@CryptoPP@@@2@@CryptoPP@@UBEIXZ 00407dbd f i bench2.obj
 0001:00006dc1       ?AlgorithmName@?$AlgorithmImpl@V?$DL_SignerBase@UECPPoint@CryptoPP@@@CryptoPP@@V?$DL_SS@U?$DL_Keys_ECDSA@VECP@CryptoPP@@@CryptoPP@@V?$DL_Algorithm_ECDSA@VECP@CryptoPP@@@2@VDL_SignatureMessageEncodingMethod_DSA@2@VSHA1@2@H@2@@CryptoPP@@UBE?AV?$basic_string@DU?$char_traits@D@std@@V?$allocator@D@2@@std@@XZ 00407dc1 f i bench2.obj
 0001:00006dc1       ?AlgorithmName@?$AlgorithmImpl@V?$DL_VerifierBase@UECPPoint@CryptoPP@@@CryptoPP@@V?$DL_SS@U?$DL_Keys_ECDSA@VECP@CryptoPP@@@CryptoPP@@V?$DL_Algorithm_ECDSA@VECP@CryptoPP@@@2@VDL_SignatureMessageEncodingMethod_DSA@2@VSHA1@2@H@2@@CryptoPP@@UBE?AV?$basic_string@DU?$char_traits@D@std@@V?$allocator@D@2@@std@@XZ 00407dc1 f i bench2.obj
 0001:00006dd9       ?InputRecoverableMessage@?$DL_SignerBase@UEC2NPoint@CryptoPP@@@CryptoPP@@UBEXAAVPK_MessageAccumulator@2@PBEI@Z 00407dd9 f i bench2.obj
 0001:00006dd9       ?InputRecoverableMessage@?$DL_SignerBase@UECPPoint@CryptoPP@@@CryptoPP@@UBEXAAVPK_MessageAccumulator@2@PBEI@Z 00407dd9 f i bench2.obj
 0001:00006dd9       ?InputRecoverableMessage@?$DL_SignerBase@VInteger@CryptoPP@@@CryptoPP@@UBEXAAVPK_MessageAccumulator@2@PBEI@Z 00407dd9 f i bench2.obj
 0001:00006e41       ?SignAndRestart@?$DL_SignerBase@UECPPoint@CryptoPP@@@CryptoPP@@UBEIAAVRandomNumberGenerator@2@AAVPK_MessageAccumulator@2@PAE_N@Z 00407e41 f i bench2.obj
 0001:000070f5       ?SignatureLength@?$DL_SignatureSchemeBase@VPK_Signer@CryptoPP@@V?$DL_PrivateKey@UECPPoint@CryptoPP@@@2@@CryptoPP@@UBEIXZ 004080f5 f i bench2.obj
 0001:000070f5       ?SignatureLength@?$DL_SignatureSchemeBase@VPK_Signer@CryptoPP@@V?$DL_PrivateKey@UEC2NPoint@CryptoPP@@@2@@CryptoPP@@UBEIXZ 004080f5 f i bench2.obj
 0001:000070f5       ?SignatureLength@?$DL_SignatureSchemeBase@VPK_Signer@CryptoPP@@V?$DL_PrivateKey@VInteger@CryptoPP@@@2@@CryptoPP@@UBEIXZ 004080f5 f i bench2.obj
 0001:00007148       ?MaxRecoverableLengthFromSignatureLength@?$DL_SignatureSchemeBase@VPK_Verifier@CryptoPP@@V?$DL_PublicKey@UECPPoint@CryptoPP@@@2@@CryptoPP@@UBEII@Z 00408148 f i bench2.obj
 0001:00007148       ?MaxRecoverableLengthFromSignatureLength@?$DL_SignatureSchemeBase@VPK_Verifier@CryptoPP@@V?$DL_PublicKey@VInteger@CryptoPP@@@2@@CryptoPP@@UBEII@Z 00408148 f i bench2.obj
 0001:00007148       ?MinPadLen@?$PSSR_MEM@$00VP1363_MGF1@CryptoPP@@$0?0$0A@$0A@@CryptoPP@@EBEII@Z 00408148 f i bench2.obj
 0001:00007148       ?MinPadLen@?$PSSR_MEM@$0A@VP1363_MGF1@CryptoPP@@$0?0$0A@$0A@@CryptoPP@@EBEII@Z 00408148 f i bench2.obj
 0001:00007148       ?MaxRecoverableLengthFromSignatureLength@?$DL_SignatureSchemeBase@VPK_Signer@CryptoPP@@V?$DL_PrivateKey@VInteger@CryptoPP@@@2@@CryptoPP@@UBEII@Z 00408148 f i bench2.obj
 0001:00007148       ?MaxRecoverableLengthFromSignatureLength@?$DL_SignatureSchemeBase@VPK_Verifier@CryptoPP@@V?$DL_PublicKey@UEC2NPoint@CryptoPP@@@2@@CryptoPP@@UBEII@Z 00408148 f i bench2.obj
 0001:00007148       ?MaxRecoverableLengthFromSignatureLength@?$DL_SignatureSchemeBase@VPK_Signer@CryptoPP@@V?$DL_PrivateKey@UEC2NPoint@CryptoPP@@@2@@CryptoPP@@UBEII@Z 00408148 f i bench2.obj
 0001:00007148       ?MaxRecoverableLengthFromSignatureLength@?$DL_SignatureSchemeBase@VPK_Signer@CryptoPP@@V?$DL_PrivateKey@UECPPoint@CryptoPP@@@2@@CryptoPP@@UBEII@Z 00408148 f i bench2.obj
 0001:0000714d       ?AllowNonrecoverablePart@?$DL_SignatureSchemeBase@VPK_Signer@CryptoPP@@V?$DL_PrivateKey@UECPPoint@CryptoPP@@@2@@CryptoPP@@UBE_NXZ 0040814d f i bench2.obj
 0001:0000714d       ?AllowNonrecoverablePart@?$DL_SignatureSchemeBase@VPK_Signer@CryptoPP@@V?$DL_PrivateKey@VInteger@CryptoPP@@@2@@CryptoPP@@UBE_NXZ 0040814d f i bench2.obj
 0001:0000714d       ?AllowNonrecoverablePart@?$DL_SignatureSchemeBase@VPK_Signer@CryptoPP@@V?$DL_PrivateKey@UEC2NPoint@CryptoPP@@@2@@CryptoPP@@UBE_NXZ 0040814d f i bench2.obj
 0001:00007159       ??0?$PK_FinalTemplate@V?$DL_VerifierImpl@U?$DL_SignatureSchemeOptions@V?$DL_SS@U?$DL_Keys_ECDSA@VECP@CryptoPP@@@CryptoPP@@V?$DL_Algorithm_ECDSA@VECP@CryptoPP@@@2@VDL_SignatureMessageEncodingMethod_DSA@2@VSHA1@2@H@CryptoPP@@U?$DL_Keys_ECDSA@VECP@CryptoPP@@@2@V?$DL_Algorithm_ECDSA@VECP@CryptoPP@@@2@VDL_SignatureMessageEncodingMethod_DSA@2@VSHA1@2@@CryptoPP@@@CryptoPP@@@CryptoPP@@QAE@ABVAsymmetricAlgorithm@1@@Z 00408159 f i bench2.obj
 0001:000071ab       ??1?$PK_FinalTemplate@V?$DL_VerifierImpl@U?$DL_SignatureSchemeOptions@V?$DL_SS@U?$DL_Keys_ECDSA@VECP@CryptoPP@@@CryptoPP@@V?$DL_Algorithm_ECDSA@VECP@CryptoPP@@@2@VDL_SignatureMessageEncodingMethod_DSA@2@VSHA1@2@H@CryptoPP@@U?$DL_Keys_ECDSA@VECP@CryptoPP@@@2@V?$DL_Algorithm_ECDSA@VECP@CryptoPP@@@2@VDL_SignatureMessageEncodingMethod_DSA@2@VSHA1@2@@CryptoPP@@@CryptoPP@@@CryptoPP@@UAE@XZ 004081ab f i bench2.obj
 0001:000071ab       ??1?$DL_VerifierImpl@U?$DL_SignatureSchemeOptions@V?$DL_SS@U?$DL_Keys_ECDSA@VECP@CryptoPP@@@CryptoPP@@V?$DL_Algorithm_ECDSA@VECP@CryptoPP@@@2@VDL_SignatureMessageEncodingMethod_DSA@2@VSHA1@2@H@CryptoPP@@U?$DL_Keys_ECDSA@VECP@CryptoPP@@@2@V?$DL_Algorithm_ECDSA@VECP@CryptoPP@@@2@VDL_SignatureMessageEncodingMethod_DSA@2@VSHA1@2@@CryptoPP@@@CryptoPP@@UAE@XZ 004081ab f i bench2.obj
 0001:000071b0       ?GeneratePublicKey@?$DH_Domain@V?$DL_GroupParameters_EC@VECP@CryptoPP@@@CryptoPP@@U?$EnumToType@W4CofactorMultiplicationOption@CryptoPP@@$01@2@@CryptoPP@@UBEXAAVRandomNumberGenerator@2@PBEPAE@Z 004081b0 f i bench2.obj
 0001:00007326       ?AlgorithmName@?$DH_Domain@V?$DL_GroupParameters_EC@VECP@CryptoPP@@@CryptoPP@@U?$EnumToType@W4CofactorMultiplicationOption@CryptoPP@@$01@2@@CryptoPP@@UBE?AV?$basic_string@DU?$char_traits@D@std@@V?$allocator@D@2@@std@@XZ 00408326 f i bench2.obj
 0001:0000733e       ?GetKeyAgreementAlgorithm@?$DH_Domain@V?$DL_GroupParameters_EC@VECP@CryptoPP@@@CryptoPP@@U?$EnumToType@W4CofactorMultiplicationOption@CryptoPP@@$01@2@@CryptoPP@@EBEABV?$DL_KeyAgreementAlgorithm@UECPPoint@CryptoPP@@@2@XZ 0040833e f i bench2.obj
 0001:00007354       ?PublicKeyLength@?$DL_SimpleKeyAgreementDomainBase@UECPPoint@CryptoPP@@@CryptoPP@@UBEIXZ 00408354 f i bench2.obj
 0001:00007354       ?PublicKeyLength@?$DL_SimpleKeyAgreementDomainBase@UEC2NPoint@CryptoPP@@@CryptoPP@@UBEIXZ 00408354 f i bench2.obj
 0001:00007354       ?PublicKeyLength@?$DL_SimpleKeyAgreementDomainBase@VInteger@CryptoPP@@@CryptoPP@@UBEIXZ 00408354 f i bench2.obj
 0001:00007363       ?GeneratePrivateKey@?$DL_SimpleKeyAgreementDomainBase@UECPPoint@CryptoPP@@@CryptoPP@@UBEXAAVRandomNumberGenerator@2@PAE@Z 00408363 f i bench2.obj
 0001:000073ee       ?GeneratePublicKey@?$DL_SimpleKeyAgreementDomainBase@UECPPoint@CryptoPP@@@CryptoPP@@UBEXAAVRandomNumberGenerator@2@PBEPAE@Z 004083ee f i bench2.obj
 0001:0000746d       ?Agree@?$DL_SimpleKeyAgreementDomainBase@UECPPoint@CryptoPP@@@CryptoPP@@UBE_NPAEPBE1_N@Z 0040846d f i bench2.obj
 0001:00007537       ??1Integer@CryptoPP@@UAE@XZ 00408537 f i bench2.obj
 0001:0000755d       ?AgreedValueLength@?$MQV_Domain@V?$DL_GroupParameters_EC@VECP@CryptoPP@@@CryptoPP@@U?$EnumToType@W4CofactorMultiplicationOption@CryptoPP@@$01@2@@CryptoPP@@UBEIXZ 0040855d f i bench2.obj
 0001:0000755d       ?AgreedValueLength@?$MQV_Domain@V?$DL_GroupParameters_EC@VEC2N@CryptoPP@@@CryptoPP@@U?$EnumToType@W4CofactorMultiplicationOption@CryptoPP@@$01@2@@CryptoPP@@UBEIXZ 0040855d f i bench2.obj
 0001:00007569       ?StaticPrivateKeyLength@?$MQV_Domain@V?$DL_GroupParameters_EC@VEC2N@CryptoPP@@@CryptoPP@@U?$EnumToType@W4CofactorMultiplicationOption@CryptoPP@@$01@2@@CryptoPP@@UBEIXZ 00408569 f i bench2.obj
 0001:00007569       ?StaticPrivateKeyLength@?$MQV_Domain@V?$DL_GroupParameters_EC@VECP@CryptoPP@@@CryptoPP@@U?$EnumToType@W4CofactorMultiplicationOption@CryptoPP@@$01@2@@CryptoPP@@UBEIXZ 00408569 f i bench2.obj
 0001:00007579       ?StaticPublicKeyLength@?$MQV_Domain@V?$DL_GroupParameters_EC@VEC2N@CryptoPP@@@CryptoPP@@U?$EnumToType@W4CofactorMultiplicationOption@CryptoPP@@$01@2@@CryptoPP@@UBEIXZ 00408579 f i bench2.obj
 0001:00007579       ?StaticPublicKeyLength@?$MQV_Domain@V?$DL_GroupParameters_EC@VECP@CryptoPP@@@CryptoPP@@U?$EnumToType@W4CofactorMultiplicationOption@CryptoPP@@$01@2@@CryptoPP@@UBEIXZ 00408579 f i bench2.obj
 0001:00007585       ??GCryptoPP@@YA?AVInteger@0@ABV10@0@Z 00408585 f i bench2.obj
 0001:000075a0       ?GenerateStaticPrivateKey@?$MQV_Domain@V?$DL_GroupParameters_EC@VECP@CryptoPP@@@CryptoPP@@U?$EnumToType@W4CofactorMultiplicationOption@CryptoPP@@$01@2@@CryptoPP@@UBEXAAVRandomNumberGenerator@2@PAE@Z 004085a0 f i bench2.obj
 0001:00007628       ??DCryptoPP@@YA?AVInteger@0@ABV10@0@Z 00408628 f i bench2.obj
 0001:00007643       ?GenerateStaticPublicKey@?$MQV_Domain@V?$DL_GroupParameters_EC@VECP@CryptoPP@@@CryptoPP@@U?$EnumToType@W4CofactorMultiplicationOption@CryptoPP@@$01@2@@CryptoPP@@UBEXAAVRandomNumberGenerator@2@PBEPAE@Z 00408643 f i bench2.obj
 0001:000076b8       ?EphemeralPublicKeyLength@?$MQV_Domain@V?$DL_GroupParameters_EC@VECP@CryptoPP@@@CryptoPP@@U?$EnumToType@W4CofactorMultiplicationOption@CryptoPP@@$01@2@@CryptoPP@@UBEIXZ 004086b8 f i bench2.obj
 0001:000076b8       ?EphemeralPublicKeyLength@?$MQV_Domain@VDL_GroupParameters_GFP_DefaultSafePrime@CryptoPP@@U?$EnumToType@W4CofactorMultiplicationOption@CryptoPP@@$0A@@2@@CryptoPP@@UBEIXZ 004086b8 f i bench2.obj
 0001:000076b8       ?EphemeralPublicKeyLength@?$MQV_Domain@V?$DL_GroupParameters_EC@VEC2N@CryptoPP@@@CryptoPP@@U?$EnumToType@W4CofactorMultiplicationOption@CryptoPP@@$01@2@@CryptoPP@@UBEIXZ 004086b8 f i bench2.obj
 0001:000076bd       ?GenerateEphemeralPrivateKey@?$MQV_Domain@V?$DL_GroupParameters_EC@VECP@CryptoPP@@@CryptoPP@@U?$EnumToType@W4CofactorMultiplicationOption@CryptoPP@@$01@2@@CryptoPP@@UBEXAAVRandomNumberGenerator@2@PAE@Z 004086bd f i bench2.obj
 0001:00007782       ?Agree@?$MQV_Domain@V?$DL_GroupParameters_EC@VECP@CryptoPP@@@CryptoPP@@U?$EnumToType@W4CofactorMultiplicationOption@CryptoPP@@$01@2@@CryptoPP@@UBE_NPAEPBE111_N@Z 00408782 f i bench2.obj
 0001:00007ba9       ??HCryptoPP@@YA?AVInteger@0@ABV10@0@Z 00408ba9 f i bench2.obj
 0001:00007bc4       ??LCryptoPP@@YA?AVInteger@0@ABV10@0@Z 00408bc4 f i bench2.obj
 0001:00007bdf       ?MaxElementByteLength@ModularArithmetic@CryptoPP@@QBEIXZ 00408bdf f i bench2.obj
 0001:00007c48       ??0?$PK_FinalTemplate@V?$DL_EncryptorImpl@U?$DL_CryptoSchemeOptions@U?$ECIES@VEC2N@CryptoPP@@U?$EnumToType@W4CofactorMultiplicationOption@CryptoPP@@$0A@@2@$0A@@CryptoPP@@U?$DL_Keys_EC@VEC2N@CryptoPP@@@2@V?$DL_KeyAgreementAlgorithm_DH@UEC2NPoint@CryptoPP@@U?$EnumToType@W4CofactorMultiplicationOption@CryptoPP@@$0A@@2@@2@V?$DL_KeyDerivationAlgorithm_P1363@UEC2NPoint@CryptoPP@@$0A@V?$P1363_KDF2@VSHA1@CryptoPP@@@2@@2@V?$DL_EncryptionAlgorithm_Xor@V?$HMAC@VSHA1@CryptoPP@@@CryptoPP@@$0A@@2@@CryptoPP@@@CryptoPP@@@CryptoPP@@QAE@ABVAsymmetricAlgorithm@1@@Z 00408c48 f i bench2.obj
 0001:00007c9a       ??1?$DL_EncryptorImpl@U?$DL_CryptoSchemeOptions@U?$ECIES@VEC2N@CryptoPP@@U?$EnumToType@W4CofactorMultiplicationOption@CryptoPP@@$0A@@2@$0A@@CryptoPP@@U?$DL_Keys_EC@VEC2N@CryptoPP@@@2@V?$DL_KeyAgreementAlgorithm_DH@UEC2NPoint@CryptoPP@@U?$EnumToType@W4CofactorMultiplicationOption@CryptoPP@@$0A@@2@@2@V?$DL_KeyDerivationAlgorithm_P1363@UEC2NPoint@CryptoPP@@$0A@V?$P1363_KDF2@VSHA1@CryptoPP@@@2@@2@V?$DL_EncryptionAlgorithm_Xor@V?$HMAC@VSHA1@CryptoPP@@@CryptoPP@@$0A@@2@@CryptoPP@@@CryptoPP@@UAE@XZ 00408c9a f i bench2.obj
 0001:00007c9a       ??1?$PK_FinalTemplate@V?$DL_EncryptorImpl@U?$DL_CryptoSchemeOptions@U?$ECIES@VEC2N@CryptoPP@@U?$EnumToType@W4CofactorMultiplicationOption@CryptoPP@@$0A@@2@$0A@@CryptoPP@@U?$DL_Keys_EC@VEC2N@CryptoPP@@@2@V?$DL_KeyAgreementAlgorithm_DH@UEC2NPoint@CryptoPP@@U?$EnumToType@W4CofactorMultiplicationOption@CryptoPP@@$0A@@2@@2@V?$DL_KeyDerivationAlgorithm_P1363@UEC2NPoint@CryptoPP@@$0A@V?$P1363_KDF2@VSHA1@CryptoPP@@@2@@2@V?$DL_EncryptionAlgorithm_Xor@V?$HMAC@VSHA1@CryptoPP@@@CryptoPP@@$0A@@2@@CryptoPP@@@CryptoPP@@@CryptoPP@@UAE@XZ 00408c9a f i bench2.obj
 0001:00007c9f       ??0?$PK_FinalTemplate@V?$DL_SignerImpl@U?$DL_SignatureSchemeOptions@V?$DL_SS@U?$DL_Keys_ECDSA@VEC2N@CryptoPP@@@CryptoPP@@V?$DL_Algorithm_ECDSA@VEC2N@CryptoPP@@@2@VDL_SignatureMessageEncodingMethod_DSA@2@VSHA1@2@H@CryptoPP@@U?$DL_Keys_ECDSA@VEC2N@CryptoPP@@@2@V?$DL_Algorithm_ECDSA@VEC2N@CryptoPP@@@2@VDL_SignatureMessageEncodingMethod_DSA@2@VSHA1@2@@CryptoPP@@@CryptoPP@@@CryptoPP@@QAE@ABVAsymmetricAlgorithm@1@@Z 00408c9f f i bench2.obj
 0001:00007d00       ??1?$PK_FinalTemplate@V?$DL_SignerImpl@U?$DL_SignatureSchemeOptions@V?$DL_SS@U?$DL_Keys_ECDSA@VEC2N@CryptoPP@@@CryptoPP@@V?$DL_Algorithm_ECDSA@VEC2N@CryptoPP@@@2@VDL_SignatureMessageEncodingMethod_DSA@2@VSHA1@2@H@CryptoPP@@U?$DL_Keys_ECDSA@VEC2N@CryptoPP@@@2@V?$DL_Algorithm_ECDSA@VEC2N@CryptoPP@@@2@VDL_SignatureMessageEncodingMethod_DSA@2@VSHA1@2@@CryptoPP@@@CryptoPP@@@CryptoPP@@UAE@XZ 00408d00 f i bench2.obj
 0001:00007d00       ??1?$DL_SignerImpl@U?$DL_SignatureSchemeOptions@V?$DL_SS@U?$DL_Keys_ECDSA@VEC2N@CryptoPP@@@CryptoPP@@V?$DL_Algorithm_ECDSA@VEC2N@CryptoPP@@@2@VDL_SignatureMessageEncodingMethod_DSA@2@VSHA1@2@H@CryptoPP@@U?$DL_Keys_ECDSA@VEC2N@CryptoPP@@@2@V?$DL_Algorithm_ECDSA@VEC2N@CryptoPP@@@2@VDL_SignatureMessageEncodingMethod_DSA@2@VSHA1@2@@CryptoPP@@@CryptoPP@@UAE@XZ 00408d00 f i bench2.obj
 0001:00007d05       ?AllowNonrecoverablePart@PK_SignatureMessageEncodingMethod@CryptoPP@@QBE_NXZ 00408d05 f i bench2.obj
 0001:00007d61       ?NewSignatureAccumulator@?$DL_SignerImpl@U?$DL_SignatureSchemeOptions@V?$DL_SS@U?$DL_Keys_ECDSA@VEC2N@CryptoPP@@@CryptoPP@@V?$DL_Algorithm_ECDSA@VEC2N@CryptoPP@@@2@VDL_SignatureMessageEncodingMethod_DSA@2@VSHA1@2@H@CryptoPP@@U?$DL_Keys_ECDSA@VEC2N@CryptoPP@@@2@V?$DL_Algorithm_ECDSA@VEC2N@CryptoPP@@@2@VDL_SignatureMessageEncodingMethod_DSA@2@VSHA1@2@@CryptoPP@@@CryptoPP@@UBEPAVPK_MessageAccumulator@2@AAVRandomNumberGenerator@2@@Z 00408d61 f i bench2.obj
 0001:00007db6       ?AlgorithmName@?$AlgorithmImpl@V?$DL_SignerBase@UEC2NPoint@CryptoPP@@@CryptoPP@@V?$DL_SS@U?$DL_Keys_ECDSA@VEC2N@CryptoPP@@@CryptoPP@@V?$DL_Algorithm_ECDSA@VEC2N@CryptoPP@@@2@VDL_SignatureMessageEncodingMethod_DSA@2@VSHA1@2@H@2@@CryptoPP@@UBE?AV?$basic_string@DU?$char_traits@D@std@@V?$allocator@D@2@@std@@XZ 00408db6 f i bench2.obj
 0001:00007db6       ?AlgorithmName@?$AlgorithmImpl@V?$DL_VerifierBase@UEC2NPoint@CryptoPP@@@CryptoPP@@V?$DL_SS@U?$DL_Keys_ECDSA@VEC2N@CryptoPP@@@CryptoPP@@V?$DL_Algorithm_ECDSA@VEC2N@CryptoPP@@@2@VDL_SignatureMessageEncodingMethod_DSA@2@VSHA1@2@H@2@@CryptoPP@@UBE?AV?$basic_string@DU?$char_traits@D@std@@V?$allocator@D@2@@std@@XZ 00408db6 f i bench2.obj
 0001:00007dce       ?SignAndRestart@?$DL_SignerBase@UEC2NPoint@CryptoPP@@@CryptoPP@@UBEIAAVRandomNumberGenerator@2@AAVPK_MessageAccumulator@2@PAE_N@Z 00408dce f i bench2.obj
 0001:00008082       ??0DL_BadElement@CryptoPP@@QAE@XZ 00409082 f i bench2.obj
 0001:000080f7       ?MaxRecoverableLength@?$DL_SignatureSchemeBase@VPK_Signer@CryptoPP@@V?$DL_PrivateKey@UEC2NPoint@CryptoPP@@@2@@CryptoPP@@UBEIXZ 004090f7 f i bench2.obj
 0001:000080f7       ?MaxRecoverableLength@?$DL_SignatureSchemeBase@VPK_Signer@CryptoPP@@V?$DL_PrivateKey@VInteger@CryptoPP@@@2@@CryptoPP@@UBEIXZ 004090f7 f i bench2.obj
 0001:000080f7       ?MaxRecoverableLength@?$DL_SignatureSchemeBase@VPK_Signer@CryptoPP@@V?$DL_PrivateKey@UECPPoint@CryptoPP@@@2@@CryptoPP@@UBEIXZ 004090f7 f i bench2.obj
 0001:0000812b       ??0?$PK_FinalTemplate@V?$DL_VerifierImpl@U?$DL_SignatureSchemeOptions@V?$DL_SS@U?$DL_Keys_ECDSA@VEC2N@CryptoPP@@@CryptoPP@@V?$DL_Algorithm_ECDSA@VEC2N@CryptoPP@@@2@VDL_SignatureMessageEncodingMethod_DSA@2@VSHA1@2@H@CryptoPP@@U?$DL_Keys_ECDSA@VEC2N@CryptoPP@@@2@V?$DL_Algorithm_ECDSA@VEC2N@CryptoPP@@@2@VDL_SignatureMessageEncodingMethod_DSA@2@VSHA1@2@@CryptoPP@@@CryptoPP@@@CryptoPP@@QAE@ABVAsymmetricAlgorithm@1@@Z 0040912b f i bench2.obj
 0001:0000817d       ??1?$PK_FinalTemplate@V?$DL_VerifierImpl@U?$DL_SignatureSchemeOptions@V?$DL_SS@U?$DL_Keys_ECDSA@VEC2N@CryptoPP@@@CryptoPP@@V?$DL_Algorithm_ECDSA@VEC2N@CryptoPP@@@2@VDL_SignatureMessageEncodingMethod_DSA@2@VSHA1@2@H@CryptoPP@@U?$DL_Keys_ECDSA@VEC2N@CryptoPP@@@2@V?$DL_Algorithm_ECDSA@VEC2N@CryptoPP@@@2@VDL_SignatureMessageEncodingMethod_DSA@2@VSHA1@2@@CryptoPP@@@CryptoPP@@@CryptoPP@@UAE@XZ 0040917d f i bench2.obj
 0001:0000817d       ??1?$DL_VerifierImpl@U?$DL_SignatureSchemeOptions@V?$DL_SS@U?$DL_Keys_ECDSA@VEC2N@CryptoPP@@@CryptoPP@@V?$DL_Algorithm_ECDSA@VEC2N@CryptoPP@@@2@VDL_SignatureMessageEncodingMethod_DSA@2@VSHA1@2@H@CryptoPP@@U?$DL_Keys_ECDSA@VEC2N@CryptoPP@@@2@V?$DL_Algorithm_ECDSA@VEC2N@CryptoPP@@@2@VDL_SignatureMessageEncodingMethod_DSA@2@VSHA1@2@@CryptoPP@@@CryptoPP@@UAE@XZ 0040917d f i bench2.obj
 0001:00008182       ??1OID@CryptoPP@@QAE@XZ    00409182 f i bench2.obj
 0001:00008187       ?GeneratePublicKey@?$DH_Domain@V?$DL_GroupParameters_EC@VEC2N@CryptoPP@@@CryptoPP@@U?$EnumToType@W4CofactorMultiplicationOption@CryptoPP@@$01@2@@CryptoPP@@UBEXAAVRandomNumberGenerator@2@PBEPAE@Z 00409187 f i bench2.obj
 0001:000082fd       ?AlgorithmName@?$DH_Domain@V?$DL_GroupParameters_EC@VEC2N@CryptoPP@@@CryptoPP@@U?$EnumToType@W4CofactorMultiplicationOption@CryptoPP@@$01@2@@CryptoPP@@UBE?AV?$basic_string@DU?$char_traits@D@std@@V?$allocator@D@2@@std@@XZ 004092fd f i bench2.obj
 0001:00008315       ?GetKeyAgreementAlgorithm@?$DH_Domain@V?$DL_GroupParameters_EC@VEC2N@CryptoPP@@@CryptoPP@@U?$EnumToType@W4CofactorMultiplicationOption@CryptoPP@@$01@2@@CryptoPP@@EBEABV?$DL_KeyAgreementAlgorithm@UEC2NPoint@CryptoPP@@@2@XZ 00409315 f i bench2.obj
 0001:0000832b       ?GeneratePrivateKey@?$DL_SimpleKeyAgreementDomainBase@UEC2NPoint@CryptoPP@@@CryptoPP@@UBEXAAVRandomNumberGenerator@2@PAE@Z 0040932b f i bench2.obj
 0001:000083b6       ?GeneratePublicKey@?$DL_SimpleKeyAgreementDomainBase@UEC2NPoint@CryptoPP@@@CryptoPP@@UBEXAAVRandomNumberGenerator@2@PBEPAE@Z 004093b6 f i bench2.obj
 0001:00008435       ?Agree@?$DL_SimpleKeyAgreementDomainBase@UEC2NPoint@CryptoPP@@@CryptoPP@@UBE_NPAEPBE1_N@Z 00409435 f i bench2.obj
 0001:000084ff       ?GenerateStaticPrivateKey@?$MQV_Domain@V?$DL_GroupParameters_EC@VEC2N@CryptoPP@@@CryptoPP@@U?$EnumToType@W4CofactorMultiplicationOption@CryptoPP@@$01@2@@CryptoPP@@UBEXAAVRandomNumberGenerator@2@PAE@Z 004094ff f i bench2.obj
 0001:00008587       ?GenerateStaticPublicKey@?$MQV_Domain@V?$DL_GroupParameters_EC@VEC2N@CryptoPP@@@CryptoPP@@U?$EnumToType@W4CofactorMultiplicationOption@CryptoPP@@$01@2@@CryptoPP@@UBEXAAVRandomNumberGenerator@2@PBEPAE@Z 00409587 f i bench2.obj
 0001:000085fc       ?GenerateEphemeralPrivateKey@?$MQV_Domain@V?$DL_GroupParameters_EC@VEC2N@CryptoPP@@@CryptoPP@@U?$EnumToType@W4CofactorMultiplicationOption@CryptoPP@@$01@2@@CryptoPP@@UBEXAAVRandomNumberGenerator@2@PAE@Z 004095fc f i bench2.obj
 0001:000086c1       ?Agree@?$MQV_Domain@V?$DL_GroupParameters_EC@VEC2N@CryptoPP@@@CryptoPP@@U?$EnumToType@W4CofactorMultiplicationOption@CryptoPP@@$01@2@@CryptoPP@@UBE_NPAEPBE111_N@Z 004096c1 f i bench2.obj
 0001:00008ae8       ??0SelfTestFailure@CryptoPP@@QAE@ABV01@@Z 00409ae8 f i bench2.obj
 0001:00008b00       ??0EC2NPoint@CryptoPP@@QAE@ABU01@@Z 00409b00 f i bench2.obj
 0001:00008b47       ??0?$DL_GroupParametersImpl@V?$EcPrecomputation@VECP@CryptoPP@@@CryptoPP@@V?$DL_FixedBasePrecomputationImpl@UECPPoint@CryptoPP@@@2@V?$DL_GroupParameters@UECPPoint@CryptoPP@@@2@@CryptoPP@@QAE@XZ 00409b47 f i bench2.obj
 0001:00008bc9       ?GenerateRandom@GeneratableCryptoMaterial@CryptoPP@@UAEXAAVRandomNumberGenerator@2@ABVNameValuePairs@2@@Z 00409bc9 f i bench2.obj
 0001:00008c25       ?GetCofactor@?$DL_GroupParameters@UECPPoint@CryptoPP@@@CryptoPP@@UBE?AVInteger@2@XZ 00409c25 f i bench2.obj
 0001:00008c88       ??KCryptoPP@@YA?AVInteger@0@ABV10@0@Z 00409c88 f i bench2.obj
 0001:00008ca3       ??0DL_BadElement@CryptoPP@@QAE@ABV01@@Z 00409ca3 f i bench2.obj
 0001:00008cbb       ??0?$DL_GroupParametersImpl@V?$EcPrecomputation@VEC2N@CryptoPP@@@CryptoPP@@V?$DL_FixedBasePrecomputationImpl@UEC2NPoint@CryptoPP@@@2@V?$DL_GroupParameters@UEC2NPoint@CryptoPP@@@2@@CryptoPP@@QAE@XZ 00409cbb f i bench2.obj
 0001:00008d46       ?ConvertOut@?$DL_GroupPrecomputation@UEC2NPoint@CryptoPP@@@CryptoPP@@UBE?AUEC2NPoint@2@ABU32@@Z 00409d46 f i bench2.obj
 0001:00008d46       ?ConvertIn@?$DL_GroupPrecomputation@UEC2NPoint@CryptoPP@@@CryptoPP@@UBE?AUEC2NPoint@2@ABU32@@Z 00409d46 f i bench2.obj
 0001:00008d60       ?AccessBasePrecomputation@?$DL_GroupParametersImpl@V?$EcPrecomputation@VEC2N@CryptoPP@@@CryptoPP@@V?$DL_FixedBasePrecomputationImpl@UEC2NPoint@CryptoPP@@@2@V?$DL_GroupParameters@UEC2NPoint@CryptoPP@@@2@@CryptoPP@@UAEAAV?$DL_FixedBasePrecomputation@UEC2NPoint@CryptoPP@@@2@XZ 00409d60 f i bench2.obj
 0001:00008d60       ?GetBasePrecomputation@?$DL_GroupParameters_EC@VEC2N@CryptoPP@@@CryptoPP@@UBEABV?$DL_FixedBasePrecomputation@UEC2NPoint@CryptoPP@@@2@XZ 00409d60 f i bench2.obj
 0001:00008d60       ?AccessBasePrecomputation@?$DL_GroupParameters_EC@VEC2N@CryptoPP@@@CryptoPP@@UAEAAV?$DL_FixedBasePrecomputation@UEC2NPoint@CryptoPP@@@2@XZ 00409d60 f i bench2.obj
 0001:00008d60       ?GetBasePrecomputation@?$DL_GroupParametersImpl@V?$EcPrecomputation@VEC2N@CryptoPP@@@CryptoPP@@V?$DL_FixedBasePrecomputationImpl@UEC2NPoint@CryptoPP@@@2@V?$DL_GroupParameters@UEC2NPoint@CryptoPP@@@2@@CryptoPP@@UBEABV?$DL_FixedBasePrecomputation@UEC2NPoint@CryptoPP@@@2@XZ 00409d60 f i bench2.obj
 0001:00008d64       ?GetCofactor@?$DL_GroupParameters@UEC2NPoint@CryptoPP@@@CryptoPP@@UBE?AVInteger@2@XZ 00409d64 f i bench2.obj
 0001:00008dc7       ??0?$DL_EncryptorImpl@U?$DL_CryptoSchemeOptions@U?$ECIES@VECP@CryptoPP@@U?$EnumToType@W4CofactorMultiplicationOption@CryptoPP@@$0A@@2@$0A@@CryptoPP@@U?$DL_Keys_EC@VECP@CryptoPP@@@2@V?$DL_KeyAgreementAlgorithm_DH@UECPPoint@CryptoPP@@U?$EnumToType@W4CofactorMultiplicationOption@CryptoPP@@$0A@@2@@2@V?$DL_KeyDerivationAlgorithm_P1363@UECPPoint@CryptoPP@@$0A@V?$P1363_KDF2@VSHA1@CryptoPP@@@2@@2@V?$DL_EncryptionAlgorithm_Xor@V?$HMAC@VSHA1@CryptoPP@@@CryptoPP@@$0A@@2@@CryptoPP@@@CryptoPP@@QAE@XZ 00409dc7 f i bench2.obj
 0001:00008dee       ?AccessMaterial@PublicKeyAlgorithm@CryptoPP@@UAEAAVCryptoMaterial@2@XZ 00409dee f i bench2.obj
 0001:00008e02       ?GetMaterial@PublicKeyAlgorithm@CryptoPP@@UBEABVCryptoMaterial@2@XZ 00409e02 f i bench2.obj
 0001:00008e16       ?Encrypt@?$DL_EncryptorBase@UECPPoint@CryptoPP@@@CryptoPP@@UBEXAAVRandomNumberGenerator@2@PBEIPAEABVNameValuePairs@2@@Z 00409e16 f i bench2.obj
 0001:00008f89       ?CiphertextLength@?$DL_CryptoSystemBase@VPK_Decryptor@CryptoPP@@V?$DL_PrivateKey@UECPPoint@CryptoPP@@@2@@CryptoPP@@UBEII@Z 00409f89 f i bench2.obj
 0001:00008f89       ?CiphertextLength@?$DL_CryptoSystemBase@VPK_Encryptor@CryptoPP@@V?$DL_PublicKey@VInteger@CryptoPP@@@2@@CryptoPP@@UBEII@Z 00409f89 f i bench2.obj
 0001:00008f89       ?CiphertextLength@?$DL_CryptoSystemBase@VPK_Decryptor@CryptoPP@@V?$DL_PrivateKey@VInteger@CryptoPP@@@2@@CryptoPP@@UBEII@Z 00409f89 f i bench2.obj
 0001:00008f89       ?CiphertextLength@?$DL_CryptoSystemBase@VPK_Decryptor@CryptoPP@@V?$DL_PrivateKey@UEC2NPoint@CryptoPP@@@2@@CryptoPP@@UBEII@Z 00409f89 f i bench2.obj
 0001:00008f89       ?CiphertextLength@?$DL_CryptoSystemBase@VPK_Encryptor@CryptoPP@@V?$DL_PublicKey@UECPPoint@CryptoPP@@@2@@CryptoPP@@UBEII@Z 00409f89 f i bench2.obj
 0001:00008f89       ?CiphertextLength@?$DL_CryptoSystemBase@VPK_Encryptor@CryptoPP@@V?$DL_PublicKey@UEC2NPoint@CryptoPP@@@2@@CryptoPP@@UBEII@Z 00409f89 f i bench2.obj
 0001:00008fc2       ??0?$PK_MessageAccumulatorImpl@VSHA1@CryptoPP@@@CryptoPP@@QAE@XZ 00409fc2 f i bench2.obj
 0001:00009003       ?HashEndianCorrectedBlock@?$IteratedHashWithStaticTransform@IU?$EnumToType@W4ByteOrder@CryptoPP@@$00@CryptoPP@@$0EA@$0BE@VSHA1@2@$0A@$0A@@CryptoPP@@MAEXPBI@Z 0040a003 f i bench2.obj
 0001:00009017       ?Init@?$IteratedHashWithStaticTransform@IU?$EnumToType@W4ByteOrder@CryptoPP@@$0A@@CryptoPP@@$0EA@$0BE@VRIPEMD160@2@$0A@$0A@@CryptoPP@@MAEXXZ 0040a017 f i bench2.obj
 0001:00009017       ?Init@?$IteratedHashWithStaticTransform@IU?$EnumToType@W4ByteOrder@CryptoPP@@$00@CryptoPP@@$0EA@$0BE@VSHA1@2@$0A@$0A@@CryptoPP@@MAEXXZ 0040a017 f i bench2.obj
 0001:00009024       ?Clone@?$ClonableImpl@VSHA1@CryptoPP@@V?$AlgorithmImpl@V?$IteratedHash@IU?$EnumToType@W4ByteOrder@CryptoPP@@$00@CryptoPP@@$0EA@VHashTransformation@2@@CryptoPP@@VSHA1@2@@2@@CryptoPP@@UBEPAVClonable@2@XZ 0040a024 f i bench2.obj
 0001:0000907a       ?AlgorithmName@?$AlgorithmImpl@V?$IteratedHash@IU?$EnumToType@W4ByteOrder@CryptoPP@@$00@CryptoPP@@$0EA@VHashTransformation@2@@CryptoPP@@VSHA1@2@@CryptoPP@@UBE?AV?$basic_string@DU?$char_traits@D@std@@V?$allocator@D@2@@std@@XZ 0040a07a f i bench2.obj
 0001:000090b2       ?DataBuf@?$IteratedHash@IU?$EnumToType@W4ByteOrder@CryptoPP@@$00@CryptoPP@@$0EA@VHashTransformation@2@@CryptoPP@@MAEPAIXZ 0040a0b2 f i bench2.obj
 0001:000090b2       ?DataBuf@?$IteratedHash@IU?$EnumToType@W4ByteOrder@CryptoPP@@$0A@@CryptoPP@@$0EA@VHashTransformation@2@@CryptoPP@@MAEPAIXZ 0040a0b2 f i bench2.obj
 0001:000090b6       ?CreatePutSpace@BufferedTransformation@CryptoPP@@UAEPAEAAI@Z 0040a0b6 f i bench2.obj
 0001:000090b6       ?CreateUpdateSpace@HashTransformation@CryptoPP@@UAEPAEAAI@Z 0040a0b6 f i bench2.obj
 0001:000090c2       ?Final@HashTransformation@CryptoPP@@UAEXPAE@Z 0040a0c2 f i bench2.obj
 0001:000090da       ?Restart@HashTransformation@CryptoPP@@UAEXXZ 0040a0da f i bench2.obj
 0001:000090e4       ?CalculateDigest@HashTransformation@CryptoPP@@UAEXPAEPBEI@Z 0040a0e4 f i bench2.obj
 0001:00009103       ?Verify@HashTransformation@CryptoPP@@UAE_NPBE@Z 0040a103 f i bench2.obj
 0001:0000911b       ?VerifyDigest@HashTransformation@CryptoPP@@UAE_NPBE0I@Z 0040a11b f i bench2.obj
 0001:0000913a       ?CalculateTruncatedDigest@HashTransformation@CryptoPP@@UAEXPAEIPBEI@Z 0040a13a f i bench2.obj
 0001:0000915d       ?VerifyTruncatedDigest@HashTransformation@CryptoPP@@UAE_NPBEI0I@Z 0040a15d f i bench2.obj
 0001:00009180       ?DigestSize@PK_MessageAccumulator@CryptoPP@@UBEIXZ 0040a180 f i bench2.obj
 0001:000091dc       ?TruncatedFinal@PK_MessageAccumulator@CryptoPP@@UAEXPAEI@Z 0040a1dc f i bench2.obj
 0001:00009238       ??0PK_MessageAccumulatorBase@CryptoPP@@QAE@XZ 0040a238 f i bench2.obj
 0001:000092b2       ?Update@PK_MessageAccumulatorBase@CryptoPP@@UAEXPBEI@Z 0040a2b2 f i bench2.obj
 0001:000092e0       ??1PK_MessageAccumulatorBase@CryptoPP@@UAE@XZ 0040a2e0 f i bench2.obj
 0001:00009357       ??0?$DL_VerifierImpl@U?$DL_SignatureSchemeOptions@V?$DL_SS@U?$DL_Keys_ECDSA@VECP@CryptoPP@@@CryptoPP@@V?$DL_Algorithm_ECDSA@VECP@CryptoPP@@@2@VDL_SignatureMessageEncodingMethod_DSA@2@VSHA1@2@H@CryptoPP@@U?$DL_Keys_ECDSA@VECP@CryptoPP@@@2@V?$DL_Algorithm_ECDSA@VECP@CryptoPP@@@2@VDL_SignatureMessageEncodingMethod_DSA@2@VSHA1@2@@CryptoPP@@@CryptoPP@@QAE@XZ 0040a357 f i bench2.obj
 0001:0000937e       ?NewVerificationAccumulator@?$DL_VerifierImpl@U?$DL_SignatureSchemeOptions@V?$DL_SS@U?$DL_Keys_ECDSA@VECP@CryptoPP@@@CryptoPP@@V?$DL_Algorithm_ECDSA@VECP@CryptoPP@@@2@VDL_SignatureMessageEncodingMethod_DSA@2@VSHA1@2@H@CryptoPP@@U?$DL_Keys_ECDSA@VECP@CryptoPP@@@2@V?$DL_Algorithm_ECDSA@VECP@CryptoPP@@@2@VDL_SignatureMessageEncodingMethod_DSA@2@VSHA1@2@@CryptoPP@@@CryptoPP@@UBEPAVPK_MessageAccumulator@2@XZ 0040a37e f i bench2.obj
 0001:000093b3       ?InputSignature@?$DL_VerifierBase@VInteger@CryptoPP@@@CryptoPP@@UBEXAAVPK_MessageAccumulator@2@PBEI@Z 0040a3b3 f i bench2.obj
 0001:000093b3       ?InputSignature@?$DL_VerifierBase@UEC2NPoint@CryptoPP@@@CryptoPP@@UBEXAAVPK_MessageAccumulator@2@PBEI@Z 0040a3b3 f i bench2.obj
 0001:000093b3       ?InputSignature@?$DL_VerifierBase@UECPPoint@CryptoPP@@@CryptoPP@@UBEXAAVPK_MessageAccumulator@2@PBEI@Z 0040a3b3 f i bench2.obj
 0001:00009457       ?VerifyAndRestart@?$DL_VerifierBase@UECPPoint@CryptoPP@@@CryptoPP@@UBE_NAAVPK_MessageAccumulator@2@@Z 0040a457 f i bench2.obj
 0001:0000959f       ?RecoverAndRestart@?$DL_VerifierBase@UECPPoint@CryptoPP@@@CryptoPP@@UBE?AUDecodingResult@2@PAEAAVPK_MessageAccumulator@2@@Z 0040a59f f i bench2.obj
 0001:00009792       ??_G?$DH_Domain@V?$DL_GroupParameters_EC@VECP@CryptoPP@@@CryptoPP@@U?$EnumToType@W4CofactorMultiplicationOption@CryptoPP@@$01@2@@CryptoPP@@UAEPAXI@Z 0040a792 f i bench2.obj
 0001:00009792       ??_E?$DH_Domain@V?$DL_GroupParameters_EC@VECP@CryptoPP@@@CryptoPP@@U?$EnumToType@W4CofactorMultiplicationOption@CryptoPP@@$01@2@@CryptoPP@@UAEPAXI@Z 0040a792 f i bench2.obj
 0001:000097ae       ??1ECPPoint@CryptoPP@@QAE@XZ 0040a7ae f i bench2.obj
 0001:000097f8       ??0?$DL_GroupParameters_EC@VECP@CryptoPP@@@CryptoPP@@QAE@ABV01@@Z 0040a7f8 f i bench2.obj
 0001:000098b3       ??0?$vector@IV?$allocator@I@std@@@std@@QAE@ABV01@@Z 0040a8b3 f i bench2.obj
 0001:0000990c       ?ConvertIn@?$EcPrecomputation@VECP@CryptoPP@@@CryptoPP@@UBE?AUECPPoint@2@ABU32@@Z 0040a90c f i bench2.obj
 0001:00009a04       ??_G?$MQV_Domain@V?$DL_GroupParameters_EC@VECP@CryptoPP@@@CryptoPP@@U?$EnumToType@W4CofactorMultiplicationOption@CryptoPP@@$01@2@@CryptoPP@@UAEPAXI@Z 0040aa04 f i bench2.obj
 0001:00009a04       ??_E?$MQV_Domain@V?$DL_GroupParameters_EC@VECP@CryptoPP@@@CryptoPP@@U?$EnumToType@W4CofactorMultiplicationOption@CryptoPP@@$01@2@@CryptoPP@@UAEPAXI@Z 0040aa04 f i bench2.obj
 0001:00009a20       ?ConvertOut@?$EcPrecomputation@VECP@CryptoPP@@@CryptoPP@@UBE?AUECPPoint@2@ABU32@@Z 0040aa20 f i bench2.obj
 0001:00009b18       ??0?$DL_EncryptorImpl@U?$DL_CryptoSchemeOptions@U?$ECIES@VEC2N@CryptoPP@@U?$EnumToType@W4CofactorMultiplicationOption@CryptoPP@@$0A@@2@$0A@@CryptoPP@@U?$DL_Keys_EC@VEC2N@CryptoPP@@@2@V?$DL_KeyAgreementAlgorithm_DH@UEC2NPoint@CryptoPP@@U?$EnumToType@W4CofactorMultiplicationOption@CryptoPP@@$0A@@2@@2@V?$DL_KeyDerivationAlgorithm_P1363@UEC2NPoint@CryptoPP@@$0A@V?$P1363_KDF2@VSHA1@CryptoPP@@@2@@2@V?$DL_EncryptionAlgorithm_Xor@V?$HMAC@VSHA1@CryptoPP@@@CryptoPP@@$0A@@2@@CryptoPP@@@CryptoPP@@QAE@XZ 0040ab18 f i bench2.obj
 0001:00009b3f       ?GetKeyAgreementAlgorithm@?$DL_ObjectImpl@V?$DL_EncryptorBase@UEC2NPoint@CryptoPP@@@CryptoPP@@U?$DL_CryptoSchemeOptions@U?$ECIES@VEC2N@CryptoPP@@U?$EnumToType@W4CofactorMultiplicationOption@CryptoPP@@$0A@@2@$0A@@CryptoPP@@U?$DL_Keys_EC@VEC2N@CryptoPP@@@2@V?$DL_KeyAgreementAlgorithm_DH@UEC2NPoint@CryptoPP@@U?$EnumToType@W4CofactorMultiplicationOption@CryptoPP@@$0A@@2@@2@V?$DL_KeyDerivationAlgorithm_P1363@UEC2NPoint@CryptoPP@@$0A@V?$P1363_KDF2@VSHA1@CryptoPP@@@2@@2@V?$DL_EncryptionAlgorithm_Xor@V?$HMAC@VSHA1@CryptoPP@@@CryptoPP@@$0A@@2@@2@V?$DL_PublicKey_EC@VEC2N@CryptoPP@@@2@@CryptoPP@@MBEABV?$DL_KeyAgreementAlgorithm@UEC2NPoint@CryptoPP@@@2@XZ 0040ab3f f i bench2.obj
 0001:00009b3f       ?GetKeyAgreementAlgorithm@?$DL_ObjectImpl@V?$DL_DecryptorBase@UEC2NPoint@CryptoPP@@@CryptoPP@@U?$DL_CryptoSchemeOptions@U?$ECIES@VEC2N@CryptoPP@@U?$EnumToType@W4CofactorMultiplicationOption@CryptoPP@@$0A@@2@$0A@@CryptoPP@@U?$DL_Keys_EC@VEC2N@CryptoPP@@@2@V?$DL_KeyAgreementAlgorithm_DH@UEC2NPoint@CryptoPP@@U?$EnumToType@W4CofactorMultiplicationOption@CryptoPP@@$0A@@2@@2@V?$DL_KeyDerivationAlgorithm_P1363@UEC2NPoint@CryptoPP@@$0A@V?$P1363_KDF2@VSHA1@CryptoPP@@@2@@2@V?$DL_EncryptionAlgorithm_Xor@V?$HMAC@VSHA1@CryptoPP@@@CryptoPP@@$0A@@2@@2@V?$DL_PrivateKey_EC@VEC2N@CryptoPP@@@2@@CryptoPP@@MBEABV?$DL_KeyAgreementAlgorithm@UEC2NPoint@CryptoPP@@@2@XZ 0040ab3f f i bench2.obj
 0001:00009b55       ?GetKeyDerivationAlgorithm@?$DL_ObjectImpl@V?$DL_EncryptorBase@UEC2NPoint@CryptoPP@@@CryptoPP@@U?$DL_CryptoSchemeOptions@U?$ECIES@VEC2N@CryptoPP@@U?$EnumToType@W4CofactorMultiplicationOption@CryptoPP@@$0A@@2@$0A@@CryptoPP@@U?$DL_Keys_EC@VEC2N@CryptoPP@@@2@V?$DL_KeyAgreementAlgorithm_DH@UEC2NPoint@CryptoPP@@U?$EnumToType@W4CofactorMultiplicationOption@CryptoPP@@$0A@@2@@2@V?$DL_KeyDerivationAlgorithm_P1363@UEC2NPoint@CryptoPP@@$0A@V?$P1363_KDF2@VSHA1@CryptoPP@@@2@@2@V?$DL_EncryptionAlgorithm_Xor@V?$HMAC@VSHA1@CryptoPP@@@CryptoPP@@$0A@@2@@2@V?$DL_PublicKey_EC@VEC2N@CryptoPP@@@2@@CryptoPP@@MBEABV?$DL_KeyDerivationAlgorithm@UEC2NPoint@CryptoPP@@@2@XZ 0040ab55 f i bench2.obj
 0001:00009b55       ?GetKeyDerivationAlgorithm@?$DL_ObjectImpl@V?$DL_DecryptorBase@UEC2NPoint@CryptoPP@@@CryptoPP@@U?$DL_CryptoSchemeOptions@U?$ECIES@VEC2N@CryptoPP@@U?$EnumToType@W4CofactorMultiplicationOption@CryptoPP@@$0A@@2@$0A@@CryptoPP@@U?$DL_Keys_EC@VEC2N@CryptoPP@@@2@V?$DL_KeyAgreementAlgorithm_DH@UEC2NPoint@CryptoPP@@U?$EnumToType@W4CofactorMultiplicationOption@CryptoPP@@$0A@@2@@2@V?$DL_KeyDerivationAlgorithm_P1363@UEC2NPoint@CryptoPP@@$0A@V?$P1363_KDF2@VSHA1@CryptoPP@@@2@@2@V?$DL_EncryptionAlgorithm_Xor@V?$HMAC@VSHA1@CryptoPP@@@CryptoPP@@$0A@@2@@2@V?$DL_PrivateKey_EC@VEC2N@CryptoPP@@@2@@CryptoPP@@MBEABV?$DL_KeyDerivationAlgorithm@UEC2NPoint@CryptoPP@@@2@XZ 0040ab55 f i bench2.obj
 0001:00009b6b       ?GetSymmetricEncryptionAlgorithm@?$DL_ObjectImpl@V?$DL_EncryptorBase@UEC2NPoint@CryptoPP@@@CryptoPP@@U?$DL_CryptoSchemeOptions@U?$ECIES@VEC2N@CryptoPP@@U?$EnumToType@W4CofactorMultiplicationOption@CryptoPP@@$0A@@2@$0A@@CryptoPP@@U?$DL_Keys_EC@VEC2N@CryptoPP@@@2@V?$DL_KeyAgreementAlgorithm_DH@UEC2NPoint@CryptoPP@@U?$EnumToType@W4CofactorMultiplicationOption@CryptoPP@@$0A@@2@@2@V?$DL_KeyDerivationAlgorithm_P1363@UEC2NPoint@CryptoPP@@$0A@V?$P1363_KDF2@VSHA1@CryptoPP@@@2@@2@V?$DL_EncryptionAlgorithm_Xor@V?$HMAC@VSHA1@CryptoPP@@@CryptoPP@@$0A@@2@@2@V?$DL_PublicKey_EC@VEC2N@CryptoPP@@@2@@CryptoPP@@MBEABVDL_SymmetricEncryptionAlgorithm@2@XZ 0040ab6b f i bench2.obj
 0001:00009b6b       ?GetSymmetricEncryptionAlgorithm@?$DL_ObjectImpl@V?$DL_DecryptorBase@UECPPoint@CryptoPP@@@CryptoPP@@U?$DL_CryptoSchemeOptions@U?$ECIES@VECP@CryptoPP@@U?$EnumToType@W4CofactorMultiplicationOption@CryptoPP@@$0A@@2@$0A@@CryptoPP@@U?$DL_Keys_EC@VECP@CryptoPP@@@2@V?$DL_KeyAgreementAlgorithm_DH@UECPPoint@CryptoPP@@U?$EnumToType@W4CofactorMultiplicationOption@CryptoPP@@$0A@@2@@2@V?$DL_KeyDerivationAlgorithm_P1363@UECPPoint@CryptoPP@@$0A@V?$P1363_KDF2@VSHA1@CryptoPP@@@2@@2@V?$DL_EncryptionAlgorithm_Xor@V?$HMAC@VSHA1@CryptoPP@@@CryptoPP@@$0A@@2@@2@V?$DL_PrivateKey_EC@VECP@CryptoPP@@@2@@CryptoPP@@MBEABVDL_SymmetricEncryptionAlgorithm@2@XZ 0040ab6b f i bench2.obj
 0001:00009b6b       ?GetSymmetricEncryptionAlgorithm@?$DL_ObjectImpl@V?$DL_DecryptorBase@UEC2NPoint@CryptoPP@@@CryptoPP@@U?$DL_CryptoSchemeOptions@U?$ECIES@VEC2N@CryptoPP@@U?$EnumToType@W4CofactorMultiplicationOption@CryptoPP@@$0A@@2@$0A@@CryptoPP@@U?$DL_Keys_EC@VEC2N@CryptoPP@@@2@V?$DL_KeyAgreementAlgorithm_DH@UEC2NPoint@CryptoPP@@U?$EnumToType@W4CofactorMultiplicationOption@CryptoPP@@$0A@@2@@2@V?$DL_KeyDerivationAlgorithm_P1363@UEC2NPoint@CryptoPP@@$0A@V?$P1363_KDF2@VSHA1@CryptoPP@@@2@@2@V?$DL_EncryptionAlgorithm_Xor@V?$HMAC@VSHA1@CryptoPP@@@CryptoPP@@$0A@@2@@2@V?$DL_PrivateKey_EC@VEC2N@CryptoPP@@@2@@CryptoPP@@MBEABVDL_SymmetricEncryptionAlgorithm@2@XZ 0040ab6b f i bench2.obj
 0001:00009b6b       ?GetSymmetricEncryptionAlgorithm@?$DL_ObjectImpl@V?$DL_EncryptorBase@UECPPoint@CryptoPP@@@CryptoPP@@U?$DL_CryptoSchemeOptions@U?$ECIES@VECP@CryptoPP@@U?$EnumToType@W4CofactorMultiplicationOption@CryptoPP@@$0A@@2@$0A@@CryptoPP@@U?$DL_Keys_EC@VECP@CryptoPP@@@2@V?$DL_KeyAgreementAlgorithm_DH@UECPPoint@CryptoPP@@U?$EnumToType@W4CofactorMultiplicationOption@CryptoPP@@$0A@@2@@2@V?$DL_KeyDerivationAlgorithm_P1363@UECPPoint@CryptoPP@@$0A@V?$P1363_KDF2@VSHA1@CryptoPP@@@2@@2@V?$DL_EncryptionAlgorithm_Xor@V?$HMAC@VSHA1@CryptoPP@@@CryptoPP@@$0A@@2@@2@V?$DL_PublicKey_EC@VECP@CryptoPP@@@2@@CryptoPP@@MBEABVDL_SymmetricEncryptionAlgorithm@2@XZ 0040ab6b f i bench2.obj
 0001:00009b81       ?Encrypt@?$DL_EncryptorBase@UEC2NPoint@CryptoPP@@@CryptoPP@@UBEXAAVRandomNumberGenerator@2@PBEIPAEABVNameValuePairs@2@@Z 0040ab81 f i bench2.obj
 0001:00009cf1       ?ParameterSupported@?$DL_CryptoSystemBase@VPK_Decryptor@CryptoPP@@V?$DL_PrivateKey@VInteger@CryptoPP@@@2@@CryptoPP@@UBE_NPBD@Z 0040acf1 f i bench2.obj
 0001:00009cf1       ?ParameterSupported@?$DL_CryptoSystemBase@VPK_Encryptor@CryptoPP@@V?$DL_PublicKey@UEC2NPoint@CryptoPP@@@2@@CryptoPP@@UBE_NPBD@Z 0040acf1 f i bench2.obj
 0001:00009cf1       ?ParameterSupported@?$DL_CryptoSystemBase@VPK_Encryptor@CryptoPP@@V?$DL_PublicKey@VInteger@CryptoPP@@@2@@CryptoPP@@UBE_NPBD@Z 0040acf1 f i bench2.obj
 0001:00009cf1       ?ParameterSupported@?$DL_CryptoSystemBase@VPK_Encryptor@CryptoPP@@V?$DL_PublicKey@UECPPoint@CryptoPP@@@2@@CryptoPP@@UBE_NPBD@Z 0040acf1 f i bench2.obj
 0001:00009cf1       ?ParameterSupported@?$DL_CryptoSystemBase@VPK_Decryptor@CryptoPP@@V?$DL_PrivateKey@UECPPoint@CryptoPP@@@2@@CryptoPP@@UBE_NPBD@Z 0040acf1 f i bench2.obj
 0001:00009cf1       ?ParameterSupported@?$DL_CryptoSystemBase@VPK_Decryptor@CryptoPP@@V?$DL_PrivateKey@UEC2NPoint@CryptoPP@@@2@@CryptoPP@@UBE_NPBD@Z 0040acf1 f i bench2.obj
 0001:00009d27       ?BERDecodeElement@?$EcPrecomputation@VECP@CryptoPP@@@CryptoPP@@UBE?AUECPPoint@2@AAVBufferedTransformation@2@@Z 0040ad27 f i bench2.obj
 0001:00009d44       ?DEREncodeElement@?$EcPrecomputation@VECP@CryptoPP@@@CryptoPP@@UBEXAAVBufferedTransformation@2@ABUECPPoint@2@@Z 0040ad44 f i bench2.obj
 0001:00009d59       ??0?$DL_VerifierImpl@U?$DL_SignatureSchemeOptions@V?$DL_SS@U?$DL_Keys_ECDSA@VEC2N@CryptoPP@@@CryptoPP@@V?$DL_Algorithm_ECDSA@VEC2N@CryptoPP@@@2@VDL_SignatureMessageEncodingMethod_DSA@2@VSHA1@2@H@CryptoPP@@U?$DL_Keys_ECDSA@VEC2N@CryptoPP@@@2@V?$DL_Algorithm_ECDSA@VEC2N@CryptoPP@@@2@VDL_SignatureMessageEncodingMethod_DSA@2@VSHA1@2@@CryptoPP@@@CryptoPP@@QAE@XZ 0040ad59 f i bench2.obj
 0001:00009d80       ?NewVerificationAccumulator@?$DL_VerifierImpl@U?$DL_SignatureSchemeOptions@V?$DL_SS@U?$DL_Keys_ECDSA@VEC2N@CryptoPP@@@CryptoPP@@V?$DL_Algorithm_ECDSA@VEC2N@CryptoPP@@@2@VDL_SignatureMessageEncodingMethod_DSA@2@VSHA1@2@H@CryptoPP@@U?$DL_Keys_ECDSA@VEC2N@CryptoPP@@@2@V?$DL_Algorithm_ECDSA@VEC2N@CryptoPP@@@2@VDL_SignatureMessageEncodingMethod_DSA@2@VSHA1@2@@CryptoPP@@@CryptoPP@@UBEPAVPK_MessageAccumulator@2@XZ 0040ad80 f i bench2.obj
 0001:00009db5       ?GetSignatureAlgorithm@?$DL_ObjectImpl@V?$DL_VerifierBase@UEC2NPoint@CryptoPP@@@CryptoPP@@U?$DL_SignatureSchemeOptions@V?$DL_SS@U?$DL_Keys_ECDSA@VEC2N@CryptoPP@@@CryptoPP@@V?$DL_Algorithm_ECDSA@VEC2N@CryptoPP@@@2@VDL_SignatureMessageEncodingMethod_DSA@2@VSHA256@2@H@CryptoPP@@U?$DL_Keys_ECDSA@VEC2N@CryptoPP@@@2@V?$DL_Algorithm_ECDSA@VEC2N@CryptoPP@@@2@VDL_SignatureMessageEncodingMethod_DSA@2@VSHA256@2@@2@V?$DL_PublicKey_EC@VEC2N@CryptoPP@@@2@@CryptoPP@@MBEABV?$DL_ElgamalLikeSignatureAlgorithm@UEC2NPoint@CryptoPP@@@2@XZ 0040adb5 f i bench2.obj
 0001:00009db5       ?GetSignatureAlgorithm@?$DL_ObjectImpl@V?$DL_VerifierBase@UEC2NPoint@CryptoPP@@@CryptoPP@@U?$DL_SignatureSchemeOptions@V?$DL_SS@U?$DL_Keys_ECDSA@VEC2N@CryptoPP@@@CryptoPP@@V?$DL_Algorithm_ECDSA@VEC2N@CryptoPP@@@2@VDL_SignatureMessageEncodingMethod_DSA@2@VSHA1@2@H@CryptoPP@@U?$DL_Keys_ECDSA@VEC2N@CryptoPP@@@2@V?$DL_Algorithm_ECDSA@VEC2N@CryptoPP@@@2@VDL_SignatureMessageEncodingMethod_DSA@2@VSHA1@2@@2@V?$DL_PublicKey_EC@VEC2N@CryptoPP@@@2@@CryptoPP@@MBEABV?$DL_ElgamalLikeSignatureAlgorithm@UEC2NPoint@CryptoPP@@@2@XZ 0040adb5 f i bench2.obj
 0001:00009db5       ?GetSignatureAlgorithm@?$DL_ObjectImpl@V?$DL_SignerBase@UEC2NPoint@CryptoPP@@@CryptoPP@@U?$DL_SignatureSchemeOptions@V?$DL_SS@U?$DL_Keys_ECDSA@VEC2N@CryptoPP@@@CryptoPP@@V?$DL_Algorithm_ECDSA@VEC2N@CryptoPP@@@2@VDL_SignatureMessageEncodingMethod_DSA@2@VSHA256@2@H@CryptoPP@@U?$DL_Keys_ECDSA@VEC2N@CryptoPP@@@2@V?$DL_Algorithm_ECDSA@VEC2N@CryptoPP@@@2@VDL_SignatureMessageEncodingMethod_DSA@2@VSHA256@2@@2@V?$DL_PrivateKey_WithSignaturePairwiseConsistencyTest@V?$DL_PrivateKey_EC@VEC2N@CryptoPP@@@CryptoPP@@U?$ECDSA@VEC2N@CryptoPP@@VSHA256@2@@2@@2@@CryptoPP@@MBEABV?$DL_ElgamalLikeSignatureAlgorithm@UEC2NPoint@CryptoPP@@@2@XZ 0040adb5 f i bench2.obj
 0001:00009db5       ?GetSignatureAlgorithm@?$DL_ObjectImpl@V?$DL_SignerBase@UEC2NPoint@CryptoPP@@@CryptoPP@@U?$DL_SignatureSchemeOptions@V?$DL_SS@U?$DL_Keys_ECDSA@VEC2N@CryptoPP@@@CryptoPP@@V?$DL_Algorithm_ECDSA@VEC2N@CryptoPP@@@2@VDL_SignatureMessageEncodingMethod_DSA@2@VSHA1@2@H@CryptoPP@@U?$DL_Keys_ECDSA@VEC2N@CryptoPP@@@2@V?$DL_Algorithm_ECDSA@VEC2N@CryptoPP@@@2@VDL_SignatureMessageEncodingMethod_DSA@2@VSHA1@2@@2@V?$DL_PrivateKey_WithSignaturePairwiseConsistencyTest@V?$DL_PrivateKey_EC@VEC2N@CryptoPP@@@CryptoPP@@U?$ECDSA@VEC2N@CryptoPP@@VSHA256@2@@2@@2@@CryptoPP@@MBEABV?$DL_ElgamalLikeSignatureAlgorithm@UEC2NPoint@CryptoPP@@@2@XZ 0040adb5 f i bench2.obj
 0001:00009dcb       ?GetMessageEncodingInterface@?$DL_ObjectImpl@V?$DL_VerifierBase@VInteger@CryptoPP@@@CryptoPP@@U?$DL_SignatureSchemeOptions@V?$DL_SS@UDL_SignatureKeys_GFP@CryptoPP@@V?$DL_Algorithm_GDSA@VInteger@CryptoPP@@@2@VDL_SignatureMessageEncodingMethod_DSA@2@VSHA1@2@H@CryptoPP@@UDL_SignatureKeys_GFP@2@V?$DL_Algorithm_GDSA@VInteger@CryptoPP@@@2@VDL_SignatureMessageEncodingMethod_DSA@2@VSHA1@2@@2@V?$DL_PublicKey_GFP@VDL_GroupParameters_GFP@CryptoPP@@@2@@CryptoPP@@MBEABVPK_SignatureMessageEncodingMethod@2@XZ 0040adcb f i bench2.obj
 0001:00009dcb       ?GetMessageEncodingInterface@?$DL_ObjectImpl@V?$DL_SignerBase@VInteger@CryptoPP@@@CryptoPP@@U?$DL_SignatureSchemeOptions@UDSA@CryptoPP@@UDL_Keys_DSA@2@V?$DL_Algorithm_GDSA@VInteger@CryptoPP@@@2@VDL_SignatureMessageEncodingMethod_DSA@2@VSHA1@2@@2@V?$DL_PrivateKey_WithSignaturePairwiseConsistencyTest@V?$DL_PrivateKey_GFP@VDL_GroupParameters_DSA@CryptoPP@@@CryptoPP@@UDSA@2@@2@@CryptoPP@@MBEABVPK_SignatureMessageEncodingMethod@2@XZ 0040adcb f i bench2.obj
 0001:00009dcb       ?GetMessageEncodingInterface@?$DL_ObjectImpl@V?$DL_VerifierBase@UECPPoint@CryptoPP@@@CryptoPP@@U?$DL_SignatureSchemeOptions@V?$DL_SS@U?$DL_Keys_ECDSA@VECP@CryptoPP@@@CryptoPP@@V?$DL_Algorithm_ECDSA@VECP@CryptoPP@@@2@VDL_SignatureMessageEncodingMethod_DSA@2@VSHA256@2@H@CryptoPP@@U?$DL_Keys_ECDSA@VECP@CryptoPP@@@2@V?$DL_Algorithm_ECDSA@VECP@CryptoPP@@@2@VDL_SignatureMessageEncodingMethod_DSA@2@VSHA256@2@@2@V?$DL_PublicKey_EC@VECP@CryptoPP@@@2@@CryptoPP@@MBEABVPK_SignatureMessageEncodingMethod@2@XZ 0040adcb f i bench2.obj
 0001:00009dcb       ?GetMessageEncodingInterface@?$DL_ObjectImpl@V?$DL_SignerBase@UECPPoint@CryptoPP@@@CryptoPP@@U?$DL_SignatureSchemeOptions@V?$DL_SS@U?$DL_Keys_ECDSA@VECP@CryptoPP@@@CryptoPP@@V?$DL_Algorithm_ECDSA@VECP@CryptoPP@@@2@VDL_SignatureMessageEncodingMethod_DSA@2@VSHA1@2@H@CryptoPP@@U?$DL_Keys_ECDSA@VECP@CryptoPP@@@2@V?$DL_Algorithm_ECDSA@VECP@CryptoPP@@@2@VDL_SignatureMessageEncodingMethod_DSA@2@VSHA1@2@@2@V?$DL_PrivateKey_WithSignaturePairwiseConsistencyTest@V?$DL_PrivateKey_EC@VECP@CryptoPP@@@CryptoPP@@U?$ECDSA@VECP@CryptoPP@@VSHA256@2@@2@@2@@CryptoPP@@MBEABVPK_SignatureMessageEncodingMethod@2@XZ 0040adcb f i bench2.obj
 0001:00009dcb       ?GetMessageEncodingInterface@?$DL_ObjectImpl@V?$DL_VerifierBase@UECPPoint@CryptoPP@@@CryptoPP@@U?$DL_SignatureSchemeOptions@V?$DL_SS@U?$DL_Keys_ECDSA@VECP@CryptoPP@@@CryptoPP@@V?$DL_Algorithm_ECDSA@VECP@CryptoPP@@@2@VDL_SignatureMessageEncodingMethod_DSA@2@VSHA1@2@H@CryptoPP@@U?$DL_Keys_ECDSA@VECP@CryptoPP@@@2@V?$DL_Algorithm_ECDSA@VECP@CryptoPP@@@2@VDL_SignatureMessageEncodingMethod_DSA@2@VSHA1@2@@2@V?$DL_PublicKey_EC@VECP@CryptoPP@@@2@@CryptoPP@@MBEABVPK_SignatureMessageEncodingMethod@2@XZ 0040adcb f i bench2.obj
 0001:00009dcb       ?GetMessageEncodingInterface@?$DL_ObjectImpl@V?$DL_SignerBase@VInteger@CryptoPP@@@CryptoPP@@U?$DL_SignatureSchemeOptions@V?$DL_SS@UDL_SignatureKeys_LUC@CryptoPP@@VDL_Algorithm_LUC_HMP@2@VDL_SignatureMessageEncodingMethod_DSA@2@VSHA1@2@H@CryptoPP@@UDL_SignatureKeys_LUC@2@VDL_Algorithm_LUC_HMP@2@VDL_SignatureMessageEncodingMethod_DSA@2@VSHA1@2@@2@V?$DL_PrivateKey_GFP@VDL_GroupParameters_LUC@CryptoPP@@@2@@CryptoPP@@MBEABVPK_SignatureMessageEncodingMethod@2@XZ 0040adcb f i bench2.obj
 0001:00009dcb       ?GetMessageEncodingInterface@?$DL_ObjectImpl@V?$DL_SignerBase@UEC2NPoint@CryptoPP@@@CryptoPP@@U?$DL_SignatureSchemeOptions@V?$DL_SS@U?$DL_Keys_ECDSA@VEC2N@CryptoPP@@@CryptoPP@@V?$DL_Algorithm_ECDSA@VEC2N@CryptoPP@@@2@VDL_SignatureMessageEncodingMethod_DSA@2@VSHA1@2@H@CryptoPP@@U?$DL_Keys_ECDSA@VEC2N@CryptoPP@@@2@V?$DL_Algorithm_ECDSA@VEC2N@CryptoPP@@@2@VDL_SignatureMessageEncodingMethod_DSA@2@VSHA1@2@@2@V?$DL_PrivateKey_WithSignaturePairwiseConsistencyTest@V?$DL_PrivateKey_EC@VEC2N@CryptoPP@@@CryptoPP@@U?$ECDSA@VEC2N@CryptoPP@@VSHA256@2@@2@@2@@CryptoPP@@MBEABVPK_SignatureMessageEncodingMethod@2@XZ 0040adcb f i bench2.obj
 0001:00009dcb       ?GetMessageEncodingInterface@?$DL_ObjectImpl@V?$DL_VerifierBase@UEC2NPoint@CryptoPP@@@CryptoPP@@U?$DL_SignatureSchemeOptions@V?$DL_SS@U?$DL_Keys_ECDSA@VEC2N@CryptoPP@@@CryptoPP@@V?$DL_Algorithm_ECDSA@VEC2N@CryptoPP@@@2@VDL_SignatureMessageEncodingMethod_DSA@2@VSHA1@2@H@CryptoPP@@U?$DL_Keys_ECDSA@VEC2N@CryptoPP@@@2@V?$DL_Algorithm_ECDSA@VEC2N@CryptoPP@@@2@VDL_SignatureMessageEncodingMethod_DSA@2@VSHA1@2@@2@V?$DL_PublicKey_EC@VEC2N@CryptoPP@@@2@@CryptoPP@@MBEABVPK_SignatureMessageEncodingMethod@2@XZ 0040adcb f i bench2.obj
 0001:00009dcb       ?GetMessageEncodingInterface@?$DL_ObjectImpl@V?$DL_VerifierBase@UEC2NPoint@CryptoPP@@@CryptoPP@@U?$DL_SignatureSchemeOptions@V?$DL_SS@U?$DL_Keys_ECDSA@VEC2N@CryptoPP@@@CryptoPP@@V?$DL_Algorithm_ECDSA@VEC2N@CryptoPP@@@2@VDL_SignatureMessageEncodingMethod_DSA@2@VSHA256@2@H@CryptoPP@@U?$DL_Keys_ECDSA@VEC2N@CryptoPP@@@2@V?$DL_Algorithm_ECDSA@VEC2N@CryptoPP@@@2@VDL_SignatureMessageEncodingMethod_DSA@2@VSHA256@2@@2@V?$DL_PublicKey_EC@VEC2N@CryptoPP@@@2@@CryptoPP@@MBEABVPK_SignatureMessageEncodingMethod@2@XZ 0040adcb f i bench2.obj
 0001:00009dcb       ?GetMessageEncodingInterface@?$DL_ObjectImpl@V?$DL_VerifierBase@VInteger@CryptoPP@@@CryptoPP@@U?$DL_SignatureSchemeOptions@V?$DL_SS@UDL_SignatureKeys_LUC@CryptoPP@@VDL_Algorithm_LUC_HMP@2@VDL_SignatureMessageEncodingMethod_DSA@2@VSHA1@2@H@CryptoPP@@UDL_SignatureKeys_LUC@2@VDL_Algorithm_LUC_HMP@2@VDL_SignatureMessageEncodingMethod_DSA@2@VSHA1@2@@2@V?$DL_PublicKey_GFP@VDL_GroupParameters_LUC@CryptoPP@@@2@@CryptoPP@@MBEABVPK_SignatureMessageEncodingMethod@2@XZ 0040adcb f i bench2.obj
 0001:00009dcb       ?GetMessageEncodingInterface@?$DL_ObjectImpl@V?$DL_SignerBase@VInteger@CryptoPP@@@CryptoPP@@U?$DL_SignatureSchemeOptions@V?$DL_SS@UDL_SignatureKeys_GFP@CryptoPP@@V?$DL_Algorithm_GDSA@VInteger@CryptoPP@@@2@VDL_SignatureMessageEncodingMethod_DSA@2@VSHA1@2@H@CryptoPP@@UDL_SignatureKeys_GFP@2@V?$DL_Algorithm_GDSA@VInteger@CryptoPP@@@2@VDL_SignatureMessageEncodingMethod_DSA@2@VSHA1@2@@2@V?$DL_PrivateKey_GFP@VDL_GroupParameters_GFP@CryptoPP@@@2@@CryptoPP@@MBEABVPK_SignatureMessageEncodingMethod@2@XZ 0040adcb f i bench2.obj
 0001:00009dcb       ?GetMessageEncodingInterface@?$DL_ObjectImpl@V?$DL_VerifierBase@VInteger@CryptoPP@@@CryptoPP@@U?$DL_SignatureSchemeOptions@UDSA@CryptoPP@@UDL_Keys_DSA@2@V?$DL_Algorithm_GDSA@VInteger@CryptoPP@@@2@VDL_SignatureMessageEncodingMethod_DSA@2@VSHA1@2@@2@V?$DL_PublicKey_GFP@VDL_GroupParameters_DSA@CryptoPP@@@2@@CryptoPP@@MBEABVPK_SignatureMessageEncodingMethod@2@XZ 0040adcb f i bench2.obj
 0001:00009dcb       ?GetMessageEncodingInterface@?$DL_ObjectImpl@V?$DL_SignerBase@UEC2NPoint@CryptoPP@@@CryptoPP@@U?$DL_SignatureSchemeOptions@V?$DL_SS@U?$DL_Keys_ECDSA@VEC2N@CryptoPP@@@CryptoPP@@V?$DL_Algorithm_ECDSA@VEC2N@CryptoPP@@@2@VDL_SignatureMessageEncodingMethod_DSA@2@VSHA256@2@H@CryptoPP@@U?$DL_Keys_ECDSA@VEC2N@CryptoPP@@@2@V?$DL_Algorithm_ECDSA@VEC2N@CryptoPP@@@2@VDL_SignatureMessageEncodingMethod_DSA@2@VSHA256@2@@2@V?$DL_PrivateKey_WithSignaturePairwiseConsistencyTest@V?$DL_PrivateKey_EC@VEC2N@CryptoPP@@@CryptoPP@@U?$ECDSA@VEC2N@CryptoPP@@VSHA256@2@@2@@2@@CryptoPP@@MBEABVPK_SignatureMessageEncodingMethod@2@XZ 0040adcb f i bench2.obj
 0001:00009dcb       ?GetMessageEncodingInterface@?$DL_ObjectImpl@V?$DL_SignerBase@UECPPoint@CryptoPP@@@CryptoPP@@U?$DL_SignatureSchemeOptions@V?$DL_SS@U?$DL_Keys_ECDSA@VECP@CryptoPP@@@CryptoPP@@V?$DL_Algorithm_ECDSA@VECP@CryptoPP@@@2@VDL_SignatureMessageEncodingMethod_DSA@2@VSHA256@2@H@CryptoPP@@U?$DL_Keys_ECDSA@VECP@CryptoPP@@@2@V?$DL_Algorithm_ECDSA@VECP@CryptoPP@@@2@VDL_SignatureMessageEncodingMethod_DSA@2@VSHA256@2@@2@V?$DL_PrivateKey_WithSignaturePairwiseConsistencyTest@V?$DL_PrivateKey_EC@VECP@CryptoPP@@@CryptoPP@@U?$ECDSA@VECP@CryptoPP@@VSHA256@2@@2@@2@@CryptoPP@@MBEABVPK_SignatureMessageEncodingMethod@2@XZ 0040adcb f i bench2.obj
 0001:00009de1       ?VerifyAndRestart@?$DL_VerifierBase@UEC2NPoint@CryptoPP@@@CryptoPP@@UBE_NAAVPK_MessageAccumulator@2@@Z 0040ade1 f i bench2.obj
 0001:00009f29       ?RecoverAndRestart@?$DL_VerifierBase@UEC2NPoint@CryptoPP@@@CryptoPP@@UBE?AUDecodingResult@2@PAEAAVPK_MessageAccumulator@2@@Z 0040af29 f i bench2.obj
 0001:0000a11c       ?SignatureLength@?$DL_SignatureSchemeBase@VPK_Verifier@CryptoPP@@V?$DL_PublicKey@UEC2NPoint@CryptoPP@@@2@@CryptoPP@@UBEIXZ 0040b11c f i bench2.obj
 0001:0000a11c       ?SignatureLength@?$DL_SignatureSchemeBase@VPK_Verifier@CryptoPP@@V?$DL_PublicKey@UECPPoint@CryptoPP@@@2@@CryptoPP@@UBEIXZ 0040b11c f i bench2.obj
 0001:0000a11c       ?SignatureLength@?$DL_SignatureSchemeBase@VPK_Verifier@CryptoPP@@V?$DL_PublicKey@VInteger@CryptoPP@@@2@@CryptoPP@@UBEIXZ 0040b11c f i bench2.obj
 0001:0000a16f       ?MaxRecoverableLength@?$DL_SignatureSchemeBase@VPK_Verifier@CryptoPP@@V?$DL_PublicKey@VInteger@CryptoPP@@@2@@CryptoPP@@UBEIXZ 0040b16f f i bench2.obj
 0001:0000a16f       ?MaxRecoverableLength@?$DL_SignatureSchemeBase@VPK_Verifier@CryptoPP@@V?$DL_PublicKey@UECPPoint@CryptoPP@@@2@@CryptoPP@@UBEIXZ 0040b16f f i bench2.obj
 0001:0000a16f       ?MaxRecoverableLength@?$DL_SignatureSchemeBase@VPK_Verifier@CryptoPP@@V?$DL_PublicKey@UEC2NPoint@CryptoPP@@@2@@CryptoPP@@UBEIXZ 0040b16f f i bench2.obj
 0001:0000a1a3       ??0ECPPoint@CryptoPP@@QAE@ABU01@@Z 0040b1a3 f i bench2.obj
 0001:0000a1ea       ??_E?$DH_Domain@V?$DL_GroupParameters_EC@VEC2N@CryptoPP@@@CryptoPP@@U?$EnumToType@W4CofactorMultiplicationOption@CryptoPP@@$01@2@@CryptoPP@@UAEPAXI@Z 0040b1ea f i bench2.obj
 0001:0000a1ea       ??_G?$DH_Domain@V?$DL_GroupParameters_EC@VEC2N@CryptoPP@@@CryptoPP@@U?$EnumToType@W4CofactorMultiplicationOption@CryptoPP@@$01@2@@CryptoPP@@UAEPAXI@Z 0040b1ea f i bench2.obj
 0001:0000a206       ??0?$DL_GroupParameters_EC@VEC2N@CryptoPP@@@CryptoPP@@QAE@ABV01@@Z 0040b206 f i bench2.obj
 0001:0000a2c7       ??_E?$MQV_Domain@V?$DL_GroupParameters_EC@VEC2N@CryptoPP@@@CryptoPP@@U?$EnumToType@W4CofactorMultiplicationOption@CryptoPP@@$01@2@@CryptoPP@@UAEPAXI@Z 0040b2c7 f i bench2.obj
 0001:0000a2c7       ??_G?$MQV_Domain@V?$DL_GroupParameters_EC@VEC2N@CryptoPP@@@CryptoPP@@U?$EnumToType@W4CofactorMultiplicationOption@CryptoPP@@$01@2@@CryptoPP@@UAEPAXI@Z 0040b2c7 f i bench2.obj
 0001:0000a2e3       ??_ESHA1@CryptoPP@@UAEPAXI@Z 0040b2e3 f i bench2.obj
 0001:0000a2e3       ??_GSHA1@CryptoPP@@UAEPAXI@Z 0040b2e3 f i bench2.obj
 0001:0000a2ff       ??1PolynomialMod2@CryptoPP@@QAE@XZ 0040b2ff f i bench2.obj
 0001:0000a304       ??_E?$DL_EncryptorImpl@U?$DL_CryptoSchemeOptions@U?$ECIES@VECP@CryptoPP@@U?$EnumToType@W4CofactorMultiplicationOption@CryptoPP@@$0A@@2@$0A@@CryptoPP@@U?$DL_Keys_EC@VECP@CryptoPP@@@2@V?$DL_KeyAgreementAlgorithm_DH@UECPPoint@CryptoPP@@U?$EnumToType@W4CofactorMultiplicationOption@CryptoPP@@$0A@@2@@2@V?$DL_KeyDerivationAlgorithm_P1363@UECPPoint@CryptoPP@@$0A@V?$P1363_KDF2@VSHA1@CryptoPP@@@2@@2@V?$DL_EncryptionAlgorithm_Xor@V?$HMAC@VSHA1@CryptoPP@@@CryptoPP@@$0A@@2@@CryptoPP@@@CryptoPP@@UAEPAXI@Z 0040b304 f i bench2.obj
 0001:0000a304       ??_G?$DL_EncryptorImpl@U?$DL_CryptoSchemeOptions@U?$ECIES@VECP@CryptoPP@@U?$EnumToType@W4CofactorMultiplicationOption@CryptoPP@@$0A@@2@$0A@@CryptoPP@@U?$DL_Keys_EC@VECP@CryptoPP@@@2@V?$DL_KeyAgreementAlgorithm_DH@UECPPoint@CryptoPP@@U?$EnumToType@W4CofactorMultiplicationOption@CryptoPP@@$0A@@2@@2@V?$DL_KeyDerivationAlgorithm_P1363@UECPPoint@CryptoPP@@$0A@V?$P1363_KDF2@VSHA1@CryptoPP@@@2@@2@V?$DL_EncryptionAlgorithm_Xor@V?$HMAC@VSHA1@CryptoPP@@@CryptoPP@@$0A@@2@@CryptoPP@@@CryptoPP@@UAEPAXI@Z 0040b304 f i bench2.obj
 0001:0000a320       ??_G?$DL_SignerImpl@U?$DL_SignatureSchemeOptions@V?$DL_SS@U?$DL_Keys_ECDSA@VECP@CryptoPP@@@CryptoPP@@V?$DL_Algorithm_ECDSA@VECP@CryptoPP@@@2@VDL_SignatureMessageEncodingMethod_DSA@2@VSHA1@2@H@CryptoPP@@U?$DL_Keys_ECDSA@VECP@CryptoPP@@@2@V?$DL_Algorithm_ECDSA@VECP@CryptoPP@@@2@VDL_SignatureMessageEncodingMethod_DSA@2@VSHA1@2@@CryptoPP@@@CryptoPP@@UAEPAXI@Z 0040b320 f i bench2.obj
 0001:0000a320       ??_E?$DL_SignerImpl@U?$DL_SignatureSchemeOptions@V?$DL_SS@U?$DL_Keys_ECDSA@VECP@CryptoPP@@@CryptoPP@@V?$DL_Algorithm_ECDSA@VECP@CryptoPP@@@2@VDL_SignatureMessageEncodingMethod_DSA@2@VSHA1@2@H@CryptoPP@@U?$DL_Keys_ECDSA@VECP@CryptoPP@@@2@V?$DL_Algorithm_ECDSA@VECP@CryptoPP@@@2@VDL_SignatureMessageEncodingMethod_DSA@2@VSHA1@2@@CryptoPP@@@CryptoPP@@UAEPAXI@Z 0040b320 f i bench2.obj
 0001:0000a33c       ??_E?$PK_MessageAccumulatorImpl@VSHA1@CryptoPP@@@CryptoPP@@UAEPAXI@Z 0040b33c f i bench2.obj
 0001:0000a33c       ??_G?$PK_MessageAccumulatorImpl@VSHA1@CryptoPP@@@CryptoPP@@UAEPAXI@Z 0040b33c f i bench2.obj
 0001:0000a358       ??_E?$DL_VerifierImpl@U?$DL_SignatureSchemeOptions@V?$DL_SS@U?$DL_Keys_ECDSA@VECP@CryptoPP@@@CryptoPP@@V?$DL_Algorithm_ECDSA@VECP@CryptoPP@@@2@VDL_SignatureMessageEncodingMethod_DSA@2@VSHA1@2@H@CryptoPP@@U?$DL_Keys_ECDSA@VECP@CryptoPP@@@2@V?$DL_Algorithm_ECDSA@VECP@CryptoPP@@@2@VDL_SignatureMessageEncodingMethod_DSA@2@VSHA1@2@@CryptoPP@@@CryptoPP@@UAEPAXI@Z 0040b358 f i bench2.obj
 0001:0000a358       ??_G?$DL_VerifierImpl@U?$DL_SignatureSchemeOptions@V?$DL_SS@U?$DL_Keys_ECDSA@VECP@CryptoPP@@@CryptoPP@@V?$DL_Algorithm_ECDSA@VECP@CryptoPP@@@2@VDL_SignatureMessageEncodingMethod_DSA@2@VSHA1@2@H@CryptoPP@@U?$DL_Keys_ECDSA@VECP@CryptoPP@@@2@V?$DL_Algorithm_ECDSA@VECP@CryptoPP@@@2@VDL_SignatureMessageEncodingMethod_DSA@2@VSHA1@2@@CryptoPP@@@CryptoPP@@UAEPAXI@Z 0040b358 f i bench2.obj
 0001:0000a374       ??0?$DL_GroupParametersImpl@V?$EcPrecomputation@VECP@CryptoPP@@@CryptoPP@@V?$DL_FixedBasePrecomputationImpl@UECPPoint@CryptoPP@@@2@V?$DL_GroupParameters@UECPPoint@CryptoPP@@@2@@CryptoPP@@QAE@ABV01@@Z 0040b374 f i bench2.obj
 0001:0000a3fe       ??0EC2N@CryptoPP@@QAE@XZ   0040b3fe f i bench2.obj
 0001:0000a468       ??_G?$DL_EncryptorImpl@U?$DL_CryptoSchemeOptions@U?$ECIES@VEC2N@CryptoPP@@U?$EnumToType@W4CofactorMultiplicationOption@CryptoPP@@$0A@@2@$0A@@CryptoPP@@U?$DL_Keys_EC@VEC2N@CryptoPP@@@2@V?$DL_KeyAgreementAlgorithm_DH@UEC2NPoint@CryptoPP@@U?$EnumToType@W4CofactorMultiplicationOption@CryptoPP@@$0A@@2@@2@V?$DL_KeyDerivationAlgorithm_P1363@UEC2NPoint@CryptoPP@@$0A@V?$P1363_KDF2@VSHA1@CryptoPP@@@2@@2@V?$DL_EncryptionAlgorithm_Xor@V?$HMAC@VSHA1@CryptoPP@@@CryptoPP@@$0A@@2@@CryptoPP@@@CryptoPP@@UAEPAXI@Z 0040b468 f i bench2.obj
 0001:0000a468       ??_E?$DL_EncryptorImpl@U?$DL_CryptoSchemeOptions@U?$ECIES@VEC2N@CryptoPP@@U?$EnumToType@W4CofactorMultiplicationOption@CryptoPP@@$0A@@2@$0A@@CryptoPP@@U?$DL_Keys_EC@VEC2N@CryptoPP@@@2@V?$DL_KeyAgreementAlgorithm_DH@UEC2NPoint@CryptoPP@@U?$EnumToType@W4CofactorMultiplicationOption@CryptoPP@@$0A@@2@@2@V?$DL_KeyDerivationAlgorithm_P1363@UEC2NPoint@CryptoPP@@$0A@V?$P1363_KDF2@VSHA1@CryptoPP@@@2@@2@V?$DL_EncryptionAlgorithm_Xor@V?$HMAC@VSHA1@CryptoPP@@@CryptoPP@@$0A@@2@@CryptoPP@@@CryptoPP@@UAEPAXI@Z 0040b468 f i bench2.obj
 0001:0000a484       ??_E?$DL_SignerImpl@U?$DL_SignatureSchemeOptions@V?$DL_SS@U?$DL_Keys_ECDSA@VEC2N@CryptoPP@@@CryptoPP@@V?$DL_Algorithm_ECDSA@VEC2N@CryptoPP@@@2@VDL_SignatureMessageEncodingMethod_DSA@2@VSHA1@2@H@CryptoPP@@U?$DL_Keys_ECDSA@VEC2N@CryptoPP@@@2@V?$DL_Algorithm_ECDSA@VEC2N@CryptoPP@@@2@VDL_SignatureMessageEncodingMethod_DSA@2@VSHA1@2@@CryptoPP@@@CryptoPP@@UAEPAXI@Z 0040b484 f i bench2.obj
 0001:0000a484       ??_G?$DL_SignerImpl@U?$DL_SignatureSchemeOptions@V?$DL_SS@U?$DL_Keys_ECDSA@VEC2N@CryptoPP@@@CryptoPP@@V?$DL_Algorithm_ECDSA@VEC2N@CryptoPP@@@2@VDL_SignatureMessageEncodingMethod_DSA@2@VSHA1@2@H@CryptoPP@@U?$DL_Keys_ECDSA@VEC2N@CryptoPP@@@2@V?$DL_Algorithm_ECDSA@VEC2N@CryptoPP@@@2@VDL_SignatureMessageEncodingMethod_DSA@2@VSHA1@2@@CryptoPP@@@CryptoPP@@UAEPAXI@Z 0040b484 f i bench2.obj
 0001:0000a4a0       ??_G?$DL_VerifierImpl@U?$DL_SignatureSchemeOptions@V?$DL_SS@U?$DL_Keys_ECDSA@VEC2N@CryptoPP@@@CryptoPP@@V?$DL_Algorithm_ECDSA@VEC2N@CryptoPP@@@2@VDL_SignatureMessageEncodingMethod_DSA@2@VSHA1@2@H@CryptoPP@@U?$DL_Keys_ECDSA@VEC2N@CryptoPP@@@2@V?$DL_Algorithm_ECDSA@VEC2N@CryptoPP@@@2@VDL_SignatureMessageEncodingMethod_DSA@2@VSHA1@2@@CryptoPP@@@CryptoPP@@UAEPAXI@Z 0040b4a0 f i bench2.obj
 0001:0000a4a0       ??_E?$DL_VerifierImpl@U?$DL_SignatureSchemeOptions@V?$DL_SS@U?$DL_Keys_ECDSA@VEC2N@CryptoPP@@@CryptoPP@@V?$DL_Algorithm_ECDSA@VEC2N@CryptoPP@@@2@VDL_SignatureMessageEncodingMethod_DSA@2@VSHA1@2@H@CryptoPP@@U?$DL_Keys_ECDSA@VEC2N@CryptoPP@@@2@V?$DL_Algorithm_ECDSA@VEC2N@CryptoPP@@@2@VDL_SignatureMessageEncodingMethod_DSA@2@VSHA1@2@@CryptoPP@@@CryptoPP@@UAEPAXI@Z 0040b4a0 f i bench2.obj
 0001:0000a4bc       ??0?$DL_GroupParametersImpl@V?$EcPrecomputation@VEC2N@CryptoPP@@@CryptoPP@@V?$DL_FixedBasePrecomputationImpl@UEC2NPoint@CryptoPP@@@2@V?$DL_GroupParameters@UEC2NPoint@CryptoPP@@@2@@CryptoPP@@QAE@ABV01@@Z 0040b4bc f i bench2.obj
 0001:0000a554       ??_EEC2N@CryptoPP@@UAEPAXI@Z 0040b554 f i bench2.obj
 0001:0000a554       ??_GEC2N@CryptoPP@@UAEPAXI@Z 0040b554 f i bench2.obj
 0001:0000a570       ??1?$value_ptr@VECP@CryptoPP@@@CryptoPP@@QAE@XZ 0040b570 f i bench2.obj
 0001:0000a570       ??1?$clonable_ptr@VGF2NP@CryptoPP@@@CryptoPP@@QAE@XZ 0040b570 f i bench2.obj
 0001:0000a575       ??1EC2NPoint@CryptoPP@@QAE@XZ 0040b575 f i bench2.obj
 0001:0000a5ab       ??1EC2N@CryptoPP@@UAE@XZ   0040b5ab f i bench2.obj
 0001:0000a5fc       ??1SHA1@CryptoPP@@UAE@XZ   0040b5fc f i bench2.obj
 0001:0000a601       ??1?$IteratedHashWithStaticTransform@IU?$EnumToType@W4ByteOrder@CryptoPP@@$00@CryptoPP@@$0EA@$0BE@VSHA1@2@$0A@$0A@@CryptoPP@@UAE@XZ 0040b601 f i bench2.obj
 0001:0000a63a       ?BERDecodeElement@?$EcPrecomputation@VEC2N@CryptoPP@@@CryptoPP@@UBE?AUEC2NPoint@2@AAVBufferedTransformation@2@@Z 0040b63a f i bench2.obj
 0001:0000a657       ??1?$ClonableImpl@VSHA1@CryptoPP@@V?$AlgorithmImpl@V?$IteratedHash@IU?$EnumToType@W4ByteOrder@CryptoPP@@$00@CryptoPP@@$0EA@VHashTransformation@2@@CryptoPP@@VSHA1@2@@2@@CryptoPP@@UAE@XZ 0040b657 f i bench2.obj
 0001:0000a67d       ?DEREncodeElement@?$EcPrecomputation@VEC2N@CryptoPP@@@CryptoPP@@UBEXAAVBufferedTransformation@2@ABUEC2NPoint@2@@Z 0040b67d f i bench2.obj
 0001:0000a692       ??0?$DL_ObjectImplBase@V?$DL_EncryptorBase@UECPPoint@CryptoPP@@@CryptoPP@@U?$DL_CryptoSchemeOptions@U?$ECIES@VECP@CryptoPP@@U?$EnumToType@W4CofactorMultiplicationOption@CryptoPP@@$0A@@2@$0A@@CryptoPP@@U?$DL_Keys_EC@VECP@CryptoPP@@@2@V?$DL_KeyAgreementAlgorithm_DH@UECPPoint@CryptoPP@@U?$EnumToType@W4CofactorMultiplicationOption@CryptoPP@@$0A@@2@@2@V?$DL_KeyDerivationAlgorithm_P1363@UECPPoint@CryptoPP@@$0A@V?$P1363_KDF2@VSHA1@CryptoPP@@@2@@2@V?$DL_EncryptionAlgorithm_Xor@V?$HMAC@VSHA1@CryptoPP@@@CryptoPP@@$0A@@2@@2@V?$DL_PublicKey_EC@VECP@CryptoPP@@@2@@CryptoPP@@QAE@XZ 0040b692 f i bench2.obj
 0001:0000a6d6       ??0?$DL_ObjectImplBase@V?$DL_SignerBase@UECPPoint@CryptoPP@@@CryptoPP@@U?$DL_SignatureSchemeOptions@V?$DL_SS@U?$DL_Keys_ECDSA@VECP@CryptoPP@@@CryptoPP@@V?$DL_Algorithm_ECDSA@VECP@CryptoPP@@@2@VDL_SignatureMessageEncodingMethod_DSA@2@VSHA1@2@H@CryptoPP@@U?$DL_Keys_ECDSA@VECP@CryptoPP@@@2@V?$DL_Algorithm_ECDSA@VECP@CryptoPP@@@2@VDL_SignatureMessageEncodingMethod_DSA@2@VSHA1@2@@2@V?$DL_PrivateKey_WithSignaturePairwiseConsistencyTest@V?$DL_PrivateKey_EC@VECP@CryptoPP@@@CryptoPP@@U?$ECDSA@VECP@CryptoPP@@VSHA256@2@@2@@2@@CryptoPP@@QAE@XZ 0040b6d6 f i bench2.obj
 0001:0000a715       ??1?$PK_MessageAccumulatorImpl@VSHA1@CryptoPP@@@CryptoPP@@UAE@XZ 0040b715 f i bench2.obj
 0001:0000a76a       ??0?$DL_ObjectImplBase@V?$DL_VerifierBase@UECPPoint@CryptoPP@@@CryptoPP@@U?$DL_SignatureSchemeOptions@V?$DL_SS@U?$DL_Keys_ECDSA@VECP@CryptoPP@@@CryptoPP@@V?$DL_Algorithm_ECDSA@VECP@CryptoPP@@@2@VDL_SignatureMessageEncodingMethod_DSA@2@VSHA1@2@H@CryptoPP@@U?$DL_Keys_ECDSA@VECP@CryptoPP@@@2@V?$DL_Algorithm_ECDSA@VECP@CryptoPP@@@2@VDL_SignatureMessageEncodingMethod_DSA@2@VSHA1@2@@2@V?$DL_PublicKey_EC@VECP@CryptoPP@@@2@@CryptoPP@@QAE@XZ 0040b76a f i bench2.obj
 0001:0000a7ae       ??0?$DL_GroupParameters@UECPPoint@CryptoPP@@@CryptoPP@@QAE@ABV01@@Z 0040b7ae f i bench2.obj
 0001:0000a800       ??0?$EcPrecomputation@VECP@CryptoPP@@@CryptoPP@@QAE@ABV01@@Z 0040b800 f i bench2.obj
 0001:0000a84f       ?ConvertOut@?$DL_GroupPrecomputation@UECPPoint@CryptoPP@@@CryptoPP@@UBE?AUECPPoint@2@ABU32@@Z 0040b84f f i bench2.obj
 0001:0000a84f       ?ConvertIn@?$DL_GroupPrecomputation@UECPPoint@CryptoPP@@@CryptoPP@@UBE?AUECPPoint@2@ABU32@@Z 0040b84f f i bench2.obj
 0001:0000a869       ??0?$DL_FixedBasePrecomputationImpl@UECPPoint@CryptoPP@@@CryptoPP@@QAE@ABV01@@Z 0040b869 f i bench2.obj
 0001:0000a8ce       ?IsInitialized@?$DL_FixedBasePrecomputationImpl@UECPPoint@CryptoPP@@@CryptoPP@@UBE_NXZ 0040b8ce f i bench2.obj
 0001:0000a8ee       ?GetBase@?$DL_FixedBasePrecomputationImpl@UECPPoint@CryptoPP@@@CryptoPP@@UBEABUECPPoint@2@ABV?$DL_GroupPrecomputation@UECPPoint@CryptoPP@@@2@@Z 0040b8ee f i bench2.obj
 0001:0000a907       ??0?$DL_ObjectImplBase@V?$DL_EncryptorBase@UEC2NPoint@CryptoPP@@@CryptoPP@@U?$DL_CryptoSchemeOptions@U?$ECIES@VEC2N@CryptoPP@@U?$EnumToType@W4CofactorMultiplicationOption@CryptoPP@@$0A@@2@$0A@@CryptoPP@@U?$DL_Keys_EC@VEC2N@CryptoPP@@@2@V?$DL_KeyAgreementAlgorithm_DH@UEC2NPoint@CryptoPP@@U?$EnumToType@W4CofactorMultiplicationOption@CryptoPP@@$0A@@2@@2@V?$DL_KeyDerivationAlgorithm_P1363@UEC2NPoint@CryptoPP@@$0A@V?$P1363_KDF2@VSHA1@CryptoPP@@@2@@2@V?$DL_EncryptionAlgorithm_Xor@V?$HMAC@VSHA1@CryptoPP@@@CryptoPP@@$0A@@2@@2@V?$DL_PublicKey_EC@VEC2N@CryptoPP@@@2@@CryptoPP@@QAE@XZ 0040b907 f i bench2.obj
 0001:0000a94b       ??0?$DL_ObjectImplBase@V?$DL_SignerBase@UEC2NPoint@CryptoPP@@@CryptoPP@@U?$DL_SignatureSchemeOptions@V?$DL_SS@U?$DL_Keys_ECDSA@VEC2N@CryptoPP@@@CryptoPP@@V?$DL_Algorithm_ECDSA@VEC2N@CryptoPP@@@2@VDL_SignatureMessageEncodingMethod_DSA@2@VSHA1@2@H@CryptoPP@@U?$DL_Keys_ECDSA@VEC2N@CryptoPP@@@2@V?$DL_Algorithm_ECDSA@VEC2N@CryptoPP@@@2@VDL_SignatureMessageEncodingMethod_DSA@2@VSHA1@2@@2@V?$DL_PrivateKey_WithSignaturePairwiseConsistencyTest@V?$DL_PrivateKey_EC@VEC2N@CryptoPP@@@CryptoPP@@U?$ECDSA@VEC2N@CryptoPP@@VSHA256@2@@2@@2@@CryptoPP@@QAE@XZ 0040b94b f i bench2.obj
 0001:0000a98a       ??0?$DL_ObjectImplBase@V?$DL_VerifierBase@UEC2NPoint@CryptoPP@@@CryptoPP@@U?$DL_SignatureSchemeOptions@V?$DL_SS@U?$DL_Keys_ECDSA@VEC2N@CryptoPP@@@CryptoPP@@V?$DL_Algorithm_ECDSA@VEC2N@CryptoPP@@@2@VDL_SignatureMessageEncodingMethod_DSA@2@VSHA1@2@H@CryptoPP@@U?$DL_Keys_ECDSA@VEC2N@CryptoPP@@@2@V?$DL_Algorithm_ECDSA@VEC2N@CryptoPP@@@2@VDL_SignatureMessageEncodingMethod_DSA@2@VSHA1@2@@2@V?$DL_PublicKey_EC@VEC2N@CryptoPP@@@2@@CryptoPP@@QAE@XZ 0040b98a f i bench2.obj
 0001:0000a9ce       ??0?$DL_GroupParameters@UEC2NPoint@CryptoPP@@@CryptoPP@@QAE@ABV01@@Z 0040b9ce f i bench2.obj
 0001:0000aa20       ??0?$DL_FixedBasePrecomputationImpl@UEC2NPoint@CryptoPP@@@CryptoPP@@QAE@ABV01@@Z 0040ba20 f i bench2.obj
 0001:0000aa85       ?IsInitialized@?$DL_FixedBasePrecomputationImpl@UEC2NPoint@CryptoPP@@@CryptoPP@@UBE_NXZ 0040ba85 f i bench2.obj
 0001:0000aaa5       ?GetBase@?$DL_FixedBasePrecomputationImpl@UEC2NPoint@CryptoPP@@@CryptoPP@@UBEABUEC2NPoint@2@ABV?$DL_GroupPrecomputation@UEC2NPoint@CryptoPP@@@2@@Z 0040baa5 f i bench2.obj
 0001:0000aabe       ?secp256k1@ASN1@CryptoPP@@YA?AVOID@2@XZ 0040babe f i bench2.obj
 0001:0000ab01       ??HCryptoPP@@YA?AVOID@0@ABV10@K@Z 0040bb01 f i bench2.obj
 0001:0000ab56       ?push_back@?$vector@IV?$allocator@I@std@@@std@@QAEXABI@Z 0040bb56 f i bench2.obj
 0001:0000ab67       ?certicom_ellipticCurve@ASN1@CryptoPP@@YA?AVOID@2@XZ 0040bb67 f i bench2.obj
 0001:0000abaa       ?certicom@ASN1@CryptoPP@@YA?AVOID@2@XZ 0040bbaa f i bench2.obj
 0001:0000abf0       ?identified_organization@ASN1@CryptoPP@@YA?AVOID@2@XZ 0040bbf0 f i bench2.obj
 0001:0000ac33       ?iso@ASN1@CryptoPP@@YA?AVOID@2@XZ 0040bc33 f i bench2.obj
 0001:0000ac58       ??0?$vector@IV?$allocator@I@std@@@std@@QAE@IABIABV?$allocator@I@1@@Z 0040bc58 f i bench2.obj
 0001:0000aca8       ??0?$DL_PublicKey_EC@VECP@CryptoPP@@@CryptoPP@@QAE@XZ 0040bca8 f i bench2.obj
 0001:0000ad09       ?BEREncode@ASN1Object@CryptoPP@@UBEXAAVBufferedTransformation@2@@Z 0040bd09 f i bench2.obj
 0001:0000ad15       ?Validate@?$DL_PublicKeyImpl@V?$DL_GroupParameters_EC@VECP@CryptoPP@@@CryptoPP@@@CryptoPP@@UBE_NAAVRandomNumberGenerator@2@I@Z 0040bd15 f i bench2.obj
 0001:0000ad76       ?GetVoidValue@?$DL_PublicKeyImpl@V?$DL_GroupParameters_EC@VECP@CryptoPP@@@CryptoPP@@@CryptoPP@@UBE_NPBDABVtype_info@@PAX@Z 0040bd76 f i bench2.obj
 0001:0000adb3       ?AssignFrom@?$DL_PublicKeyImpl@V?$DL_GroupParameters_EC@VECP@CryptoPP@@@CryptoPP@@@CryptoPP@@UAEXABVNameValuePairs@2@@Z 0040bdb3 f i bench2.obj
 0001:0000adcf       ?Precompute@?$DL_PublicKeyImpl@V?$DL_GroupParameters_EC@VECP@CryptoPP@@@CryptoPP@@@CryptoPP@@UAEXI@Z 0040bdcf f i bench2.obj
 0001:0000ae39       ?LoadPrecomputation@?$DL_PublicKeyImpl@V?$DL_GroupParameters_EC@VECP@CryptoPP@@@CryptoPP@@@CryptoPP@@UAEXAAVBufferedTransformation@2@@Z 0040be39 f i bench2.obj
 0001:0000ae8a       ?SavePrecomputation@?$DL_PublicKeyImpl@V?$DL_GroupParameters_EC@VECP@CryptoPP@@@CryptoPP@@@CryptoPP@@UBEXAAVBufferedTransformation@2@@Z 0040be8a f i bench2.obj
 0001:0000aeda       ?AccessPublicPrecomputation@?$DL_PublicKeyImpl@V?$DL_GroupParameters_EC@VECP@CryptoPP@@@CryptoPP@@@CryptoPP@@UAEAAV?$DL_FixedBasePrecomputation@UECPPoint@CryptoPP@@@2@XZ 0040beda f i bench2.obj
 0001:0000aeda       ?GetPublicPrecomputation@?$DL_PublicKeyImpl@V?$DL_GroupParameters_EC@VECP@CryptoPP@@@CryptoPP@@@CryptoPP@@UBEABV?$DL_FixedBasePrecomputation@UECPPoint@CryptoPP@@@2@XZ 0040beda f i bench2.obj
 0001:0000aee1       ?SetPublicElement@?$DL_PublicKey@VInteger@CryptoPP@@@CryptoPP@@UAEXABVInteger@2@@Z 0040bee1 f i bench2.obj
 0001:0000aee1       ?SetPublicElement@?$DL_PublicKey@UECPPoint@CryptoPP@@@CryptoPP@@UAEXABUECPPoint@2@@Z 0040bee1 f i bench2.obj
 0001:0000aee1       ?SetPublicElement@?$DL_PublicKey@UEC2NPoint@CryptoPP@@@CryptoPP@@UAEXABUEC2NPoint@2@@Z 0040bee1 f i bench2.obj
 0001:0000af0e       ?CascadeExponentiateBaseAndPublicElement@?$DL_PublicKey@UECPPoint@CryptoPP@@@CryptoPP@@UBE?AUECPPoint@2@ABVInteger@2@0@Z 0040bf0e f i bench2.obj
 0001:0000af0e       ?CascadeExponentiateBaseAndPublicElement@?$DL_PublicKey@UEC2NPoint@CryptoPP@@@CryptoPP@@UBE?AUEC2NPoint@2@ABVInteger@2@0@Z 0040bf0e f i bench2.obj
 0001:0000af0e       ?CascadeExponentiateBaseAndPublicElement@?$DL_PublicKey@VInteger@CryptoPP@@@CryptoPP@@UBE?AVInteger@2@ABV32@0@Z 0040bf0e f i bench2.obj
 0001:0000af5a       ?BERDecodeAlgorithmParameters@?$DL_KeyImpl@VX509PublicKey@CryptoPP@@V?$DL_GroupParameters_EC@VECP@CryptoPP@@@2@VOID@2@@CryptoPP@@UAE_NAAVBufferedTransformation@2@@Z 0040bf5a f i bench2.obj
 0001:0000af6b       ?DEREncodeAlgorithmParameters@?$DL_KeyImpl@VX509PublicKey@CryptoPP@@V?$DL_GroupParameters_EC@VECP@CryptoPP@@@2@VOID@2@@CryptoPP@@UBE_NAAVBufferedTransformation@2@@Z 0040bf6b f i bench2.obj
 0001:0000af7c       ?sect233r1@ASN1@CryptoPP@@YA?AVOID@2@XZ 0040bf7c f i bench2.obj
 0001:0000afbf       ??0?$DL_PrivateKey_WithSignaturePairwiseConsistencyTest@V?$DL_PrivateKey_EC@VECP@CryptoPP@@@CryptoPP@@U?$ECDSA@VECP@CryptoPP@@VSHA256@2@@2@@CryptoPP@@QAE@XZ 0040bfbf f i bench2.obj
 0001:0000b027       ?Validate@?$DL_PrivateKeyImpl@V?$DL_GroupParameters_EC@VECP@CryptoPP@@@CryptoPP@@@CryptoPP@@UBE_NAAVRandomNumberGenerator@2@I@Z 0040c027 f i bench2.obj
 0001:0000b0f7       ?GetVoidValue@?$DL_PrivateKeyImpl@V?$DL_GroupParameters_EC@VECP@CryptoPP@@@CryptoPP@@@CryptoPP@@UBE_NPBDABVtype_info@@PAX@Z 0040c0f7 f i bench2.obj
 0001:0000b134       ?AssignFrom@?$DL_PrivateKeyImpl@V?$DL_GroupParameters_EC@VECP@CryptoPP@@@CryptoPP@@@CryptoPP@@UAEXABVNameValuePairs@2@@Z 0040c134 f i bench2.obj
 0001:0000b150       ?Precompute@?$DL_PrivateKeyImpl@V?$DL_GroupParameters_EC@VECP@CryptoPP@@@CryptoPP@@@CryptoPP@@UAEXI@Z 0040c150 f i bench2.obj
 0001:0000b175       ?LoadPrecomputation@?$DL_PrivateKeyImpl@V?$DL_GroupParameters_EC@VECP@CryptoPP@@@CryptoPP@@@CryptoPP@@UAEXAAVBufferedTransformation@2@@Z 0040c175 f i bench2.obj
 0001:0000b19a       ?SavePrecomputation@?$DL_PrivateKeyImpl@V?$DL_GroupParameters_EC@VECP@CryptoPP@@@CryptoPP@@@CryptoPP@@UBEXAAVBufferedTransformation@2@@Z 0040c19a f i bench2.obj
 0001:0000b1be       ?GetPrivateExponent@?$DL_PrivateKeyImpl@V?$DL_GroupParameters_EC@VECP@CryptoPP@@@CryptoPP@@@CryptoPP@@UBEABVInteger@2@XZ 0040c1be f i bench2.obj
 0001:0000b1c5       ?SetPrivateExponent@?$DL_PrivateKeyImpl@V?$DL_GroupParameters_EC@VECP@CryptoPP@@@CryptoPP@@@CryptoPP@@UAEXABVInteger@2@@Z 0040c1c5 f i bench2.obj
 0001:0000b1d7       ?BERDecodeAlgorithmParameters@?$DL_KeyImpl@VPKCS8PrivateKey@CryptoPP@@V?$DL_GroupParameters_EC@VECP@CryptoPP@@@2@VOID@2@@CryptoPP@@UAE_NAAVBufferedTransformation@2@@Z 0040c1d7 f i bench2.obj
 0001:0000b1e8       ?DEREncodeAlgorithmParameters@?$DL_KeyImpl@VPKCS8PrivateKey@CryptoPP@@V?$DL_GroupParameters_EC@VECP@CryptoPP@@@2@VOID@2@@CryptoPP@@UBE_NAAVBufferedTransformation@2@@Z 0040c1e8 f i bench2.obj
 0001:0000b1f9       ?GenerateRandom@?$DL_PrivateKey_WithSignaturePairwiseConsistencyTest@V?$DL_PrivateKey_EC@VECP@CryptoPP@@@CryptoPP@@U?$ECDSA@VECP@CryptoPP@@VSHA256@2@@2@@CryptoPP@@UAEXAAVRandomNumberGenerator@2@ABVNameValuePairs@2@@Z 0040c1f9 f i bench2.obj
 0001:0000b2a5       ?GenerateRandom@?$DL_PrivateKeyImpl@V?$DL_GroupParameters_EC@VECP@CryptoPP@@@CryptoPP@@@CryptoPP@@UAEXAAVRandomNumberGenerator@2@ABVNameValuePairs@2@@Z 0040c2a5 f i bench2.obj
 0001:0000b347       ?IsPositive@Integer@CryptoPP@@QBE_NXZ 0040c347 f i bench2.obj
 0001:0000b35d       ??1?$PK_FinalTemplate@V?$DL_SignerImpl@U?$DL_SignatureSchemeOptions@V?$DL_SS@U?$DL_Keys_ECDSA@VECP@CryptoPP@@@CryptoPP@@V?$DL_Algorithm_ECDSA@VECP@CryptoPP@@@2@VDL_SignatureMessageEncodingMethod_DSA@2@VSHA256@2@H@CryptoPP@@U?$DL_Keys_ECDSA@VECP@CryptoPP@@@2@V?$DL_Algorithm_ECDSA@VECP@CryptoPP@@@2@VDL_SignatureMessageEncodingMethod_DSA@2@VSHA256@2@@CryptoPP@@@CryptoPP@@@CryptoPP@@UAE@XZ 0040c35d f i bench2.obj
 0001:0000b35d       ??1?$DL_SignerImpl@U?$DL_SignatureSchemeOptions@V?$DL_SS@U?$DL_Keys_ECDSA@VECP@CryptoPP@@@CryptoPP@@V?$DL_Algorithm_ECDSA@VECP@CryptoPP@@@2@VDL_SignatureMessageEncodingMethod_DSA@2@VSHA256@2@H@CryptoPP@@U?$DL_Keys_ECDSA@VECP@CryptoPP@@@2@V?$DL_Algorithm_ECDSA@VECP@CryptoPP@@@2@VDL_SignatureMessageEncodingMethod_DSA@2@VSHA256@2@@CryptoPP@@@CryptoPP@@UAE@XZ 0040c35d f i bench2.obj
 0001:0000b362       ??1?$DL_VerifierImpl@U?$DL_SignatureSchemeOptions@V?$DL_SS@U?$DL_Keys_ECDSA@VECP@CryptoPP@@@CryptoPP@@V?$DL_Algorithm_ECDSA@VECP@CryptoPP@@@2@VDL_SignatureMessageEncodingMethod_DSA@2@VSHA256@2@H@CryptoPP@@U?$DL_Keys_ECDSA@VECP@CryptoPP@@@2@V?$DL_Algorithm_ECDSA@VECP@CryptoPP@@@2@VDL_SignatureMessageEncodingMethod_DSA@2@VSHA256@2@@CryptoPP@@@CryptoPP@@UAE@XZ 0040c362 f i bench2.obj
 0001:0000b362       ??1?$PK_FinalTemplate@V?$DL_VerifierImpl@U?$DL_SignatureSchemeOptions@V?$DL_SS@U?$DL_Keys_ECDSA@VECP@CryptoPP@@@CryptoPP@@V?$DL_Algorithm_ECDSA@VECP@CryptoPP@@@2@VDL_SignatureMessageEncodingMethod_DSA@2@VSHA256@2@H@CryptoPP@@U?$DL_Keys_ECDSA@VECP@CryptoPP@@@2@V?$DL_Algorithm_ECDSA@VECP@CryptoPP@@@2@VDL_SignatureMessageEncodingMethod_DSA@2@VSHA256@2@@CryptoPP@@@CryptoPP@@@CryptoPP@@UAE@XZ 0040c362 f i bench2.obj
 0001:0000b367       ??1?$DL_ObjectImplBase@V?$DL_SignerBase@UECPPoint@CryptoPP@@@CryptoPP@@U?$DL_SignatureSchemeOptions@V?$DL_SS@U?$DL_Keys_ECDSA@VECP@CryptoPP@@@CryptoPP@@V?$DL_Algorithm_ECDSA@VECP@CryptoPP@@@2@VDL_SignatureMessageEncodingMethod_DSA@2@VSHA256@2@H@CryptoPP@@U?$DL_Keys_ECDSA@VECP@CryptoPP@@@2@V?$DL_Algorithm_ECDSA@VECP@CryptoPP@@@2@VDL_SignatureMessageEncodingMethod_DSA@2@VSHA256@2@@2@V?$DL_PrivateKey_WithSignaturePairwiseConsistencyTest@V?$DL_PrivateKey_EC@VECP@CryptoPP@@@CryptoPP@@U?$ECDSA@VECP@CryptoPP@@VSHA256@2@@2@@2@@CryptoPP@@UAE@XZ 0040c367 f i bench2.obj
 0001:0000b38d       ??1?$DL_ObjectImplBase@V?$DL_VerifierBase@UECPPoint@CryptoPP@@@CryptoPP@@U?$DL_SignatureSchemeOptions@V?$DL_SS@U?$DL_Keys_ECDSA@VECP@CryptoPP@@@CryptoPP@@V?$DL_Algorithm_ECDSA@VECP@CryptoPP@@@2@VDL_SignatureMessageEncodingMethod_DSA@2@VSHA256@2@H@CryptoPP@@U?$DL_Keys_ECDSA@VECP@CryptoPP@@@2@V?$DL_Algorithm_ECDSA@VECP@CryptoPP@@@2@VDL_SignatureMessageEncodingMethod_DSA@2@VSHA256@2@@2@V?$DL_PublicKey_EC@VECP@CryptoPP@@@2@@CryptoPP@@UAE@XZ 0040c38d f i bench2.obj
 0001:0000b3b3       ??0CryptoParameters@CryptoPP@@QAE@ABV01@@Z 0040c3b3 f i bench2.obj
 0001:0000b3ce       ??0?$DL_PublicKey_EC@VEC2N@CryptoPP@@@CryptoPP@@QAE@XZ 0040c3ce f i bench2.obj
 0001:0000b42f       ?Validate@?$DL_PublicKeyImpl@V?$DL_GroupParameters_EC@VEC2N@CryptoPP@@@CryptoPP@@@CryptoPP@@UBE_NAAVRandomNumberGenerator@2@I@Z 0040c42f f i bench2.obj
 0001:0000b490       ?GetVoidValue@?$DL_PublicKeyImpl@V?$DL_GroupParameters_EC@VEC2N@CryptoPP@@@CryptoPP@@@CryptoPP@@UBE_NPBDABVtype_info@@PAX@Z 0040c490 f i bench2.obj
 0001:0000b4cd       ?AssignFrom@?$DL_PublicKeyImpl@V?$DL_GroupParameters_EC@VEC2N@CryptoPP@@@CryptoPP@@@CryptoPP@@UAEXABVNameValuePairs@2@@Z 0040c4cd f i bench2.obj
 0001:0000b4e9       ?Precompute@?$DL_PublicKeyImpl@V?$DL_GroupParameters_EC@VEC2N@CryptoPP@@@CryptoPP@@@CryptoPP@@UAEXI@Z 0040c4e9 f i bench2.obj
 0001:0000b553       ?LoadPrecomputation@?$DL_PublicKeyImpl@V?$DL_GroupParameters_EC@VEC2N@CryptoPP@@@CryptoPP@@@CryptoPP@@UAEXAAVBufferedTransformation@2@@Z 0040c553 f i bench2.obj
 0001:0000b5a4       ?SavePrecomputation@?$DL_PublicKeyImpl@V?$DL_GroupParameters_EC@VEC2N@CryptoPP@@@CryptoPP@@@CryptoPP@@UBEXAAVBufferedTransformation@2@@Z 0040c5a4 f i bench2.obj
 0001:0000b5f4       ?AccessPublicPrecomputation@?$DL_PublicKeyImpl@V?$DL_GroupParameters_EC@VEC2N@CryptoPP@@@CryptoPP@@@CryptoPP@@UAEAAV?$DL_FixedBasePrecomputation@UEC2NPoint@CryptoPP@@@2@XZ 0040c5f4 f i bench2.obj
 0001:0000b5f4       ?GetPublicPrecomputation@?$DL_PublicKeyImpl@V?$DL_GroupParameters_EC@VEC2N@CryptoPP@@@CryptoPP@@@CryptoPP@@UBEABV?$DL_FixedBasePrecomputation@UEC2NPoint@CryptoPP@@@2@XZ 0040c5f4 f i bench2.obj
 0001:0000b5fb       ?ExponentiatePublicElement@?$DL_PublicKey@UEC2NPoint@CryptoPP@@@CryptoPP@@UBE?AUEC2NPoint@2@ABVInteger@2@@Z 0040c5fb f i bench2.obj
 0001:0000b5fb       ?ExponentiatePublicElement@?$DL_PublicKey@VInteger@CryptoPP@@@CryptoPP@@UBE?AVInteger@2@ABV32@@Z 0040c5fb f i bench2.obj
 0001:0000b5fb       ?ExponentiatePublicElement@?$DL_PublicKey@UECPPoint@CryptoPP@@@CryptoPP@@UBE?AUECPPoint@2@ABVInteger@2@@Z 0040c5fb f i bench2.obj
 0001:0000b636       ?GetAlgorithmID@?$DL_KeyImpl@VX509PublicKey@CryptoPP@@V?$DL_GroupParameters_EC@VECP@CryptoPP@@@2@VOID@2@@CryptoPP@@UBE?AVOID@2@XZ 0040c636 f i bench2.obj
 0001:0000b636       ?GetAlgorithmID@?$DL_KeyImpl@VX509PublicKey@CryptoPP@@V?$DL_GroupParameters_EC@VEC2N@CryptoPP@@@2@VOID@2@@CryptoPP@@UBE?AVOID@2@XZ 0040c636 f i bench2.obj
 0001:0000b650       ?BERDecodeAlgorithmParameters@?$DL_KeyImpl@VX509PublicKey@CryptoPP@@V?$DL_GroupParameters_EC@VEC2N@CryptoPP@@@2@VOID@2@@CryptoPP@@UAE_NAAVBufferedTransformation@2@@Z 0040c650 f i bench2.obj
 0001:0000b661       ?DEREncodeAlgorithmParameters@?$DL_KeyImpl@VX509PublicKey@CryptoPP@@V?$DL_GroupParameters_EC@VEC2N@CryptoPP@@@2@VOID@2@@CryptoPP@@UBE_NAAVBufferedTransformation@2@@Z 0040c661 f i bench2.obj
 0001:0000b672       ??0?$DL_PrivateKey_WithSignaturePairwiseConsistencyTest@V?$DL_PrivateKey_EC@VEC2N@CryptoPP@@@CryptoPP@@U?$ECDSA@VEC2N@CryptoPP@@VSHA256@2@@2@@CryptoPP@@QAE@XZ 0040c672 f i bench2.obj
 0001:0000b6da       ?Validate@?$DL_PrivateKeyImpl@V?$DL_GroupParameters_EC@VEC2N@CryptoPP@@@CryptoPP@@@CryptoPP@@UBE_NAAVRandomNumberGenerator@2@I@Z 0040c6da f i bench2.obj
 0001:0000b7aa       ?GetVoidValue@?$DL_PrivateKeyImpl@V?$DL_GroupParameters_EC@VEC2N@CryptoPP@@@CryptoPP@@@CryptoPP@@UBE_NPBDABVtype_info@@PAX@Z 0040c7aa f i bench2.obj
 0001:0000b7e7       ?AssignFrom@?$DL_PrivateKeyImpl@V?$DL_GroupParameters_EC@VEC2N@CryptoPP@@@CryptoPP@@@CryptoPP@@UAEXABVNameValuePairs@2@@Z 0040c7e7 f i bench2.obj
 0001:0000b803       ?Precompute@?$DL_PrivateKeyImpl@V?$DL_GroupParameters_EC@VEC2N@CryptoPP@@@CryptoPP@@@CryptoPP@@UAEXI@Z 0040c803 f i bench2.obj
 0001:0000b828       ?LoadPrecomputation@?$DL_PrivateKeyImpl@V?$DL_GroupParameters_EC@VEC2N@CryptoPP@@@CryptoPP@@@CryptoPP@@UAEXAAVBufferedTransformation@2@@Z 0040c828 f i bench2.obj
 0001:0000b84d       ?SavePrecomputation@?$DL_PrivateKeyImpl@V?$DL_GroupParameters_EC@VEC2N@CryptoPP@@@CryptoPP@@@CryptoPP@@UBEXAAVBufferedTransformation@2@@Z 0040c84d f i bench2.obj
 0001:0000b871       ?GetPrivateExponent@?$DL_PrivateKeyImpl@V?$DL_GroupParameters_EC@VEC2N@CryptoPP@@@CryptoPP@@@CryptoPP@@UBEABVInteger@2@XZ 0040c871 f i bench2.obj
 0001:0000b878       ?SetPrivateExponent@?$DL_PrivateKeyImpl@V?$DL_GroupParameters_EC@VEC2N@CryptoPP@@@CryptoPP@@@CryptoPP@@UAEXABVInteger@2@@Z 0040c878 f i bench2.obj
 0001:0000b88a       ?GetAlgorithmID@?$DL_KeyImpl@VPKCS8PrivateKey@CryptoPP@@V?$DL_GroupParameters_EC@VECP@CryptoPP@@@2@VOID@2@@CryptoPP@@UBE?AVOID@2@XZ 0040c88a f i bench2.obj
 0001:0000b88a       ?GetAlgorithmID@?$DL_KeyImpl@VPKCS8PrivateKey@CryptoPP@@V?$DL_GroupParameters_EC@VEC2N@CryptoPP@@@2@VOID@2@@CryptoPP@@UBE?AVOID@2@XZ 0040c88a f i bench2.obj
 0001:0000b8a4       ?BERDecodeAlgorithmParameters@?$DL_KeyImpl@VPKCS8PrivateKey@CryptoPP@@V?$DL_GroupParameters_EC@VEC2N@CryptoPP@@@2@VOID@2@@CryptoPP@@UAE_NAAVBufferedTransformation@2@@Z 0040c8a4 f i bench2.obj
 0001:0000b8b5       ?DEREncodeAlgorithmParameters@?$DL_KeyImpl@VPKCS8PrivateKey@CryptoPP@@V?$DL_GroupParameters_EC@VEC2N@CryptoPP@@@2@VOID@2@@CryptoPP@@UBE_NAAVBufferedTransformation@2@@Z 0040c8b5 f i bench2.obj
 0001:0000b8c6       ?GenerateRandom@?$DL_PrivateKey_WithSignaturePairwiseConsistencyTest@V?$DL_PrivateKey_EC@VEC2N@CryptoPP@@@CryptoPP@@U?$ECDSA@VEC2N@CryptoPP@@VSHA256@2@@2@@CryptoPP@@UAEXAAVRandomNumberGenerator@2@ABVNameValuePairs@2@@Z 0040c8c6 f i bench2.obj
 0001:0000b972       ?GenerateRandom@?$DL_PrivateKeyImpl@V?$DL_GroupParameters_EC@VEC2N@CryptoPP@@@CryptoPP@@@CryptoPP@@UAEXAAVRandomNumberGenerator@2@ABVNameValuePairs@2@@Z 0040c972 f i bench2.obj
 0001:0000ba14       ??1?$DL_SignerImpl@U?$DL_SignatureSchemeOptions@V?$DL_SS@U?$DL_Keys_ECDSA@VEC2N@CryptoPP@@@CryptoPP@@V?$DL_Algorithm_ECDSA@VEC2N@CryptoPP@@@2@VDL_SignatureMessageEncodingMethod_DSA@2@VSHA256@2@H@CryptoPP@@U?$DL_Keys_ECDSA@VEC2N@CryptoPP@@@2@V?$DL_Algorithm_ECDSA@VEC2N@CryptoPP@@@2@VDL_SignatureMessageEncodingMethod_DSA@2@VSHA256@2@@CryptoPP@@@CryptoPP@@UAE@XZ 0040ca14 f i bench2.obj
 0001:0000ba14       ??1?$PK_FinalTemplate@V?$DL_SignerImpl@U?$DL_SignatureSchemeOptions@V?$DL_SS@U?$DL_Keys_ECDSA@VEC2N@CryptoPP@@@CryptoPP@@V?$DL_Algorithm_ECDSA@VEC2N@CryptoPP@@@2@VDL_SignatureMessageEncodingMethod_DSA@2@VSHA256@2@H@CryptoPP@@U?$DL_Keys_ECDSA@VEC2N@CryptoPP@@@2@V?$DL_Algorithm_ECDSA@VEC2N@CryptoPP@@@2@VDL_SignatureMessageEncodingMethod_DSA@2@VSHA256@2@@CryptoPP@@@CryptoPP@@@CryptoPP@@UAE@XZ 0040ca14 f i bench2.obj
 0001:0000ba19       ??1?$DL_VerifierImpl@U?$DL_SignatureSchemeOptions@V?$DL_SS@U?$DL_Keys_ECDSA@VEC2N@CryptoPP@@@CryptoPP@@V?$DL_Algorithm_ECDSA@VEC2N@CryptoPP@@@2@VDL_SignatureMessageEncodingMethod_DSA@2@VSHA256@2@H@CryptoPP@@U?$DL_Keys_ECDSA@VEC2N@CryptoPP@@@2@V?$DL_Algorithm_ECDSA@VEC2N@CryptoPP@@@2@VDL_SignatureMessageEncodingMethod_DSA@2@VSHA256@2@@CryptoPP@@@CryptoPP@@UAE@XZ 0040ca19 f i bench2.obj
 0001:0000ba19       ??1?$PK_FinalTemplate@V?$DL_VerifierImpl@U?$DL_SignatureSchemeOptions@V?$DL_SS@U?$DL_Keys_ECDSA@VEC2N@CryptoPP@@@CryptoPP@@V?$DL_Algorithm_ECDSA@VEC2N@CryptoPP@@@2@VDL_SignatureMessageEncodingMethod_DSA@2@VSHA256@2@H@CryptoPP@@U?$DL_Keys_ECDSA@VEC2N@CryptoPP@@@2@V?$DL_Algorithm_ECDSA@VEC2N@CryptoPP@@@2@VDL_SignatureMessageEncodingMethod_DSA@2@VSHA256@2@@CryptoPP@@@CryptoPP@@@CryptoPP@@UAE@XZ 0040ca19 f i bench2.obj
 0001:0000ba1e       ??1?$DL_ObjectImplBase@V?$DL_SignerBase@UEC2NPoint@CryptoPP@@@CryptoPP@@U?$DL_SignatureSchemeOptions@V?$DL_SS@U?$DL_Keys_ECDSA@VEC2N@CryptoPP@@@CryptoPP@@V?$DL_Algorithm_ECDSA@VEC2N@CryptoPP@@@2@VDL_SignatureMessageEncodingMethod_DSA@2@VSHA256@2@H@CryptoPP@@U?$DL_Keys_ECDSA@VEC2N@CryptoPP@@@2@V?$DL_Algorithm_ECDSA@VEC2N@CryptoPP@@@2@VDL_SignatureMessageEncodingMethod_DSA@2@VSHA256@2@@2@V?$DL_PrivateKey_WithSignaturePairwiseConsistencyTest@V?$DL_PrivateKey_EC@VEC2N@CryptoPP@@@CryptoPP@@U?$ECDSA@VEC2N@CryptoPP@@VSHA256@2@@2@@2@@CryptoPP@@UAE@XZ 0040ca1e f i bench2.obj
 0001:0000ba44       ??1?$DL_ObjectImplBase@V?$DL_VerifierBase@UEC2NPoint@CryptoPP@@@CryptoPP@@U?$DL_SignatureSchemeOptions@V?$DL_SS@U?$DL_Keys_ECDSA@VEC2N@CryptoPP@@@CryptoPP@@V?$DL_Algorithm_ECDSA@VEC2N@CryptoPP@@@2@VDL_SignatureMessageEncodingMethod_DSA@2@VSHA256@2@H@CryptoPP@@U?$DL_Keys_ECDSA@VEC2N@CryptoPP@@@2@V?$DL_Algorithm_ECDSA@VEC2N@CryptoPP@@@2@VDL_SignatureMessageEncodingMethod_DSA@2@VSHA256@2@@2@V?$DL_PublicKey_EC@VEC2N@CryptoPP@@@2@@CryptoPP@@UAE@XZ 0040ca44 f i bench2.obj
 0001:0000ba6a       ??0EC2N@CryptoPP@@QAE@ABV01@@Z 0040ca6a f i bench2.obj
 0001:0000badb       ??0?$IteratedHash@IU?$EnumToType@W4ByteOrder@CryptoPP@@$00@CryptoPP@@$0EA@VHashTransformation@2@@CryptoPP@@QAE@ABV01@@Z 0040cadb f i bench2.obj
 0001:0000bb1c       ??1?$IteratedHash@IU?$EnumToType@W4ByteOrder@CryptoPP@@$00@CryptoPP@@$0EA@VHashTransformation@2@@CryptoPP@@UAE@XZ 0040cb1c f i bench2.obj
 0001:0000bb42       ??_E?$DL_PublicKey_EC@VECP@CryptoPP@@@CryptoPP@@UAEPAXI@Z 0040cb42 f i bench2.obj
 0001:0000bb42       ??_G?$DL_PublicKey_EC@VECP@CryptoPP@@@CryptoPP@@UAEPAXI@Z 0040cb42 f i bench2.obj
 0001:0000bb6d       ??1?$DL_PublicKey_EC@VECP@CryptoPP@@@CryptoPP@@UAE@XZ 0040cb6d f i bench2.obj
 0001:0000bb72       ??0?$DL_PublicKeyImpl@V?$DL_GroupParameters_EC@VECP@CryptoPP@@@CryptoPP@@@CryptoPP@@QAE@XZ 0040cb72 f i bench2.obj
 0001:0000bbe6       ??_G?$DL_PrivateKey_WithSignaturePairwiseConsistencyTest@V?$DL_PrivateKey_EC@VECP@CryptoPP@@@CryptoPP@@U?$ECDSA@VECP@CryptoPP@@VSHA256@2@@2@@CryptoPP@@UAEPAXI@Z 0040cbe6 f i bench2.obj
 0001:0000bbe6       ??_E?$DL_PrivateKey_EC@VECP@CryptoPP@@@CryptoPP@@UAEPAXI@Z 0040cbe6 f i bench2.obj
 0001:0000bbe6       ??_G?$DL_PrivateKey_EC@VECP@CryptoPP@@@CryptoPP@@UAEPAXI@Z 0040cbe6 f i bench2.obj
 0001:0000bbe6       ??_E?$DL_PrivateKey_WithSignaturePairwiseConsistencyTest@V?$DL_PrivateKey_EC@VECP@CryptoPP@@@CryptoPP@@U?$ECDSA@VECP@CryptoPP@@VSHA256@2@@2@@CryptoPP@@UAEPAXI@Z 0040cbe6 f i bench2.obj
 0001:0000bc11       ??0?$DL_PrivateKey_EC@VECP@CryptoPP@@@CryptoPP@@QAE@XZ 0040cc11 f i bench2.obj
 0001:0000bc79       ??_G?$DL_PublicKey_EC@VEC2N@CryptoPP@@@CryptoPP@@UAEPAXI@Z 0040cc79 f i bench2.obj
 0001:0000bc79       ??_E?$DL_PublicKey_EC@VEC2N@CryptoPP@@@CryptoPP@@UAEPAXI@Z 0040cc79 f i bench2.obj
 0001:0000bca4       ??1?$DL_PublicKey_EC@VEC2N@CryptoPP@@@CryptoPP@@UAE@XZ 0040cca4 f i bench2.obj
 0001:0000bca9       ??0?$DL_PublicKeyImpl@V?$DL_GroupParameters_EC@VEC2N@CryptoPP@@@CryptoPP@@@CryptoPP@@QAE@XZ 0040cca9 f i bench2.obj
 0001:0000bd1d       ??_E?$DL_PrivateKey_WithSignaturePairwiseConsistencyTest@V?$DL_PrivateKey_EC@VEC2N@CryptoPP@@@CryptoPP@@U?$ECDSA@VEC2N@CryptoPP@@VSHA256@2@@2@@CryptoPP@@UAEPAXI@Z 0040cd1d f i bench2.obj
 0001:0000bd1d       ??_G?$DL_PrivateKey_EC@VEC2N@CryptoPP@@@CryptoPP@@UAEPAXI@Z 0040cd1d f i bench2.obj
 0001:0000bd1d       ??_G?$DL_PrivateKey_WithSignaturePairwiseConsistencyTest@V?$DL_PrivateKey_EC@VEC2N@CryptoPP@@@CryptoPP@@U?$ECDSA@VEC2N@CryptoPP@@VSHA256@2@@2@@CryptoPP@@UAEPAXI@Z 0040cd1d f i bench2.obj
 0001:0000bd1d       ??_E?$DL_PrivateKey_EC@VEC2N@CryptoPP@@@CryptoPP@@UAEPAXI@Z 0040cd1d f i bench2.obj
 0001:0000bd48       ??0?$DL_PrivateKey_EC@VEC2N@CryptoPP@@@CryptoPP@@QAE@XZ 0040cd48 f i bench2.obj
 0001:0000bdb0       ??_G?$DL_PublicKeyImpl@V?$DL_GroupParameters_EC@VECP@CryptoPP@@@CryptoPP@@@CryptoPP@@UAEPAXI@Z 0040cdb0 f i bench2.obj
 0001:0000bdb0       ??_E?$DL_PublicKeyImpl@V?$DL_GroupParameters_EC@VECP@CryptoPP@@@CryptoPP@@@CryptoPP@@UAEPAXI@Z 0040cdb0 f i bench2.obj
 0001:0000bddb       ??0?$DL_KeyImpl@VX509PublicKey@CryptoPP@@V?$DL_GroupParameters_EC@VECP@CryptoPP@@@2@VOID@2@@CryptoPP@@QAE@XZ 0040cddb f i bench2.obj
 0001:0000be42       ?Precompute@CryptoMaterial@CryptoPP@@UAEXI@Z 0040ce42 f i bench2.obj
 0001:0000be9e       ?LoadPrecomputation@CryptoMaterial@CryptoPP@@UAEXAAVBufferedTransformation@2@@Z 0040ce9e f i bench2.obj
 0001:0000befa       ?SavePrecomputation@CryptoMaterial@CryptoPP@@UBEXAAVBufferedTransformation@2@@Z 0040cefa f i bench2.obj
 0001:0000bf56       ??1?$DL_PrivateKey_EC@VECP@CryptoPP@@@CryptoPP@@UAE@XZ 0040cf56 f i bench2.obj
 0001:0000bf56       ??1?$DL_PrivateKey_WithSignaturePairwiseConsistencyTest@V?$DL_PrivateKey_EC@VECP@CryptoPP@@@CryptoPP@@U?$ECDSA@VECP@CryptoPP@@VSHA256@2@@2@@CryptoPP@@UAE@XZ 0040cf56 f i bench2.obj
 0001:0000bf5b       ??0?$DL_PrivateKeyImpl@V?$DL_GroupParameters_EC@VECP@CryptoPP@@@CryptoPP@@@CryptoPP@@QAE@XZ 0040cf5b f i bench2.obj
 0001:0000bfd6       ?BERDecodePrivateKey@?$DL_PrivateKeyImpl@V?$DL_GroupParameters_EC@VECP@CryptoPP@@@CryptoPP@@@CryptoPP@@UAEXAAVBufferedTransformation@2@_NI@Z 0040cfd6 f i bench2.obj
 0001:0000bfec       ?DEREncodePrivateKey@?$DL_PrivateKeyImpl@V?$DL_GroupParameters_EC@VECP@CryptoPP@@@CryptoPP@@@CryptoPP@@UBEXAAVBufferedTransformation@2@@Z 0040cfec f i bench2.obj
 0001:0000c002       ??_G?$DL_PublicKeyImpl@V?$DL_GroupParameters_EC@VEC2N@CryptoPP@@@CryptoPP@@@CryptoPP@@UAEPAXI@Z 0040d002 f i bench2.obj
 0001:0000c002       ??_E?$DL_PublicKeyImpl@V?$DL_GroupParameters_EC@VEC2N@CryptoPP@@@CryptoPP@@@CryptoPP@@UAEPAXI@Z 0040d002 f i bench2.obj
 0001:0000c02d       ??0?$DL_KeyImpl@VX509PublicKey@CryptoPP@@V?$DL_GroupParameters_EC@VEC2N@CryptoPP@@@2@VOID@2@@CryptoPP@@QAE@XZ 0040d02d f i bench2.obj
 0001:0000c094       ??0?$DL_PrivateKeyImpl@V?$DL_GroupParameters_EC@VEC2N@CryptoPP@@@CryptoPP@@@CryptoPP@@QAE@XZ 0040d094 f i bench2.obj
 0001:0000c10f       ?BERDecodePrivateKey@?$DL_PrivateKeyImpl@V?$DL_GroupParameters_EC@VEC2N@CryptoPP@@@CryptoPP@@@CryptoPP@@UAEXAAVBufferedTransformation@2@_NI@Z 0040d10f f i bench2.obj
 0001:0000c125       ?DEREncodePrivateKey@?$DL_PrivateKeyImpl@V?$DL_GroupParameters_EC@VEC2N@CryptoPP@@@CryptoPP@@@CryptoPP@@UBEXAAVBufferedTransformation@2@@Z 0040d125 f i bench2.obj
 0001:0000c13b       ??_E?$DL_KeyImpl@VX509PublicKey@CryptoPP@@V?$DL_GroupParameters_EC@VECP@CryptoPP@@@2@VOID@2@@CryptoPP@@UAEPAXI@Z 0040d13b f i bench2.obj
 0001:0000c13b       ??_G?$DL_KeyImpl@VX509PublicKey@CryptoPP@@V?$DL_GroupParameters_EC@VECP@CryptoPP@@@2@VOID@2@@CryptoPP@@UAEPAXI@Z 0040d13b f i bench2.obj
 0001:0000c162       ??0X509PublicKey@CryptoPP@@QAE@XZ 0040d162 f i bench2.obj
 0001:0000c191       ?Save@?$ASN1CryptoMaterial@VPublicKey@CryptoPP@@@CryptoPP@@UBEXAAVBufferedTransformation@2@@Z 0040d191 f i bench2.obj
 0001:0000c1a1       ?Load@?$ASN1CryptoMaterial@VPublicKey@CryptoPP@@@CryptoPP@@UAEXAAVBufferedTransformation@2@@Z 0040d1a1 f i bench2.obj
 0001:0000c1b1       ?BERDecodeAlgorithmParameters@X509PublicKey@CryptoPP@@UAE_NAAVBufferedTransformation@2@@Z 0040d1b1 f i bench2.obj
 0001:0000c1b1       ?BERDecodeAlgorithmParameters@PKCS8PrivateKey@CryptoPP@@UAE_NAAVBufferedTransformation@2@@Z 0040d1b1 f i bench2.obj
 0001:0000c1c0       ?DEREncodeAlgorithmParameters@PKCS8PrivateKey@CryptoPP@@UBE_NAAVBufferedTransformation@2@@Z 0040d1c0 f i bench2.obj
 0001:0000c1c0       ?DEREncodeAlgorithmParameters@X509PublicKey@CryptoPP@@UBE_NAAVBufferedTransformation@2@@Z 0040d1c0 f i bench2.obj
 0001:0000c1cf       ??_E?$DL_PrivateKeyImpl@V?$DL_GroupParameters_EC@VECP@CryptoPP@@@CryptoPP@@@CryptoPP@@UAEPAXI@Z 0040d1cf f i bench2.obj
 0001:0000c1cf       ??_G?$DL_PrivateKeyImpl@V?$DL_GroupParameters_EC@VECP@CryptoPP@@@CryptoPP@@@CryptoPP@@UAEPAXI@Z 0040d1cf f i bench2.obj
 0001:0000c1fa       ??0?$DL_KeyImpl@VPKCS8PrivateKey@CryptoPP@@V?$DL_GroupParameters_EC@VECP@CryptoPP@@@2@VOID@2@@CryptoPP@@QAE@XZ 0040d1fa f i bench2.obj
 0001:0000c268       ??_G?$DL_KeyImpl@VX509PublicKey@CryptoPP@@V?$DL_GroupParameters_EC@VEC2N@CryptoPP@@@2@VOID@2@@CryptoPP@@UAEPAXI@Z 0040d268 f i bench2.obj
 0001:0000c268       ??_E?$DL_KeyImpl@VX509PublicKey@CryptoPP@@V?$DL_GroupParameters_EC@VEC2N@CryptoPP@@@2@VOID@2@@CryptoPP@@UAEPAXI@Z 0040d268 f i bench2.obj
 0001:0000c28f       ??_E?$DL_PrivateKeyImpl@V?$DL_GroupParameters_EC@VEC2N@CryptoPP@@@CryptoPP@@@CryptoPP@@UAEPAXI@Z 0040d28f f i bench2.obj
 0001:0000c28f       ??_G?$DL_PrivateKeyImpl@V?$DL_GroupParameters_EC@VEC2N@CryptoPP@@@CryptoPP@@@CryptoPP@@UAEPAXI@Z 0040d28f f i bench2.obj
 0001:0000c2ba       ??0?$DL_KeyImpl@VPKCS8PrivateKey@CryptoPP@@V?$DL_GroupParameters_EC@VEC2N@CryptoPP@@@2@VOID@2@@CryptoPP@@QAE@XZ 0040d2ba f i bench2.obj
 0001:0000c328       ??_EX509PublicKey@CryptoPP@@UAEPAXI@Z 0040d328 f i bench2.obj
 0001:0000c328       ??_GX509PublicKey@CryptoPP@@UAEPAXI@Z 0040d328 f i bench2.obj
 0001:0000c34c       ??_G?$DL_KeyImpl@VPKCS8PrivateKey@CryptoPP@@V?$DL_GroupParameters_EC@VECP@CryptoPP@@@2@VOID@2@@CryptoPP@@UAEPAXI@Z 0040d34c f i bench2.obj
 0001:0000c34c       ??_E?$DL_KeyImpl@VPKCS8PrivateKey@CryptoPP@@V?$DL_GroupParameters_EC@VECP@CryptoPP@@@2@VOID@2@@CryptoPP@@UAEPAXI@Z 0040d34c f i bench2.obj
 0001:0000c373       ??0PKCS8PrivateKey@CryptoPP@@QAE@XZ 0040d373 f i bench2.obj
 0001:0000c3e3       ??_E?$DL_KeyImpl@VPKCS8PrivateKey@CryptoPP@@V?$DL_GroupParameters_EC@VEC2N@CryptoPP@@@2@VOID@2@@CryptoPP@@UAEPAXI@Z 0040d3e3 f i bench2.obj
 0001:0000c3e3       ??_G?$DL_KeyImpl@VPKCS8PrivateKey@CryptoPP@@V?$DL_GroupParameters_EC@VEC2N@CryptoPP@@@2@VOID@2@@CryptoPP@@UAEPAXI@Z 0040d3e3 f i bench2.obj
 0001:0000c40a       ??_GPKCS8PrivateKey@CryptoPP@@UAEPAXI@Z 0040d40a f i bench2.obj
 0001:0000c40a       ??_EPKCS8PrivateKey@CryptoPP@@UAEPAXI@Z 0040d40a f i bench2.obj
 0001:0000c42e       ??0?$ASN1CryptoMaterial@VPrivateKey@CryptoPP@@@CryptoPP@@QAE@XZ 0040d42e f i bench2.obj
 0001:0000c449       ?insert@?$vector@IV?$allocator@I@std@@@std@@QAEXPAIIABI@Z 0040d449 f i bench2.obj
 0001:0000c619       ?allocate@?$AllocatorWithCleanup@E$0A@@CryptoPP@@QAEPAEIPBX@Z 0040d619 f i bench2.obj
 0001:0000c638       ??0?$IteratedHashWithStaticTransform@IU?$EnumToType@W4ByteOrder@CryptoPP@@$00@CryptoPP@@$0EA@$0BE@VSHA1@2@$0A@$0A@@CryptoPP@@IAE@XZ 0040d638 f i bench2.obj
 0001:0000c67b       ??0?$SecBlock@IV?$FixedSizeAllocatorWithCleanup@I$0BA@V?$NullAllocator@I@CryptoPP@@$0A@@CryptoPP@@@CryptoPP@@QAE@ABV01@@Z 0040d67b f i bench2.obj
 0001:0000c67b       ??0?$SecBlock@IV?$FixedSizeAllocatorWithCleanup@I$0BA@V?$NullAllocator@I@CryptoPP@@$00@CryptoPP@@@CryptoPP@@QAE@ABV01@@Z 0040d67b f i bench2.obj
 0001:0000c6b5       ??0?$DL_FixedBasePrecomputationImpl@UECPPoint@CryptoPP@@@CryptoPP@@QAE@XZ 0040d6b5 f i bench2.obj
 0001:0000c726       ??0?$vector@UECPPoint@CryptoPP@@V?$allocator@UECPPoint@CryptoPP@@@std@@@std@@QAE@ABV01@@Z 0040d726 f i bench2.obj
 0001:0000c791       ??0?$value_ptr@VECP@CryptoPP@@@CryptoPP@@QAE@ABV01@@Z 0040d791 f i bench2.obj
 0001:0000c7dd       ??0?$DL_FixedBasePrecomputationImpl@UEC2NPoint@CryptoPP@@@CryptoPP@@QAE@XZ 0040d7dd f i bench2.obj
 0001:0000c84e       ??0?$vector@UEC2NPoint@CryptoPP@@V?$allocator@UEC2NPoint@CryptoPP@@@std@@@std@@QAE@ABV01@@Z 0040d84e f i bench2.obj
 0001:0000c8b9       ??0?$DL_GroupParameters_EC@VECP@CryptoPP@@@CryptoPP@@QAE@XZ 0040d8b9 f i bench2.obj
 0001:0000c961       ??0?$DL_GroupParameters@UECPPoint@CryptoPP@@@CryptoPP@@QAE@XZ 0040d961 f i bench2.obj
 0001:0000c97f       ??0?$DL_GroupParameters_EC@VEC2N@CryptoPP@@@CryptoPP@@QAE@XZ 0040d97f f i bench2.obj
 0001:0000ca2c       ??0?$DL_GroupParameters@UEC2NPoint@CryptoPP@@@CryptoPP@@QAE@XZ 0040da2c f i bench2.obj
 0001:0000ca4a       ?StaticAlgorithmName@?$ECIES@VEC2N@CryptoPP@@U?$EnumToType@W4CofactorMultiplicationOption@CryptoPP@@$0A@@2@$0A@@CryptoPP@@SA?AV?$basic_string@DU?$char_traits@D@std@@V?$allocator@D@2@@std@@XZ 0040da4a f i bench2.obj
 0001:0000ca4a       ?StaticAlgorithmName@?$ECIES@VECP@CryptoPP@@U?$EnumToType@W4CofactorMultiplicationOption@CryptoPP@@$0A@@2@$0A@@CryptoPP@@SA?AV?$basic_string@DU?$char_traits@D@std@@V?$allocator@D@2@@std@@XZ 0040da4a f i bench2.obj
 0001:0000ca80       ?StaticAlgorithmName@?$DH_Domain@V?$DL_GroupParameters_EC@VECP@CryptoPP@@@CryptoPP@@U?$EnumToType@W4CofactorMultiplicationOption@CryptoPP@@$01@2@@CryptoPP@@SA?AV?$basic_string@DU?$char_traits@D@std@@V?$allocator@D@2@@std@@XZ 0040da80 f i bench2.obj
 0001:0000caca       ?StaticAlgorithmName@?$DH_Domain@V?$DL_GroupParameters_EC@VEC2N@CryptoPP@@@CryptoPP@@U?$EnumToType@W4CofactorMultiplicationOption@CryptoPP@@$01@2@@CryptoPP@@SA?AV?$basic_string@DU?$char_traits@D@std@@V?$allocator@D@2@@std@@XZ 0040daca f i bench2.obj
 0001:0000cb14       ?Assignable@?$GetValueHelperClass@V?$DL_PublicKeyImpl@V?$DL_GroupParameters_EC@VECP@CryptoPP@@@CryptoPP@@@CryptoPP@@V?$DL_PublicKey@UECPPoint@CryptoPP@@@2@@CryptoPP@@QAEAAV12@XZ 0040db14 f i bench2.obj
 0001:0000cbc3       ?Assignable@?$GetValueHelperClass@V?$DL_PublicKeyImpl@V?$DL_GroupParameters_EC@VEC2N@CryptoPP@@@CryptoPP@@@CryptoPP@@V?$DL_PublicKey@UEC2NPoint@CryptoPP@@@2@@CryptoPP@@QAEAAV12@XZ 0040dbc3 f i bench2.obj
 0001:0000cc72       ?Assignable@?$GetValueHelperClass@V?$DL_PrivateKeyImpl@V?$DL_GroupParameters_EC@VECP@CryptoPP@@@CryptoPP@@@CryptoPP@@V?$DL_PrivateKey@UECPPoint@CryptoPP@@@2@@CryptoPP@@QAEAAV12@XZ 0040dc72 f i bench2.obj
 0001:0000cd21       ?Assignable@?$GetValueHelperClass@V?$DL_PrivateKeyImpl@V?$DL_GroupParameters_EC@VEC2N@CryptoPP@@@CryptoPP@@@CryptoPP@@V?$DL_PrivateKey@UEC2NPoint@CryptoPP@@@2@@CryptoPP@@QAEAAV12@XZ 0040dd21 f i bench2.obj
 0001:0000cdd0       ??0?$PK_FinalTemplate@V?$DL_SignerImpl@U?$DL_SignatureSchemeOptions@V?$DL_SS@U?$DL_Keys_ECDSA@VECP@CryptoPP@@@CryptoPP@@V?$DL_Algorithm_ECDSA@VECP@CryptoPP@@@2@VDL_SignatureMessageEncodingMethod_DSA@2@VSHA256@2@H@CryptoPP@@U?$DL_Keys_ECDSA@VECP@CryptoPP@@@2@V?$DL_Algorithm_ECDSA@VECP@CryptoPP@@@2@VDL_SignatureMessageEncodingMethod_DSA@2@VSHA256@2@@CryptoPP@@@CryptoPP@@@CryptoPP@@QAE@ABVCryptoMaterial@1@@Z 0040ddd0 f i bench2.obj
 0001:0000ce23       ?NewSignatureAccumulator@?$DL_SignerImpl@U?$DL_SignatureSchemeOptions@V?$DL_SS@U?$DL_Keys_ECDSA@VECP@CryptoPP@@@CryptoPP@@V?$DL_Algorithm_ECDSA@VECP@CryptoPP@@@2@VDL_SignatureMessageEncodingMethod_DSA@2@VSHA256@2@H@CryptoPP@@U?$DL_Keys_ECDSA@VECP@CryptoPP@@@2@V?$DL_Algorithm_ECDSA@VECP@CryptoPP@@@2@VDL_SignatureMessageEncodingMethod_DSA@2@VSHA256@2@@CryptoPP@@@CryptoPP@@UBEPAVPK_MessageAccumulator@2@AAVRandomNumberGenerator@2@@Z 0040de23 f i bench2.obj
 0001:0000ce78       ?AlgorithmName@?$AlgorithmImpl@V?$DL_VerifierBase@UECPPoint@CryptoPP@@@CryptoPP@@V?$DL_SS@U?$DL_Keys_ECDSA@VECP@CryptoPP@@@CryptoPP@@V?$DL_Algorithm_ECDSA@VECP@CryptoPP@@@2@VDL_SignatureMessageEncodingMethod_DSA@2@VSHA256@2@H@2@@CryptoPP@@UBE?AV?$basic_string@DU?$char_traits@D@std@@V?$allocator@D@2@@std@@XZ 0040de78 f i bench2.obj
 0001:0000ce78       ?AlgorithmName@?$AlgorithmImpl@V?$DL_SignerBase@UECPPoint@CryptoPP@@@CryptoPP@@V?$DL_SS@U?$DL_Keys_ECDSA@VECP@CryptoPP@@@CryptoPP@@V?$DL_Algorithm_ECDSA@VECP@CryptoPP@@@2@VDL_SignatureMessageEncodingMethod_DSA@2@VSHA256@2@H@2@@CryptoPP@@UBE?AV?$basic_string@DU?$char_traits@D@std@@V?$allocator@D@2@@std@@XZ 0040de78 f i bench2.obj
 0001:0000ce90       ??0?$PK_FinalTemplate@V?$DL_VerifierImpl@U?$DL_SignatureSchemeOptions@V?$DL_SS@U?$DL_Keys_ECDSA@VECP@CryptoPP@@@CryptoPP@@V?$DL_Algorithm_ECDSA@VECP@CryptoPP@@@2@VDL_SignatureMessageEncodingMethod_DSA@2@VSHA256@2@H@CryptoPP@@U?$DL_Keys_ECDSA@VECP@CryptoPP@@@2@V?$DL_Algorithm_ECDSA@VECP@CryptoPP@@@2@VDL_SignatureMessageEncodingMethod_DSA@2@VSHA256@2@@CryptoPP@@@CryptoPP@@@CryptoPP@@QAE@ABVAsymmetricAlgorithm@1@@Z 0040de90 f i bench2.obj
 0001:0000cee2       ??0?$PK_FinalTemplate@V?$DL_SignerImpl@U?$DL_SignatureSchemeOptions@V?$DL_SS@U?$DL_Keys_ECDSA@VEC2N@CryptoPP@@@CryptoPP@@V?$DL_Algorithm_ECDSA@VEC2N@CryptoPP@@@2@VDL_SignatureMessageEncodingMethod_DSA@2@VSHA256@2@H@CryptoPP@@U?$DL_Keys_ECDSA@VEC2N@CryptoPP@@@2@V?$DL_Algorithm_ECDSA@VEC2N@CryptoPP@@@2@VDL_SignatureMessageEncodingMethod_DSA@2@VSHA256@2@@CryptoPP@@@CryptoPP@@@CryptoPP@@QAE@ABVCryptoMaterial@1@@Z 0040dee2 f i bench2.obj
 0001:0000cf35       ?NewSignatureAccumulator@?$DL_SignerImpl@U?$DL_SignatureSchemeOptions@V?$DL_SS@U?$DL_Keys_ECDSA@VEC2N@CryptoPP@@@CryptoPP@@V?$DL_Algorithm_ECDSA@VEC2N@CryptoPP@@@2@VDL_SignatureMessageEncodingMethod_DSA@2@VSHA256@2@H@CryptoPP@@U?$DL_Keys_ECDSA@VEC2N@CryptoPP@@@2@V?$DL_Algorithm_ECDSA@VEC2N@CryptoPP@@@2@VDL_SignatureMessageEncodingMethod_DSA@2@VSHA256@2@@CryptoPP@@@CryptoPP@@UBEPAVPK_MessageAccumulator@2@AAVRandomNumberGenerator@2@@Z 0040df35 f i bench2.obj
 0001:0000cf8a       ?AlgorithmName@?$AlgorithmImpl@V?$DL_VerifierBase@UEC2NPoint@CryptoPP@@@CryptoPP@@V?$DL_SS@U?$DL_Keys_ECDSA@VEC2N@CryptoPP@@@CryptoPP@@V?$DL_Algorithm_ECDSA@VEC2N@CryptoPP@@@2@VDL_SignatureMessageEncodingMethod_DSA@2@VSHA256@2@H@2@@CryptoPP@@UBE?AV?$basic_string@DU?$char_traits@D@std@@V?$allocator@D@2@@std@@XZ 0040df8a f i bench2.obj
 0001:0000cf8a       ?AlgorithmName@?$AlgorithmImpl@V?$DL_SignerBase@UEC2NPoint@CryptoPP@@@CryptoPP@@V?$DL_SS@U?$DL_Keys_ECDSA@VEC2N@CryptoPP@@@CryptoPP@@V?$DL_Algorithm_ECDSA@VEC2N@CryptoPP@@@2@VDL_SignatureMessageEncodingMethod_DSA@2@VSHA256@2@H@2@@CryptoPP@@UBE?AV?$basic_string@DU?$char_traits@D@std@@V?$allocator@D@2@@std@@XZ 0040df8a f i bench2.obj
 0001:0000cfa2       ??0?$PK_FinalTemplate@V?$DL_VerifierImpl@U?$DL_SignatureSchemeOptions@V?$DL_SS@U?$DL_Keys_ECDSA@VEC2N@CryptoPP@@@CryptoPP@@V?$DL_Algorithm_ECDSA@VEC2N@CryptoPP@@@2@VDL_SignatureMessageEncodingMethod_DSA@2@VSHA256@2@H@CryptoPP@@U?$DL_Keys_ECDSA@VEC2N@CryptoPP@@@2@V?$DL_Algorithm_ECDSA@VEC2N@CryptoPP@@@2@VDL_SignatureMessageEncodingMethod_DSA@2@VSHA256@2@@CryptoPP@@@CryptoPP@@@CryptoPP@@QAE@ABVAsymmetricAlgorithm@1@@Z 0040dfa2 f i bench2.obj
 0001:0000cff4       ?StaticAlgorithmName@?$DL_SS@U?$DL_Keys_ECDSA@VECP@CryptoPP@@@CryptoPP@@V?$DL_Algorithm_ECDSA@VECP@CryptoPP@@@2@VDL_SignatureMessageEncodingMethod_DSA@2@VSHA1@2@H@CryptoPP@@SA?AV?$basic_string@DU?$char_traits@D@std@@V?$allocator@D@2@@std@@XZ 0040dff4 f i bench2.obj
 0001:0000d098       ?StaticAlgorithmName@?$DL_SS@U?$DL_Keys_ECDSA@VEC2N@CryptoPP@@@CryptoPP@@V?$DL_Algorithm_ECDSA@VEC2N@CryptoPP@@@2@VDL_SignatureMessageEncodingMethod_DSA@2@VSHA1@2@H@CryptoPP@@SA?AV?$basic_string@DU?$char_traits@D@std@@V?$allocator@D@2@@std@@XZ 0040e098 f i bench2.obj
 0001:0000d13c       ??4?$DL_PublicKeyImpl@V?$DL_GroupParameters_EC@VECP@CryptoPP@@@CryptoPP@@@CryptoPP@@QAEAAV01@ABV01@@Z 0040e13c f i bench2.obj
 0001:0000d171       ??4?$DL_PublicKeyImpl@V?$DL_GroupParameters_EC@VEC2N@CryptoPP@@@CryptoPP@@@CryptoPP@@QAEAAV01@ABV01@@Z 0040e171 f i bench2.obj
 0001:0000d1a6       ??4?$DL_PrivateKeyImpl@V?$DL_GroupParameters_EC@VECP@CryptoPP@@@CryptoPP@@@CryptoPP@@QAEAAV01@ABV01@@Z 0040e1a6 f i bench2.obj
 0001:0000d1db       ??4?$DL_PrivateKeyImpl@V?$DL_GroupParameters_EC@VEC2N@CryptoPP@@@CryptoPP@@@CryptoPP@@QAEAAV01@ABV01@@Z 0040e1db f i bench2.obj
 0001:0000d210       ??0?$PK_MessageAccumulatorImpl@VSHA256@CryptoPP@@@CryptoPP@@QAE@XZ 0040e210 f i bench2.obj
 0001:0000d251       ?Init@?$IteratedHashWithStaticTransform@IU?$EnumToType@W4ByteOrder@CryptoPP@@$00@CryptoPP@@$0EA@$0CA@VSHA256@2@$0CA@$00@CryptoPP@@MAEXXZ 0040e251 f i bench2.obj
 0001:0000d25e       ?Clone@?$ClonableImpl@VSHA256@CryptoPP@@V?$AlgorithmImpl@V?$IteratedHash@IU?$EnumToType@W4ByteOrder@CryptoPP@@$00@CryptoPP@@$0EA@VHashTransformation@2@@CryptoPP@@VSHA256@2@@2@@CryptoPP@@UBEPAVClonable@2@XZ 0040e25e f i bench2.obj
 0001:0000d2b4       ?AlgorithmName@?$AlgorithmImpl@V?$IteratedHash@IU?$EnumToType@W4ByteOrder@CryptoPP@@$00@CryptoPP@@$0EA@VHashTransformation@2@@CryptoPP@@VSHA256@2@@CryptoPP@@UBE?AV?$basic_string@DU?$char_traits@D@std@@V?$allocator@D@2@@std@@XZ 0040e2b4 f i bench2.obj
 0001:0000d2ec       ??_GSHA256@CryptoPP@@UAEPAXI@Z 0040e2ec f i bench2.obj
 0001:0000d2ec       ??_ESHA256@CryptoPP@@UAEPAXI@Z 0040e2ec f i bench2.obj
 0001:0000d308       ??1SHA256@CryptoPP@@UAE@XZ 0040e308 f i bench2.obj
 0001:0000d30d       ??1?$IteratedHashWithStaticTransform@IU?$EnumToType@W4ByteOrder@CryptoPP@@$00@CryptoPP@@$0EA@$0CA@VSHA256@2@$0CA@$00@CryptoPP@@UAE@XZ 0040e30d f i bench2.obj
 0001:0000d346       ??1?$ClonableImpl@VSHA256@CryptoPP@@V?$AlgorithmImpl@V?$IteratedHash@IU?$EnumToType@W4ByteOrder@CryptoPP@@$00@CryptoPP@@$0EA@VHashTransformation@2@@CryptoPP@@VSHA256@2@@2@@CryptoPP@@UAE@XZ 0040e346 f i bench2.obj
 0001:0000d36c       ??1?$SecBlock@IV?$FixedSizeAllocatorWithCleanup@I$0BA@V?$NullAllocator@I@CryptoPP@@$00@CryptoPP@@@CryptoPP@@QAE@XZ 0040e36c f i bench2.obj
 0001:0000d36c       ??1?$SecBlock@IV?$FixedSizeAllocatorWithCleanup@I$0BA@V?$NullAllocator@I@CryptoPP@@$0A@@CryptoPP@@@CryptoPP@@QAE@XZ 0040e36c f i bench2.obj
 0001:0000d383       ??0?$DL_VerifierImpl@U?$DL_SignatureSchemeOptions@V?$DL_SS@U?$DL_Keys_ECDSA@VECP@CryptoPP@@@CryptoPP@@V?$DL_Algorithm_ECDSA@VECP@CryptoPP@@@2@VDL_SignatureMessageEncodingMethod_DSA@2@VSHA256@2@H@CryptoPP@@U?$DL_Keys_ECDSA@VECP@CryptoPP@@@2@V?$DL_Algorithm_ECDSA@VECP@CryptoPP@@@2@VDL_SignatureMessageEncodingMethod_DSA@2@VSHA256@2@@CryptoPP@@@CryptoPP@@QAE@XZ 0040e383 f i bench2.obj
 0001:0000d3aa       ?NewVerificationAccumulator@?$DL_VerifierImpl@U?$DL_SignatureSchemeOptions@V?$DL_SS@U?$DL_Keys_ECDSA@VECP@CryptoPP@@@CryptoPP@@V?$DL_Algorithm_ECDSA@VECP@CryptoPP@@@2@VDL_SignatureMessageEncodingMethod_DSA@2@VSHA256@2@H@CryptoPP@@U?$DL_Keys_ECDSA@VECP@CryptoPP@@@2@V?$DL_Algorithm_ECDSA@VECP@CryptoPP@@@2@VDL_SignatureMessageEncodingMethod_DSA@2@VSHA256@2@@CryptoPP@@@CryptoPP@@UBEPAVPK_MessageAccumulator@2@XZ 0040e3aa f i bench2.obj
 0001:0000d3df       ?GetSignatureAlgorithm@?$DL_ObjectImpl@V?$DL_VerifierBase@UECPPoint@CryptoPP@@@CryptoPP@@U?$DL_SignatureSchemeOptions@V?$DL_SS@U?$DL_Keys_ECDSA@VECP@CryptoPP@@@CryptoPP@@V?$DL_Algorithm_ECDSA@VECP@CryptoPP@@@2@VDL_SignatureMessageEncodingMethod_DSA@2@VSHA1@2@H@CryptoPP@@U?$DL_Keys_ECDSA@VECP@CryptoPP@@@2@V?$DL_Algorithm_ECDSA@VECP@CryptoPP@@@2@VDL_SignatureMessageEncodingMethod_DSA@2@VSHA1@2@@2@V?$DL_PublicKey_EC@VECP@CryptoPP@@@2@@CryptoPP@@MBEABV?$DL_ElgamalLikeSignatureAlgorithm@UECPPoint@CryptoPP@@@2@XZ 0040e3df f i bench2.obj
 0001:0000d3df       ?GetSignatureAlgorithm@?$DL_ObjectImpl@V?$DL_SignerBase@UECPPoint@CryptoPP@@@CryptoPP@@U?$DL_SignatureSchemeOptions@V?$DL_SS@U?$DL_Keys_ECDSA@VECP@CryptoPP@@@CryptoPP@@V?$DL_Algorithm_ECDSA@VECP@CryptoPP@@@2@VDL_SignatureMessageEncodingMethod_DSA@2@VSHA256@2@H@CryptoPP@@U?$DL_Keys_ECDSA@VECP@CryptoPP@@@2@V?$DL_Algorithm_ECDSA@VECP@CryptoPP@@@2@VDL_SignatureMessageEncodingMethod_DSA@2@VSHA256@2@@2@V?$DL_PrivateKey_WithSignaturePairwiseConsistencyTest@V?$DL_PrivateKey_EC@VECP@CryptoPP@@@CryptoPP@@U?$ECDSA@VECP@CryptoPP@@VSHA256@2@@2@@2@@CryptoPP@@MBEABV?$DL_ElgamalLikeSignatureAlgorithm@UECPPoint@CryptoPP@@@2@XZ 0040e3df f i bench2.obj
 0001:0000d3df       ?GetSignatureAlgorithm@?$DL_ObjectImpl@V?$DL_VerifierBase@UECPPoint@CryptoPP@@@CryptoPP@@U?$DL_SignatureSchemeOptions@V?$DL_SS@U?$DL_Keys_ECDSA@VECP@CryptoPP@@@CryptoPP@@V?$DL_Algorithm_ECDSA@VECP@CryptoPP@@@2@VDL_SignatureMessageEncodingMethod_DSA@2@VSHA256@2@H@CryptoPP@@U?$DL_Keys_ECDSA@VECP@CryptoPP@@@2@V?$DL_Algorithm_ECDSA@VECP@CryptoPP@@@2@VDL_SignatureMessageEncodingMethod_DSA@2@VSHA256@2@@2@V?$DL_PublicKey_EC@VECP@CryptoPP@@@2@@CryptoPP@@MBEABV?$DL_ElgamalLikeSignatureAlgorithm@UECPPoint@CryptoPP@@@2@XZ 0040e3df f i bench2.obj
 0001:0000d3df       ?GetSignatureAlgorithm@?$DL_ObjectImpl@V?$DL_SignerBase@UECPPoint@CryptoPP@@@CryptoPP@@U?$DL_SignatureSchemeOptions@V?$DL_SS@U?$DL_Keys_ECDSA@VECP@CryptoPP@@@CryptoPP@@V?$DL_Algorithm_ECDSA@VECP@CryptoPP@@@2@VDL_SignatureMessageEncodingMethod_DSA@2@VSHA1@2@H@CryptoPP@@U?$DL_Keys_ECDSA@VECP@CryptoPP@@@2@V?$DL_Algorithm_ECDSA@VECP@CryptoPP@@@2@VDL_SignatureMessageEncodingMethod_DSA@2@VSHA1@2@@2@V?$DL_PrivateKey_WithSignaturePairwiseConsistencyTest@V?$DL_PrivateKey_EC@VECP@CryptoPP@@@CryptoPP@@U?$ECDSA@VECP@CryptoPP@@VSHA256@2@@2@@2@@CryptoPP@@MBEABV?$DL_ElgamalLikeSignatureAlgorithm@UECPPoint@CryptoPP@@@2@XZ 0040e3df f i bench2.obj
 0001:0000d3f5       ??0?$DL_VerifierImpl@U?$DL_SignatureSchemeOptions@V?$DL_SS@U?$DL_Keys_ECDSA@VEC2N@CryptoPP@@@CryptoPP@@V?$DL_Algorithm_ECDSA@VEC2N@CryptoPP@@@2@VDL_SignatureMessageEncodingMethod_DSA@2@VSHA256@2@H@CryptoPP@@U?$DL_Keys_ECDSA@VEC2N@CryptoPP@@@2@V?$DL_Algorithm_ECDSA@VEC2N@CryptoPP@@@2@VDL_SignatureMessageEncodingMethod_DSA@2@VSHA256@2@@CryptoPP@@@CryptoPP@@QAE@XZ 0040e3f5 f i bench2.obj
 0001:0000d41c       ?NewVerificationAccumulator@?$DL_VerifierImpl@U?$DL_SignatureSchemeOptions@V?$DL_SS@U?$DL_Keys_ECDSA@VEC2N@CryptoPP@@@CryptoPP@@V?$DL_Algorithm_ECDSA@VEC2N@CryptoPP@@@2@VDL_SignatureMessageEncodingMethod_DSA@2@VSHA256@2@H@CryptoPP@@U?$DL_Keys_ECDSA@VEC2N@CryptoPP@@@2@V?$DL_Algorithm_ECDSA@VEC2N@CryptoPP@@@2@VDL_SignatureMessageEncodingMethod_DSA@2@VSHA256@2@@CryptoPP@@@CryptoPP@@UBEPAVPK_MessageAccumulator@2@XZ 0040e41c f i bench2.obj
 0001:0000d451       ??4?$DL_KeyImpl@VX509PublicKey@CryptoPP@@V?$DL_GroupParameters_EC@VECP@CryptoPP@@@2@VOID@2@@CryptoPP@@QAEAAV01@ABV01@@Z 0040e451 f i bench2.obj
 0001:0000d472       ??4?$DL_FixedBasePrecomputationImpl@UECPPoint@CryptoPP@@@CryptoPP@@QAEAAV01@ABV01@@Z 0040e472 f i bench2.obj
 0001:0000d4ab       ??4ECPPoint@CryptoPP@@QAEAAU01@ABU01@@Z 0040e4ab f i bench2.obj
 0001:0000d4d6       ??4?$DL_KeyImpl@VX509PublicKey@CryptoPP@@V?$DL_GroupParameters_EC@VEC2N@CryptoPP@@@2@VOID@2@@CryptoPP@@QAEAAV01@ABV01@@Z 0040e4d6 f i bench2.obj
 0001:0000d4f7       ??4?$DL_FixedBasePrecomputationImpl@UEC2NPoint@CryptoPP@@@CryptoPP@@QAEAAV01@ABV01@@Z 0040e4f7 f i bench2.obj
 0001:0000d530       ??4EC2NPoint@CryptoPP@@QAEAAU01@ABU01@@Z 0040e530 f i bench2.obj
 0001:0000d55b       ??4?$DL_KeyImpl@VPKCS8PrivateKey@CryptoPP@@V?$DL_GroupParameters_EC@VECP@CryptoPP@@@2@VOID@2@@CryptoPP@@QAEAAV01@ABV01@@Z 0040e55b f i bench2.obj
 0001:0000d57c       ??4?$DL_KeyImpl@VPKCS8PrivateKey@CryptoPP@@V?$DL_GroupParameters_EC@VEC2N@CryptoPP@@@2@VOID@2@@CryptoPP@@QAEAAV01@ABV01@@Z 0040e57c f i bench2.obj
 0001:0000d59d       ??_E?$DL_SignerImpl@U?$DL_SignatureSchemeOptions@V?$DL_SS@U?$DL_Keys_ECDSA@VECP@CryptoPP@@@CryptoPP@@V?$DL_Algorithm_ECDSA@VECP@CryptoPP@@@2@VDL_SignatureMessageEncodingMethod_DSA@2@VSHA256@2@H@CryptoPP@@U?$DL_Keys_ECDSA@VECP@CryptoPP@@@2@V?$DL_Algorithm_ECDSA@VECP@CryptoPP@@@2@VDL_SignatureMessageEncodingMethod_DSA@2@VSHA256@2@@CryptoPP@@@CryptoPP@@UAEPAXI@Z 0040e59d f i bench2.obj
 0001:0000d59d       ??_G?$DL_SignerImpl@U?$DL_SignatureSchemeOptions@V?$DL_SS@U?$DL_Keys_ECDSA@VECP@CryptoPP@@@CryptoPP@@V?$DL_Algorithm_ECDSA@VECP@CryptoPP@@@2@VDL_SignatureMessageEncodingMethod_DSA@2@VSHA256@2@H@CryptoPP@@U?$DL_Keys_ECDSA@VECP@CryptoPP@@@2@V?$DL_Algorithm_ECDSA@VECP@CryptoPP@@@2@VDL_SignatureMessageEncodingMethod_DSA@2@VSHA256@2@@CryptoPP@@@CryptoPP@@UAEPAXI@Z 0040e59d f i bench2.obj
 0001:0000d5b9       ??_G?$PK_MessageAccumulatorImpl@VSHA256@CryptoPP@@@CryptoPP@@UAEPAXI@Z 0040e5b9 f i bench2.obj
 0001:0000d5b9       ??_E?$PK_MessageAccumulatorImpl@VSHA256@CryptoPP@@@CryptoPP@@UAEPAXI@Z 0040e5b9 f i bench2.obj
 0001:0000d5d5       ??_G?$DL_VerifierImpl@U?$DL_SignatureSchemeOptions@V?$DL_SS@U?$DL_Keys_ECDSA@VECP@CryptoPP@@@CryptoPP@@V?$DL_Algorithm_ECDSA@VECP@CryptoPP@@@2@VDL_SignatureMessageEncodingMethod_DSA@2@VSHA256@2@H@CryptoPP@@U?$DL_Keys_ECDSA@VECP@CryptoPP@@@2@V?$DL_Algorithm_ECDSA@VECP@CryptoPP@@@2@VDL_SignatureMessageEncodingMethod_DSA@2@VSHA256@2@@CryptoPP@@@CryptoPP@@UAEPAXI@Z 0040e5d5 f i bench2.obj
 0001:0000d5d5       ??_E?$DL_VerifierImpl@U?$DL_SignatureSchemeOptions@V?$DL_SS@U?$DL_Keys_ECDSA@VECP@CryptoPP@@@CryptoPP@@V?$DL_Algorithm_ECDSA@VECP@CryptoPP@@@2@VDL_SignatureMessageEncodingMethod_DSA@2@VSHA256@2@H@CryptoPP@@U?$DL_Keys_ECDSA@VECP@CryptoPP@@@2@V?$DL_Algorithm_ECDSA@VECP@CryptoPP@@@2@VDL_SignatureMessageEncodingMethod_DSA@2@VSHA256@2@@CryptoPP@@@CryptoPP@@UAEPAXI@Z 0040e5d5 f i bench2.obj
 0001:0000d5f1       ??_E?$DL_SignerImpl@U?$DL_SignatureSchemeOptions@V?$DL_SS@U?$DL_Keys_ECDSA@VEC2N@CryptoPP@@@CryptoPP@@V?$DL_Algorithm_ECDSA@VEC2N@CryptoPP@@@2@VDL_SignatureMessageEncodingMethod_DSA@2@VSHA256@2@H@CryptoPP@@U?$DL_Keys_ECDSA@VEC2N@CryptoPP@@@2@V?$DL_Algorithm_ECDSA@VEC2N@CryptoPP@@@2@VDL_SignatureMessageEncodingMethod_DSA@2@VSHA256@2@@CryptoPP@@@CryptoPP@@UAEPAXI@Z 0040e5f1 f i bench2.obj
 0001:0000d5f1       ??_G?$DL_SignerImpl@U?$DL_SignatureSchemeOptions@V?$DL_SS@U?$DL_Keys_ECDSA@VEC2N@CryptoPP@@@CryptoPP@@V?$DL_Algorithm_ECDSA@VEC2N@CryptoPP@@@2@VDL_SignatureMessageEncodingMethod_DSA@2@VSHA256@2@H@CryptoPP@@U?$DL_Keys_ECDSA@VEC2N@CryptoPP@@@2@V?$DL_Algorithm_ECDSA@VEC2N@CryptoPP@@@2@VDL_SignatureMessageEncodingMethod_DSA@2@VSHA256@2@@CryptoPP@@@CryptoPP@@UAEPAXI@Z 0040e5f1 f i bench2.obj
 0001:0000d60d       ??_E?$DL_VerifierImpl@U?$DL_SignatureSchemeOptions@V?$DL_SS@U?$DL_Keys_ECDSA@VEC2N@CryptoPP@@@CryptoPP@@V?$DL_Algorithm_ECDSA@VEC2N@CryptoPP@@@2@VDL_SignatureMessageEncodingMethod_DSA@2@VSHA256@2@H@CryptoPP@@U?$DL_Keys_ECDSA@VEC2N@CryptoPP@@@2@V?$DL_Algorithm_ECDSA@VEC2N@CryptoPP@@@2@VDL_SignatureMessageEncodingMethod_DSA@2@VSHA256@2@@CryptoPP@@@CryptoPP@@UAEPAXI@Z 0040e60d f i bench2.obj
 0001:0000d60d       ??_G?$DL_VerifierImpl@U?$DL_SignatureSchemeOptions@V?$DL_SS@U?$DL_Keys_ECDSA@VEC2N@CryptoPP@@@CryptoPP@@V?$DL_Algorithm_ECDSA@VEC2N@CryptoPP@@@2@VDL_SignatureMessageEncodingMethod_DSA@2@VSHA256@2@H@CryptoPP@@U?$DL_Keys_ECDSA@VEC2N@CryptoPP@@@2@V?$DL_Algorithm_ECDSA@VEC2N@CryptoPP@@@2@VDL_SignatureMessageEncodingMethod_DSA@2@VSHA256@2@@CryptoPP@@@CryptoPP@@UAEPAXI@Z 0040e60d f i bench2.obj
 0001:0000d629       ??0?$IteratedHash@IU?$EnumToType@W4ByteOrder@CryptoPP@@$00@CryptoPP@@$0EA@VHashTransformation@2@@CryptoPP@@QAE@XZ 0040e629 f i bench2.obj
 0001:0000d665       ??4X509PublicKey@CryptoPP@@QAEAAV01@ABV01@@Z 0040e665 f i bench2.obj
 0001:0000d677       ??4PKCS8PrivateKey@CryptoPP@@QAEAAV01@ABV01@@Z 0040e677 f i bench2.obj
 0001:0000d698       ??4?$DL_GroupParameters_EC@VECP@CryptoPP@@@CryptoPP@@QAEAAV01@ABV01@@Z 0040e698 f i bench2.obj
 0001:0000d6f2       ??4?$vector@IV?$allocator@I@std@@@std@@QAEAAV01@ABV01@@Z 0040e6f2 f i bench2.obj
 0001:0000d81f       ??4?$DL_GroupParameters_EC@VEC2N@CryptoPP@@@CryptoPP@@QAEAAV01@ABV01@@Z 0040e81f f i bench2.obj
 0001:0000d87f       ??0?$DL_ObjectImplBase@V?$DL_SignerBase@UECPPoint@CryptoPP@@@CryptoPP@@U?$DL_SignatureSchemeOptions@V?$DL_SS@U?$DL_Keys_ECDSA@VECP@CryptoPP@@@CryptoPP@@V?$DL_Algorithm_ECDSA@VECP@CryptoPP@@@2@VDL_SignatureMessageEncodingMethod_DSA@2@VSHA256@2@H@CryptoPP@@U?$DL_Keys_ECDSA@VECP@CryptoPP@@@2@V?$DL_Algorithm_ECDSA@VECP@CryptoPP@@@2@VDL_SignatureMessageEncodingMethod_DSA@2@VSHA256@2@@2@V?$DL_PrivateKey_WithSignaturePairwiseConsistencyTest@V?$DL_PrivateKey_EC@VECP@CryptoPP@@@CryptoPP@@U?$ECDSA@VECP@CryptoPP@@VSHA256@2@@2@@2@@CryptoPP@@QAE@XZ 0040e87f f i bench2.obj
 0001:0000d8be       ??1?$PK_MessageAccumulatorImpl@VSHA256@CryptoPP@@@CryptoPP@@UAE@XZ 0040e8be f i bench2.obj
 0001:0000d913       ??0?$DL_ObjectImplBase@V?$DL_VerifierBase@UECPPoint@CryptoPP@@@CryptoPP@@U?$DL_SignatureSchemeOptions@V?$DL_SS@U?$DL_Keys_ECDSA@VECP@CryptoPP@@@CryptoPP@@V?$DL_Algorithm_ECDSA@VECP@CryptoPP@@@2@VDL_SignatureMessageEncodingMethod_DSA@2@VSHA256@2@H@CryptoPP@@U?$DL_Keys_ECDSA@VECP@CryptoPP@@@2@V?$DL_Algorithm_ECDSA@VECP@CryptoPP@@@2@VDL_SignatureMessageEncodingMethod_DSA@2@VSHA256@2@@2@V?$DL_PublicKey_EC@VECP@CryptoPP@@@2@@CryptoPP@@QAE@XZ 0040e913 f i bench2.obj
 0001:0000d957       ??0?$DL_ObjectImplBase@V?$DL_SignerBase@UEC2NPoint@CryptoPP@@@CryptoPP@@U?$DL_SignatureSchemeOptions@V?$DL_SS@U?$DL_Keys_ECDSA@VEC2N@CryptoPP@@@CryptoPP@@V?$DL_Algorithm_ECDSA@VEC2N@CryptoPP@@@2@VDL_SignatureMessageEncodingMethod_DSA@2@VSHA256@2@H@CryptoPP@@U?$DL_Keys_ECDSA@VEC2N@CryptoPP@@@2@V?$DL_Algorithm_ECDSA@VEC2N@CryptoPP@@@2@VDL_SignatureMessageEncodingMethod_DSA@2@VSHA256@2@@2@V?$DL_PrivateKey_WithSignaturePairwiseConsistencyTest@V?$DL_PrivateKey_EC@VEC2N@CryptoPP@@@CryptoPP@@U?$ECDSA@VEC2N@CryptoPP@@VSHA256@2@@2@@2@@CryptoPP@@QAE@XZ 0040e957 f i bench2.obj
 0001:0000d996       ??0?$DL_ObjectImplBase@V?$DL_VerifierBase@UEC2NPoint@CryptoPP@@@CryptoPP@@U?$DL_SignatureSchemeOptions@V?$DL_SS@U?$DL_Keys_ECDSA@VEC2N@CryptoPP@@@CryptoPP@@V?$DL_Algorithm_ECDSA@VEC2N@CryptoPP@@@2@VDL_SignatureMessageEncodingMethod_DSA@2@VSHA256@2@H@CryptoPP@@U?$DL_Keys_ECDSA@VEC2N@CryptoPP@@@2@V?$DL_Algorithm_ECDSA@VEC2N@CryptoPP@@@2@VDL_SignatureMessageEncodingMethod_DSA@2@VSHA256@2@@2@V?$DL_PublicKey_EC@VEC2N@CryptoPP@@@2@@CryptoPP@@QAE@XZ 0040e996 f i bench2.obj
 0001:0000d9da       ??4?$ASN1CryptoMaterial@VPrivateKey@CryptoPP@@@CryptoPP@@QAEAAV01@ABV01@@Z 0040e9da f i bench2.obj
 0001:0000d9fb       ??4?$DL_GroupParametersImpl@V?$EcPrecomputation@VECP@CryptoPP@@@CryptoPP@@V?$DL_FixedBasePrecomputationImpl@UECPPoint@CryptoPP@@@2@V?$DL_GroupParameters@UECPPoint@CryptoPP@@@2@@CryptoPP@@QAEAAV01@ABV01@@Z 0040e9fb f i bench2.obj
 0001:0000da34       ??4?$DL_GroupParametersImpl@V?$EcPrecomputation@VEC2N@CryptoPP@@@CryptoPP@@V?$DL_FixedBasePrecomputationImpl@UEC2NPoint@CryptoPP@@@2@V?$DL_GroupParameters@UEC2NPoint@CryptoPP@@@2@@CryptoPP@@QAEAAV01@ABV01@@Z 0040ea34 f i bench2.obj
 0001:0000da61       ??4EC2N@CryptoPP@@QAEAAV01@ABV01@@Z 0040ea61 f i bench2.obj
 0001:0000daa0       ??4?$DL_GroupParameters@UECPPoint@CryptoPP@@@CryptoPP@@QAEAAV01@ABV01@@Z 0040eaa0 f i bench2.obj
 0001:0000daa0       ??4?$DL_GroupParameters@UEC2NPoint@CryptoPP@@@CryptoPP@@QAEAAV01@ABV01@@Z 0040eaa0 f i bench2.obj
 0001:0000daa0       ??4?$DL_GroupParameters@VInteger@CryptoPP@@@CryptoPP@@QAEAAV01@ABV01@@Z 0040eaa0 f i bench2.obj
 0001:0000dabb       ??8?$SecBlock@EV?$AllocatorWithCleanup@E$0A@@CryptoPP@@@CryptoPP@@QBE_NABV01@@Z 0040eabb f i bench2.obj
 0001:0000dae4       ??0?$IteratedHashWithStaticTransform@IU?$EnumToType@W4ByteOrder@CryptoPP@@$00@CryptoPP@@$0EA@$0CA@VSHA256@2@$0CA@$00@CryptoPP@@IAE@XZ 0040eae4 f i bench2.obj
 0001:0000db27       ??1?$FixedSizeAlignedSecBlock@I$0BA@$00@CryptoPP@@QAE@XZ 0040eb27 f i bench2.obj
 0001:0000db27       ??1?$FixedSizeAlignedSecBlock@I$0BA@$0A@@CryptoPP@@QAE@XZ 0040eb27 f i bench2.obj
 0001:0000db2c       ??4?$vector@UECPPoint@CryptoPP@@V?$allocator@UECPPoint@CryptoPP@@@std@@@std@@QAEAAV01@ABV01@@Z 0040eb2c f i bench2.obj
 0001:0000dd06       ??4?$vector@UEC2NPoint@CryptoPP@@V?$allocator@UEC2NPoint@CryptoPP@@@std@@@std@@QAEAAV01@ABV01@@Z 0040ed06 f i bench2.obj
 0001:0000dee0       ?StaticAlgorithmNamePrefix@?$DL_GroupParameters_EC@VEC2N@CryptoPP@@@CryptoPP@@SA?AV?$basic_string@DU?$char_traits@D@std@@V?$allocator@D@2@@std@@XZ 0040eee0 f i bench2.obj
 0001:0000dee0       ?StaticAlgorithmNamePrefix@?$DL_GroupParameters_EC@VECP@CryptoPP@@@CryptoPP@@SA?AV?$basic_string@DU?$char_traits@D@std@@V?$allocator@D@2@@std@@XZ 0040eee0 f i bench2.obj
 0001:0000df16       ?AccessHash@?$PK_MessageAccumulatorImpl@VSHA1@CryptoPP@@@CryptoPP@@UAEAAVHashTransformation@2@XZ 0040ef16 f i bench2.obj
 0001:0000df16       ?AccessHash@?$PK_MessageAccumulatorImpl@VSHA256@CryptoPP@@@CryptoPP@@UAEAAVHashTransformation@2@XZ 0040ef16 f i bench2.obj
 0001:0000df16       ?AccessHash@?$PK_MessageAccumulatorImpl@VMD2@Weak1@CryptoPP@@@CryptoPP@@UAEAAVHashTransformation@2@XZ 0040ef16 f i bench2.obj
 0001:0000df1a       ?StaticAlgorithmName@?$DL_SS@U?$DL_Keys_ECDSA@VECP@CryptoPP@@@CryptoPP@@V?$DL_Algorithm_ECDSA@VECP@CryptoPP@@@2@VDL_SignatureMessageEncodingMethod_DSA@2@VSHA256@2@H@CryptoPP@@SA?AV?$basic_string@DU?$char_traits@D@std@@V?$allocator@D@2@@std@@XZ 0040ef1a f i bench2.obj
 0001:0000dfbe       ?StaticAlgorithmName@?$DL_SS@U?$DL_Keys_ECDSA@VEC2N@CryptoPP@@@CryptoPP@@V?$DL_Algorithm_ECDSA@VEC2N@CryptoPP@@@2@VDL_SignatureMessageEncodingMethod_DSA@2@VSHA256@2@H@CryptoPP@@SA?AV?$basic_string@DU?$char_traits@D@std@@V?$allocator@D@2@@std@@XZ 0040efbe f i bench2.obj
 0001:0000e062       ??0?$SecBlock@IV?$FixedSizeAllocatorWithCleanup@I$0BA@V?$NullAllocator@I@CryptoPP@@$00@CryptoPP@@@CryptoPP@@QAE@I@Z 0040f062 f i bench2.obj
 0001:0000e062       ??0?$SecBlock@IV?$FixedSizeAllocatorWithCleanup@I$0BA@V?$NullAllocator@I@CryptoPP@@$0A@@CryptoPP@@@CryptoPP@@QAE@I@Z 0040f062 f i bench2.obj
 0001:0000e084       ??4?$value_ptr@VECP@CryptoPP@@@CryptoPP@@QAEAAV01@ABV01@@Z 0040f084 f i bench2.obj
 0001:0000e0e1       ??4?$clonable_ptr@VGF2NP@CryptoPP@@@CryptoPP@@QAEAAV01@ABV01@@Z 0040f0e1 f i bench2.obj
 0001:0000e10f       ??0?$PK_FinalTemplate@V?$DL_DecryptorImpl@U?$DL_CryptoSchemeOptions@U?$ECIES@VECP@CryptoPP@@U?$EnumToType@W4CofactorMultiplicationOption@CryptoPP@@$0A@@2@$0A@@CryptoPP@@U?$DL_Keys_EC@VECP@CryptoPP@@@2@V?$DL_KeyAgreementAlgorithm_DH@UECPPoint@CryptoPP@@U?$EnumToType@W4CofactorMultiplicationOption@CryptoPP@@$0A@@2@@2@V?$DL_KeyDerivationAlgorithm_P1363@UECPPoint@CryptoPP@@$0A@V?$P1363_KDF2@VSHA1@CryptoPP@@@2@@2@V?$DL_EncryptionAlgorithm_Xor@V?$HMAC@VSHA1@CryptoPP@@@CryptoPP@@$0A@@2@@CryptoPP@@@CryptoPP@@@CryptoPP@@QAE@AAVRandomNumberGenerator@1@AAVOID@1@@Z 0040f10f f i bench2.obj
 0001:0000e185       ??1?$DL_DecryptorImpl@U?$DL_CryptoSchemeOptions@U?$ECIES@VECP@CryptoPP@@U?$EnumToType@W4CofactorMultiplicationOption@CryptoPP@@$0A@@2@$0A@@CryptoPP@@U?$DL_Keys_EC@VECP@CryptoPP@@@2@V?$DL_KeyAgreementAlgorithm_DH@UECPPoint@CryptoPP@@U?$EnumToType@W4CofactorMultiplicationOption@CryptoPP@@$0A@@2@@2@V?$DL_KeyDerivationAlgorithm_P1363@UECPPoint@CryptoPP@@$0A@V?$P1363_KDF2@VSHA1@CryptoPP@@@2@@2@V?$DL_EncryptionAlgorithm_Xor@V?$HMAC@VSHA1@CryptoPP@@@CryptoPP@@$0A@@2@@CryptoPP@@@CryptoPP@@UAE@XZ 0040f185 f i bench2.obj
 0001:0000e185       ??1?$PK_FinalTemplate@V?$DL_DecryptorImpl@U?$DL_CryptoSchemeOptions@U?$ECIES@VECP@CryptoPP@@U?$EnumToType@W4CofactorMultiplicationOption@CryptoPP@@$0A@@2@$0A@@CryptoPP@@U?$DL_Keys_EC@VECP@CryptoPP@@@2@V?$DL_KeyAgreementAlgorithm_DH@UECPPoint@CryptoPP@@U?$EnumToType@W4CofactorMultiplicationOption@CryptoPP@@$0A@@2@@2@V?$DL_KeyDerivationAlgorithm_P1363@UECPPoint@CryptoPP@@$0A@V?$P1363_KDF2@VSHA1@CryptoPP@@@2@@2@V?$DL_EncryptionAlgorithm_Xor@V?$HMAC@VSHA1@CryptoPP@@@CryptoPP@@$0A@@2@@CryptoPP@@@CryptoPP@@@CryptoPP@@UAE@XZ 0040f185 f i bench2.obj
 0001:0000e18a       ??0?$PK_FinalTemplate@V?$DL_DecryptorImpl@U?$DL_CryptoSchemeOptions@U?$ECIES@VEC2N@CryptoPP@@U?$EnumToType@W4CofactorMultiplicationOption@CryptoPP@@$0A@@2@$0A@@CryptoPP@@U?$DL_Keys_EC@VEC2N@CryptoPP@@@2@V?$DL_KeyAgreementAlgorithm_DH@UEC2NPoint@CryptoPP@@U?$EnumToType@W4CofactorMultiplicationOption@CryptoPP@@$0A@@2@@2@V?$DL_KeyDerivationAlgorithm_P1363@UEC2NPoint@CryptoPP@@$0A@V?$P1363_KDF2@VSHA1@CryptoPP@@@2@@2@V?$DL_EncryptionAlgorithm_Xor@V?$HMAC@VSHA1@CryptoPP@@@CryptoPP@@$0A@@2@@CryptoPP@@@CryptoPP@@@CryptoPP@@QAE@AAVRandomNumberGenerator@1@AAVOID@1@@Z 0040f18a f i bench2.obj
 0001:0000e200       ??1?$PK_FinalTemplate@V?$DL_DecryptorImpl@U?$DL_CryptoSchemeOptions@U?$ECIES@VEC2N@CryptoPP@@U?$EnumToType@W4CofactorMultiplicationOption@CryptoPP@@$0A@@2@$0A@@CryptoPP@@U?$DL_Keys_EC@VEC2N@CryptoPP@@@2@V?$DL_KeyAgreementAlgorithm_DH@UEC2NPoint@CryptoPP@@U?$EnumToType@W4CofactorMultiplicationOption@CryptoPP@@$0A@@2@@2@V?$DL_KeyDerivationAlgorithm_P1363@UEC2NPoint@CryptoPP@@$0A@V?$P1363_KDF2@VSHA1@CryptoPP@@@2@@2@V?$DL_EncryptionAlgorithm_Xor@V?$HMAC@VSHA1@CryptoPP@@@CryptoPP@@$0A@@2@@CryptoPP@@@CryptoPP@@@CryptoPP@@UAE@XZ 0040f200 f i bench2.obj
 0001:0000e200       ??1?$DL_DecryptorImpl@U?$DL_CryptoSchemeOptions@U?$ECIES@VEC2N@CryptoPP@@U?$EnumToType@W4CofactorMultiplicationOption@CryptoPP@@$0A@@2@$0A@@CryptoPP@@U?$DL_Keys_EC@VEC2N@CryptoPP@@@2@V?$DL_KeyAgreementAlgorithm_DH@UEC2NPoint@CryptoPP@@U?$EnumToType@W4CofactorMultiplicationOption@CryptoPP@@$0A@@2@@2@V?$DL_KeyDerivationAlgorithm_P1363@UEC2NPoint@CryptoPP@@$0A@V?$P1363_KDF2@VSHA1@CryptoPP@@@2@@2@V?$DL_EncryptionAlgorithm_Xor@V?$HMAC@VSHA1@CryptoPP@@@CryptoPP@@$0A@@2@@CryptoPP@@@CryptoPP@@UAE@XZ 0040f200 f i bench2.obj
 0001:0000e205       ?GetThisObject@NameValuePairs@CryptoPP@@QBE_NAAV?$DL_GroupParameters_EC@VECP@CryptoPP@@@2@@Z 0040f205 f i bench2.obj
 0001:0000e2a5       ?GetThisObject@NameValuePairs@CryptoPP@@QBE_NAAV?$DL_GroupParameters_EC@VEC2N@CryptoPP@@@2@@Z 0040f2a5 f i bench2.obj
 0001:0000e345       ?Ref@?$Singleton@V?$DL_KeyAgreementAlgorithm_DH@UECPPoint@CryptoPP@@U?$EnumToType@W4CofactorMultiplicationOption@CryptoPP@@$0A@@2@@CryptoPP@@U?$NewObject@V?$DL_KeyAgreementAlgorithm_DH@UECPPoint@CryptoPP@@U?$EnumToType@W4CofactorMultiplicationOption@CryptoPP@@$0A@@2@@CryptoPP@@@2@$0A@@CryptoPP@@QBAABV?$DL_KeyAgreementAlgorithm_DH@UECPPoint@CryptoPP@@U?$EnumToType@W4CofactorMultiplicationOption@CryptoPP@@$0A@@2@@2@ZZ 0040f345 f i bench2.obj
 0001:0000e396       ?Ref@?$Singleton@V?$DL_KeyDerivationAlgorithm_P1363@UECPPoint@CryptoPP@@$0A@V?$P1363_KDF2@VSHA1@CryptoPP@@@2@@CryptoPP@@U?$NewObject@V?$DL_KeyDerivationAlgorithm_P1363@UECPPoint@CryptoPP@@$0A@V?$P1363_KDF2@VSHA1@CryptoPP@@@2@@CryptoPP@@@2@$0A@@CryptoPP@@QBAABV?$DL_KeyDerivationAlgorithm_P1363@UECPPoint@CryptoPP@@$0A@V?$P1363_KDF2@VSHA1@CryptoPP@@@2@@2@ZZ 0040f396 f i bench2.obj
 0001:0000e3e7       ?Ref@?$Singleton@V?$DL_EncryptionAlgorithm_Xor@V?$HMAC@VSHA1@CryptoPP@@@CryptoPP@@$0A@@CryptoPP@@U?$NewObject@V?$DL_EncryptionAlgorithm_Xor@V?$HMAC@VSHA1@CryptoPP@@@CryptoPP@@$0A@@CryptoPP@@@2@$0A@@CryptoPP@@QBAABV?$DL_EncryptionAlgorithm_Xor@V?$HMAC@VSHA1@CryptoPP@@@CryptoPP@@$0A@@2@ZZ 0040f3e7 f i bench2.obj
 0001:0000e438       ?Ref@?$Singleton@V?$DL_Algorithm_ECDSA@VECP@CryptoPP@@@CryptoPP@@U?$NewObject@V?$DL_Algorithm_ECDSA@VECP@CryptoPP@@@CryptoPP@@@2@$0A@@CryptoPP@@QBAABV?$DL_Algorithm_ECDSA@VECP@CryptoPP@@@2@ZZ 0040f438 f i bench2.obj
 0001:0000e489       ?Ref@?$Singleton@VDL_SignatureMessageEncodingMethod_DSA@CryptoPP@@U?$NewObject@VDL_SignatureMessageEncodingMethod_DSA@CryptoPP@@@2@$0A@@CryptoPP@@QBAABVDL_SignatureMessageEncodingMethod_DSA@2@ZZ 0040f489 f i bench2.obj
 0001:0000e4df       ?Ref@?$Singleton@V?$DL_KeyAgreementAlgorithm_DH@UECPPoint@CryptoPP@@U?$EnumToType@W4CofactorMultiplicationOption@CryptoPP@@$01@2@@CryptoPP@@U?$NewObject@V?$DL_KeyAgreementAlgorithm_DH@UECPPoint@CryptoPP@@U?$EnumToType@W4CofactorMultiplicationOption@CryptoPP@@$01@2@@CryptoPP@@@2@$0A@@CryptoPP@@QBAABV?$DL_KeyAgreementAlgorithm_DH@UECPPoint@CryptoPP@@U?$EnumToType@W4CofactorMultiplicationOption@CryptoPP@@$01@2@@2@ZZ 0040f4df f i bench2.obj
 0001:0000e530       ?Ref@?$Singleton@V?$DL_KeyAgreementAlgorithm_DH@UEC2NPoint@CryptoPP@@U?$EnumToType@W4CofactorMultiplicationOption@CryptoPP@@$0A@@2@@CryptoPP@@U?$NewObject@V?$DL_KeyAgreementAlgorithm_DH@UEC2NPoint@CryptoPP@@U?$EnumToType@W4CofactorMultiplicationOption@CryptoPP@@$0A@@2@@CryptoPP@@@2@$0A@@CryptoPP@@QBAABV?$DL_KeyAgreementAlgorithm_DH@UEC2NPoint@CryptoPP@@U?$EnumToType@W4CofactorMultiplicationOption@CryptoPP@@$0A@@2@@2@ZZ 0040f530 f i bench2.obj
 0001:0000e581       ?Ref@?$Singleton@V?$DL_KeyDerivationAlgorithm_P1363@UEC2NPoint@CryptoPP@@$0A@V?$P1363_KDF2@VSHA1@CryptoPP@@@2@@CryptoPP@@U?$NewObject@V?$DL_KeyDerivationAlgorithm_P1363@UEC2NPoint@CryptoPP@@$0A@V?$P1363_KDF2@VSHA1@CryptoPP@@@2@@CryptoPP@@@2@$0A@@CryptoPP@@QBAABV?$DL_KeyDerivationAlgorithm_P1363@UEC2NPoint@CryptoPP@@$0A@V?$P1363_KDF2@VSHA1@CryptoPP@@@2@@2@ZZ 0040f581 f i bench2.obj
 0001:0000e5d2       ?Ref@?$Singleton@V?$DL_Algorithm_ECDSA@VEC2N@CryptoPP@@@CryptoPP@@U?$NewObject@V?$DL_Algorithm_ECDSA@VEC2N@CryptoPP@@@CryptoPP@@@2@$0A@@CryptoPP@@QBAABV?$DL_Algorithm_ECDSA@VEC2N@CryptoPP@@@2@ZZ 0040f5d2 f i bench2.obj
 0001:0000e623       ?Ref@?$Singleton@V?$DL_KeyAgreementAlgorithm_DH@UEC2NPoint@CryptoPP@@U?$EnumToType@W4CofactorMultiplicationOption@CryptoPP@@$01@2@@CryptoPP@@U?$NewObject@V?$DL_KeyAgreementAlgorithm_DH@UEC2NPoint@CryptoPP@@U?$EnumToType@W4CofactorMultiplicationOption@CryptoPP@@$01@2@@CryptoPP@@@2@$0A@@CryptoPP@@QBAABV?$DL_KeyAgreementAlgorithm_DH@UEC2NPoint@CryptoPP@@U?$EnumToType@W4CofactorMultiplicationOption@CryptoPP@@$01@2@@2@ZZ 0040f623 f i bench2.obj
 0001:0000e674       ?SecureWipeArray@CryptoPP@@YAXPAII@Z 0040f674 f i bench2.obj
 0001:0000e6fd       ?_Construct@std@@YAXPAUECPPoint@CryptoPP@@ABU23@@Z 0040f6fd f i bench2.obj
 0001:0000e72a       ?_Construct@std@@YAXPAUEC2NPoint@CryptoPP@@ABU23@@Z 0040f72a f i bench2.obj
 0001:0000e757       ?s_pObject@?1??Ref@?$Singleton@V?$DL_KeyAgreementAlgorithm_DH@UEC2NPoint@CryptoPP@@U?$EnumToType@W4CofactorMultiplicationOption@CryptoPP@@$01@2@@CryptoPP@@U?$NewObject@V?$DL_KeyAgreementAlgorithm_DH@UEC2NPoint@CryptoPP@@U?$EnumToType@W4CofactorMultiplicationOption@CryptoPP@@$01@2@@CryptoPP@@@2@$0A@@CryptoPP@@QBAABV?$DL_KeyAgreementAlgorithm_DH@UEC2NPoint@CryptoPP@@U?$EnumToType@W4CofactorMultiplicationOption@CryptoPP@@$01@2@@2@ZZ@$AV?$simple_ptr@V?$DL_KeyAgreementAlgorithm_DH@UEC2NPoint@CryptoPP@@U?$EnumToType@W4CofactorMultiplicationOption@CryptoPP@@$01@2@@CryptoPP@@@2@C 0040f757 f i bench2.obj
 0001:0000e76b       ?s_pObject@?1??Ref@?$Singleton@V?$DL_Algorithm_ECDSA@VEC2N@CryptoPP@@@CryptoPP@@U?$NewObject@V?$DL_Algorithm_ECDSA@VEC2N@CryptoPP@@@CryptoPP@@@2@$0A@@CryptoPP@@QBAABV?$DL_Algorithm_ECDSA@VEC2N@CryptoPP@@@2@ZZ@$AV?$simple_ptr@V?$DL_Algorithm_ECDSA@VEC2N@CryptoPP@@@CryptoPP@@@2@C 0040f76b f i bench2.obj
 0001:0000e77f       ?s_pObject@?1??Ref@?$Singleton@V?$DL_KeyDerivationAlgorithm_P1363@UEC2NPoint@CryptoPP@@$0A@V?$P1363_KDF2@VSHA1@CryptoPP@@@2@@CryptoPP@@U?$NewObject@V?$DL_KeyDerivationAlgorithm_P1363@UEC2NPoint@CryptoPP@@$0A@V?$P1363_KDF2@VSHA1@CryptoPP@@@2@@CryptoPP@@@2@$0A@@CryptoPP@@QBAABV?$DL_KeyDerivationAlgorithm_P1363@UEC2NPoint@CryptoPP@@$0A@V?$P1363_KDF2@VSHA1@CryptoPP@@@2@@2@ZZ@$AV?$simple_ptr@V?$DL_KeyDerivationAlgorithm_P1363@UEC2NPoint@CryptoPP@@$0A@V?$P1363_KDF2@VSHA1@CryptoPP@@@2@@CryptoPP@@@2@C 0040f77f f i bench2.obj
 0001:0000e793       ?s_pObject@?1??Ref@?$Singleton@V?$DL_KeyAgreementAlgorithm_DH@UEC2NPoint@CryptoPP@@U?$EnumToType@W4CofactorMultiplicationOption@CryptoPP@@$0A@@2@@CryptoPP@@U?$NewObject@V?$DL_KeyAgreementAlgorithm_DH@UEC2NPoint@CryptoPP@@U?$EnumToType@W4CofactorMultiplicationOption@CryptoPP@@$0A@@2@@CryptoPP@@@2@$0A@@CryptoPP@@QBAABV?$DL_KeyAgreementAlgorithm_DH@UEC2NPoint@CryptoPP@@U?$EnumToType@W4CofactorMultiplicationOption@CryptoPP@@$0A@@2@@2@ZZ@$AV?$simple_ptr@V?$DL_KeyAgreementAlgorithm_DH@UEC2NPoint@CryptoPP@@U?$EnumToType@W4CofactorMultiplicationOption@CryptoPP@@$0A@@2@@CryptoPP@@@2@C 0040f793 f i bench2.obj
 0001:0000e7a7       ?s_pObject@?1??Ref@?$Singleton@V?$DL_KeyAgreementAlgorithm_DH@UECPPoint@CryptoPP@@U?$EnumToType@W4CofactorMultiplicationOption@CryptoPP@@$01@2@@CryptoPP@@U?$NewObject@V?$DL_KeyAgreementAlgorithm_DH@UECPPoint@CryptoPP@@U?$EnumToType@W4CofactorMultiplicationOption@CryptoPP@@$01@2@@CryptoPP@@@2@$0A@@CryptoPP@@QBAABV?$DL_KeyAgreementAlgorithm_DH@UECPPoint@CryptoPP@@U?$EnumToType@W4CofactorMultiplicationOption@CryptoPP@@$01@2@@2@ZZ@$AV?$simple_ptr@V?$DL_KeyAgreementAlgorithm_DH@UECPPoint@CryptoPP@@U?$EnumToType@W4CofactorMultiplicationOption@CryptoPP@@$01@2@@CryptoPP@@@2@C 0040f7a7 f i bench2.obj
 0001:0000e7bb       ?s_pObject@?1??Ref@?$Singleton@VDL_SignatureMessageEncodingMethod_DSA@CryptoPP@@U?$NewObject@VDL_SignatureMessageEncodingMethod_DSA@CryptoPP@@@2@$0A@@CryptoPP@@QBAABVDL_SignatureMessageEncodingMethod_DSA@2@ZZ@$AV?$simple_ptr@VDL_SignatureMessageEncodingMethod_DSA@CryptoPP@@@2@C 0040f7bb f i bench2.obj
 0001:0000e7c5       ?s_pObject@?1??Ref@?$Singleton@V?$DL_Algorithm_ECDSA@VECP@CryptoPP@@@CryptoPP@@U?$NewObject@V?$DL_Algorithm_ECDSA@VECP@CryptoPP@@@CryptoPP@@@2@$0A@@CryptoPP@@QBAABV?$DL_Algorithm_ECDSA@VECP@CryptoPP@@@2@ZZ@$AV?$simple_ptr@V?$DL_Algorithm_ECDSA@VECP@CryptoPP@@@CryptoPP@@@2@C 0040f7c5 f i bench2.obj
 0001:0000e7d9       ?s_pObject@?1??Ref@?$Singleton@V?$DL_EncryptionAlgorithm_Xor@V?$HMAC@VSHA1@CryptoPP@@@CryptoPP@@$0A@@CryptoPP@@U?$NewObject@V?$DL_EncryptionAlgorithm_Xor@V?$HMAC@VSHA1@CryptoPP@@@CryptoPP@@$0A@@CryptoPP@@@2@$0A@@CryptoPP@@QBAABV?$DL_EncryptionAlgorithm_Xor@V?$HMAC@VSHA1@CryptoPP@@@CryptoPP@@$0A@@2@ZZ@$AV?$simple_ptr@V?$DL_EncryptionAlgorithm_Xor@V?$HMAC@VSHA1@CryptoPP@@@CryptoPP@@$0A@@CryptoPP@@@2@C 0040f7d9 f i bench2.obj
 0001:0000e7ed       ?s_pObject@?1??Ref@?$Singleton@V?$DL_KeyDerivationAlgorithm_P1363@UECPPoint@CryptoPP@@$0A@V?$P1363_KDF2@VSHA1@CryptoPP@@@2@@CryptoPP@@U?$NewObject@V?$DL_KeyDerivationAlgorithm_P1363@UECPPoint@CryptoPP@@$0A@V?$P1363_KDF2@VSHA1@CryptoPP@@@2@@CryptoPP@@@2@$0A@@CryptoPP@@QBAABV?$DL_KeyDerivationAlgorithm_P1363@UECPPoint@CryptoPP@@$0A@V?$P1363_KDF2@VSHA1@CryptoPP@@@2@@2@ZZ@$AV?$simple_ptr@V?$DL_KeyDerivationAlgorithm_P1363@UECPPoint@CryptoPP@@$0A@V?$P1363_KDF2@VSHA1@CryptoPP@@@2@@CryptoPP@@@2@C 0040f7ed f i bench2.obj
 0001:0000e801       ?s_pObject@?1??Ref@?$Singleton@V?$DL_KeyAgreementAlgorithm_DH@UECPPoint@CryptoPP@@U?$EnumToType@W4CofactorMultiplicationOption@CryptoPP@@$0A@@2@@CryptoPP@@U?$NewObject@V?$DL_KeyAgreementAlgorithm_DH@UECPPoint@CryptoPP@@U?$EnumToType@W4CofactorMultiplicationOption@CryptoPP@@$0A@@2@@CryptoPP@@@2@$0A@@CryptoPP@@QBAABV?$DL_KeyAgreementAlgorithm_DH@UECPPoint@CryptoPP@@U?$EnumToType@W4CofactorMultiplicationOption@CryptoPP@@$0A@@2@@2@ZZ@$AV?$simple_ptr@V?$DL_KeyAgreementAlgorithm_DH@UECPPoint@CryptoPP@@U?$EnumToType@W4CofactorMultiplicationOption@CryptoPP@@$0A@@2@@CryptoPP@@@2@C 0040f801 f i bench2.obj
 0001:0000e815       ??0?$DL_DecryptorImpl@U?$DL_CryptoSchemeOptions@U?$ECIES@VECP@CryptoPP@@U?$EnumToType@W4CofactorMultiplicationOption@CryptoPP@@$0A@@2@$0A@@CryptoPP@@U?$DL_Keys_EC@VECP@CryptoPP@@@2@V?$DL_KeyAgreementAlgorithm_DH@UECPPoint@CryptoPP@@U?$EnumToType@W4CofactorMultiplicationOption@CryptoPP@@$0A@@2@@2@V?$DL_KeyDerivationAlgorithm_P1363@UECPPoint@CryptoPP@@$0A@V?$P1363_KDF2@VSHA1@CryptoPP@@@2@@2@V?$DL_EncryptionAlgorithm_Xor@V?$HMAC@VSHA1@CryptoPP@@@CryptoPP@@$0A@@2@@CryptoPP@@@CryptoPP@@QAE@XZ 0040f815 f i bench2.obj
 0001:0000e835       ?GetKeyAgreementAlgorithm@?$DL_ObjectImpl@V?$DL_EncryptorBase@UECPPoint@CryptoPP@@@CryptoPP@@U?$DL_CryptoSchemeOptions@U?$ECIES@VECP@CryptoPP@@U?$EnumToType@W4CofactorMultiplicationOption@CryptoPP@@$0A@@2@$0A@@CryptoPP@@U?$DL_Keys_EC@VECP@CryptoPP@@@2@V?$DL_KeyAgreementAlgorithm_DH@UECPPoint@CryptoPP@@U?$EnumToType@W4CofactorMultiplicationOption@CryptoPP@@$0A@@2@@2@V?$DL_KeyDerivationAlgorithm_P1363@UECPPoint@CryptoPP@@$0A@V?$P1363_KDF2@VSHA1@CryptoPP@@@2@@2@V?$DL_EncryptionAlgorithm_Xor@V?$HMAC@VSHA1@CryptoPP@@@CryptoPP@@$0A@@2@@2@V?$DL_PublicKey_EC@VECP@CryptoPP@@@2@@CryptoPP@@MBEABV?$DL_KeyAgreementAlgorithm@UECPPoint@CryptoPP@@@2@XZ 0040f835 f i bench2.obj
 0001:0000e835       ?GetKeyAgreementAlgorithm@?$DL_ObjectImpl@V?$DL_DecryptorBase@UECPPoint@CryptoPP@@@CryptoPP@@U?$DL_CryptoSchemeOptions@U?$ECIES@VECP@CryptoPP@@U?$EnumToType@W4CofactorMultiplicationOption@CryptoPP@@$0A@@2@$0A@@CryptoPP@@U?$DL_Keys_EC@VECP@CryptoPP@@@2@V?$DL_KeyAgreementAlgorithm_DH@UECPPoint@CryptoPP@@U?$EnumToType@W4CofactorMultiplicationOption@CryptoPP@@$0A@@2@@2@V?$DL_KeyDerivationAlgorithm_P1363@UECPPoint@CryptoPP@@$0A@V?$P1363_KDF2@VSHA1@CryptoPP@@@2@@2@V?$DL_EncryptionAlgorithm_Xor@V?$HMAC@VSHA1@CryptoPP@@@CryptoPP@@$0A@@2@@2@V?$DL_PrivateKey_EC@VECP@CryptoPP@@@2@@CryptoPP@@MBEABV?$DL_KeyAgreementAlgorithm@UECPPoint@CryptoPP@@@2@XZ 0040f835 f i bench2.obj
 0001:0000e84b       ?GetKeyDerivationAlgorithm@?$DL_ObjectImpl@V?$DL_EncryptorBase@UECPPoint@CryptoPP@@@CryptoPP@@U?$DL_CryptoSchemeOptions@U?$ECIES@VECP@CryptoPP@@U?$EnumToType@W4CofactorMultiplicationOption@CryptoPP@@$0A@@2@$0A@@CryptoPP@@U?$DL_Keys_EC@VECP@CryptoPP@@@2@V?$DL_KeyAgreementAlgorithm_DH@UECPPoint@CryptoPP@@U?$EnumToType@W4CofactorMultiplicationOption@CryptoPP@@$0A@@2@@2@V?$DL_KeyDerivationAlgorithm_P1363@UECPPoint@CryptoPP@@$0A@V?$P1363_KDF2@VSHA1@CryptoPP@@@2@@2@V?$DL_EncryptionAlgorithm_Xor@V?$HMAC@VSHA1@CryptoPP@@@CryptoPP@@$0A@@2@@2@V?$DL_PublicKey_EC@VECP@CryptoPP@@@2@@CryptoPP@@MBEABV?$DL_KeyDerivationAlgorithm@UECPPoint@CryptoPP@@@2@XZ 0040f84b f i bench2.obj
 0001:0000e84b       ?GetKeyDerivationAlgorithm@?$DL_ObjectImpl@V?$DL_DecryptorBase@UECPPoint@CryptoPP@@@CryptoPP@@U?$DL_CryptoSchemeOptions@U?$ECIES@VECP@CryptoPP@@U?$EnumToType@W4CofactorMultiplicationOption@CryptoPP@@$0A@@2@$0A@@CryptoPP@@U?$DL_Keys_EC@VECP@CryptoPP@@@2@V?$DL_KeyAgreementAlgorithm_DH@UECPPoint@CryptoPP@@U?$EnumToType@W4CofactorMultiplicationOption@CryptoPP@@$0A@@2@@2@V?$DL_KeyDerivationAlgorithm_P1363@UECPPoint@CryptoPP@@$0A@V?$P1363_KDF2@VSHA1@CryptoPP@@@2@@2@V?$DL_EncryptionAlgorithm_Xor@V?$HMAC@VSHA1@CryptoPP@@@CryptoPP@@$0A@@2@@2@V?$DL_PrivateKey_EC@VECP@CryptoPP@@@2@@CryptoPP@@MBEABV?$DL_KeyDerivationAlgorithm@UECPPoint@CryptoPP@@@2@XZ 0040f84b f i bench2.obj
 0001:0000e861       ?Decrypt@?$DL_DecryptorBase@UECPPoint@CryptoPP@@@CryptoPP@@UBE?AUDecodingResult@2@AAVRandomNumberGenerator@2@PBEIPAEABVNameValuePairs@2@@Z 0040f861 f i bench2.obj
 0001:0000e9a5       ?MaxPlaintextLength@?$DL_CryptoSystemBase@VPK_Encryptor@CryptoPP@@V?$DL_PublicKey@UECPPoint@CryptoPP@@@2@@CryptoPP@@UBEII@Z 0040f9a5 f i bench2.obj
 0001:0000e9a5       ?MaxPlaintextLength@?$DL_CryptoSystemBase@VPK_Decryptor@CryptoPP@@V?$DL_PrivateKey@UEC2NPoint@CryptoPP@@@2@@CryptoPP@@UBEII@Z 0040f9a5 f i bench2.obj
 0001:0000e9a5       ?MaxPlaintextLength@?$DL_CryptoSystemBase@VPK_Encryptor@CryptoPP@@V?$DL_PublicKey@UEC2NPoint@CryptoPP@@@2@@CryptoPP@@UBEII@Z 0040f9a5 f i bench2.obj
 0001:0000e9a5       ?MaxPlaintextLength@?$DL_CryptoSystemBase@VPK_Decryptor@CryptoPP@@V?$DL_PrivateKey@UECPPoint@CryptoPP@@@2@@CryptoPP@@UBEII@Z 0040f9a5 f i bench2.obj
 0001:0000e9a5       ?MaxPlaintextLength@?$DL_CryptoSystemBase@VPK_Decryptor@CryptoPP@@V?$DL_PrivateKey@VInteger@CryptoPP@@@2@@CryptoPP@@UBEII@Z 0040f9a5 f i bench2.obj
 0001:0000e9a5       ?MaxPlaintextLength@?$DL_CryptoSystemBase@VPK_Encryptor@CryptoPP@@V?$DL_PublicKey@VInteger@CryptoPP@@@2@@CryptoPP@@UBEII@Z 0040f9a5 f i bench2.obj
 0001:0000e9e7       ??0?$DL_DecryptorImpl@U?$DL_CryptoSchemeOptions@U?$ECIES@VEC2N@CryptoPP@@U?$EnumToType@W4CofactorMultiplicationOption@CryptoPP@@$0A@@2@$0A@@CryptoPP@@U?$DL_Keys_EC@VEC2N@CryptoPP@@@2@V?$DL_KeyAgreementAlgorithm_DH@UEC2NPoint@CryptoPP@@U?$EnumToType@W4CofactorMultiplicationOption@CryptoPP@@$0A@@2@@2@V?$DL_KeyDerivationAlgorithm_P1363@UEC2NPoint@CryptoPP@@$0A@V?$P1363_KDF2@VSHA1@CryptoPP@@@2@@2@V?$DL_EncryptionAlgorithm_Xor@V?$HMAC@VSHA1@CryptoPP@@@CryptoPP@@$0A@@2@@CryptoPP@@@CryptoPP@@QAE@XZ 0040f9e7 f i bench2.obj
 0001:0000ea07       ?AccessPublicKey@?$DL_ObjectImplBase@V?$DL_EncryptorBase@VInteger@CryptoPP@@@CryptoPP@@U?$DL_CryptoSchemeOptions@UElGamal@CryptoPP@@UElGamalKeys@2@HHH@2@V?$DL_PublicKey_GFP_OldFormat@V?$DL_PublicKey_GFP@VDL_GroupParameters_GFP_DefaultSafePrime@CryptoPP@@@CryptoPP@@@2@@CryptoPP@@UAEAAVPublicKey@2@XZ 0040fa07 f i bench2.obj
 0001:0000ea07       ?AccessPublicKey@?$DL_ObjectImplBase@V?$DL_VerifierBase@VInteger@CryptoPP@@@CryptoPP@@U?$DL_SignatureSchemeOptions@V?$DL_SS@UDL_SignatureKeys_GFP@CryptoPP@@V?$DL_Algorithm_GDSA@VInteger@CryptoPP@@@2@VDL_SignatureMessageEncodingMethod_DSA@2@VSHA1@2@H@CryptoPP@@UDL_SignatureKeys_GFP@2@V?$DL_Algorithm_GDSA@VInteger@CryptoPP@@@2@VDL_SignatureMessageEncodingMethod_DSA@2@VSHA1@2@@2@V?$DL_PublicKey_GFP@VDL_GroupParameters_GFP@CryptoPP@@@2@@CryptoPP@@UAEAAVPublicKey@2@XZ 0040fa07 f i bench2.obj
 0001:0000ea07       ?AccessPublicKey@?$DL_ObjectImplBase@V?$DL_VerifierBase@UEC2NPoint@CryptoPP@@@CryptoPP@@U?$DL_SignatureSchemeOptions@V?$DL_SS@U?$DL_Keys_ECDSA@VEC2N@CryptoPP@@@CryptoPP@@V?$DL_Algorithm_ECDSA@VEC2N@CryptoPP@@@2@VDL_SignatureMessageEncodingMethod_DSA@2@VSHA1@2@H@CryptoPP@@U?$DL_Keys_ECDSA@VEC2N@CryptoPP@@@2@V?$DL_Algorithm_ECDSA@VEC2N@CryptoPP@@@2@VDL_SignatureMessageEncodingMethod_DSA@2@VSHA1@2@@2@V?$DL_PublicKey_EC@VEC2N@CryptoPP@@@2@@CryptoPP@@UAEAAVPublicKey@2@XZ 0040fa07 f i bench2.obj
 0001:0000ea07       ?AccessPublicKey@?$DL_ObjectImplBase@V?$DL_VerifierBase@UEC2NPoint@CryptoPP@@@CryptoPP@@U?$DL_SignatureSchemeOptions@V?$DL_SS@U?$DL_Keys_ECDSA@VEC2N@CryptoPP@@@CryptoPP@@V?$DL_Algorithm_ECDSA@VEC2N@CryptoPP@@@2@VDL_SignatureMessageEncodingMethod_DSA@2@VSHA256@2@H@CryptoPP@@U?$DL_Keys_ECDSA@VEC2N@CryptoPP@@@2@V?$DL_Algorithm_ECDSA@VEC2N@CryptoPP@@@2@VDL_SignatureMessageEncodingMethod_DSA@2@VSHA256@2@@2@V?$DL_PublicKey_EC@VEC2N@CryptoPP@@@2@@CryptoPP@@UAEAAVPublicKey@2@XZ 0040fa07 f i bench2.obj
 0001:0000ea07       ?AccessPrivateKey@?$DL_ObjectImplBase@V?$DL_SignerBase@UECPPoint@CryptoPP@@@CryptoPP@@U?$DL_SignatureSchemeOptions@V?$DL_SS@U?$DL_Keys_ECDSA@VECP@CryptoPP@@@CryptoPP@@V?$DL_Algorithm_ECDSA@VECP@CryptoPP@@@2@VDL_SignatureMessageEncodingMethod_DSA@2@VSHA256@2@H@CryptoPP@@U?$DL_Keys_ECDSA@VECP@CryptoPP@@@2@V?$DL_Algorithm_ECDSA@VECP@CryptoPP@@@2@VDL_SignatureMessageEncodingMethod_DSA@2@VSHA256@2@@2@V?$DL_PrivateKey_WithSignaturePairwiseConsistencyTest@V?$DL_PrivateKey_EC@VECP@CryptoPP@@@CryptoPP@@U?$ECDSA@VECP@CryptoPP@@VSHA256@2@@2@@2@@CryptoPP@@UAEAAVPrivateKey@2@XZ 0040fa07 f i bench2.obj
 0001:0000ea07       ?AccessPublicKey@?$DL_ObjectImplBase@V?$DL_EncryptorBase@UEC2NPoint@CryptoPP@@@CryptoPP@@U?$DL_CryptoSchemeOptions@U?$ECIES@VEC2N@CryptoPP@@U?$EnumToType@W4CofactorMultiplicationOption@CryptoPP@@$0A@@2@$0A@@CryptoPP@@U?$DL_Keys_EC@VEC2N@CryptoPP@@@2@V?$DL_KeyAgreementAlgorithm_DH@UEC2NPoint@CryptoPP@@U?$EnumToType@W4CofactorMultiplicationOption@CryptoPP@@$0A@@2@@2@V?$DL_KeyDerivationAlgorithm_P1363@UEC2NPoint@CryptoPP@@$0A@V?$P1363_KDF2@VSHA1@CryptoPP@@@2@@2@V?$DL_EncryptionAlgorithm_Xor@V?$HMAC@VSHA1@CryptoPP@@@CryptoPP@@$0A@@2@@2@V?$DL_PublicKey_EC@VEC2N@CryptoPP@@@2@@CryptoPP@@UAEAAVPublicKey@2@XZ 0040fa07 f i bench2.obj
 0001:0000ea07       ?AccessPublicKey@?$DL_ObjectImplBase@V?$DL_VerifierBase@VInteger@CryptoPP@@@CryptoPP@@U?$DL_SignatureSchemeOptions@V?$DL_SS@UDL_SignatureKeys_LUC@CryptoPP@@VDL_Algorithm_LUC_HMP@2@VDL_SignatureMessageEncodingMethod_DSA@2@VSHA1@2@H@CryptoPP@@UDL_SignatureKeys_LUC@2@VDL_Algorithm_LUC_HMP@2@VDL_SignatureMessageEncodingMethod_DSA@2@VSHA1@2@@2@V?$DL_PublicKey_GFP@VDL_GroupParameters_LUC@CryptoPP@@@2@@CryptoPP@@UAEAAVPublicKey@2@XZ 0040fa07 f i bench2.obj
 0001:0000ea07       ?AccessPrivateKey@?$DL_ObjectImplBase@V?$DL_SignerBase@VInteger@CryptoPP@@@CryptoPP@@U?$DL_SignatureSchemeOptions@V?$DL_SS@UDL_SignatureKeys_GFP@CryptoPP@@V?$DL_Algorithm_GDSA@VInteger@CryptoPP@@@2@VDL_SignatureMessageEncodingMethod_DSA@2@VSHA1@2@H@CryptoPP@@UDL_SignatureKeys_GFP@2@V?$DL_Algorithm_GDSA@VInteger@CryptoPP@@@2@VDL_SignatureMessageEncodingMethod_DSA@2@VSHA1@2@@2@V?$DL_PrivateKey_GFP@VDL_GroupParameters_GFP@CryptoPP@@@2@@CryptoPP@@UAEAAVPrivateKey@2@XZ 0040fa07 f i bench2.obj
 0001:0000ea07       ?AccessPublicKey@?$DL_ObjectImplBase@V?$DL_VerifierBase@UECPPoint@CryptoPP@@@CryptoPP@@U?$DL_SignatureSchemeOptions@V?$DL_SS@U?$DL_Keys_ECDSA@VECP@CryptoPP@@@CryptoPP@@V?$DL_Algorithm_ECDSA@VECP@CryptoPP@@@2@VDL_SignatureMessageEncodingMethod_DSA@2@VSHA256@2@H@CryptoPP@@U?$DL_Keys_ECDSA@VECP@CryptoPP@@@2@V?$DL_Algorithm_ECDSA@VECP@CryptoPP@@@2@VDL_SignatureMessageEncodingMethod_DSA@2@VSHA256@2@@2@V?$DL_PublicKey_EC@VECP@CryptoPP@@@2@@CryptoPP@@UAEAAVPublicKey@2@XZ 0040fa07 f i bench2.obj
 0001:0000ea07       ?AccessPublicKey@?$DL_ObjectImplBase@V?$DL_EncryptorBase@UECPPoint@CryptoPP@@@CryptoPP@@U?$DL_CryptoSchemeOptions@U?$ECIES@VECP@CryptoPP@@U?$EnumToType@W4CofactorMultiplicationOption@CryptoPP@@$0A@@2@$0A@@CryptoPP@@U?$DL_Keys_EC@VECP@CryptoPP@@@2@V?$DL_KeyAgreementAlgorithm_DH@UECPPoint@CryptoPP@@U?$EnumToType@W4CofactorMultiplicationOption@CryptoPP@@$0A@@2@@2@V?$DL_KeyDerivationAlgorithm_P1363@UECPPoint@CryptoPP@@$0A@V?$P1363_KDF2@VSHA1@CryptoPP@@@2@@2@V?$DL_EncryptionAlgorithm_Xor@V?$HMAC@VSHA1@CryptoPP@@@CryptoPP@@$0A@@2@@2@V?$DL_PublicKey_EC@VECP@CryptoPP@@@2@@CryptoPP@@UAEAAVPublicKey@2@XZ 0040fa07 f i bench2.obj
 0001:0000ea07       ?AccessPrivateKey@?$DL_ObjectImplBase@V?$DL_DecryptorBase@VInteger@CryptoPP@@@CryptoPP@@U?$DL_CryptoSchemeOptions@U?$LUC_IES@U?$EnumToType@W4CofactorMultiplicationOption@CryptoPP@@$0A@@CryptoPP@@$00@CryptoPP@@UDL_CryptoKeys_LUC@2@V?$DL_KeyAgreementAlgorithm_DH@VInteger@CryptoPP@@U?$EnumToType@W4CofactorMultiplicationOption@CryptoPP@@$0A@@2@@2@V?$DL_KeyDerivationAlgorithm_P1363@VInteger@CryptoPP@@$00V?$P1363_KDF2@VSHA1@CryptoPP@@@2@@2@V?$DL_EncryptionAlgorithm_Xor@V?$HMAC@VSHA1@CryptoPP@@@CryptoPP@@$00@2@@2@V?$DL_PrivateKey_GFP@VDL_GroupParameters_LUC_DefaultSafePrime@CryptoPP@@@2@@CryptoPP@@UAEAAVPrivateKey@2@XZ 0040fa07 f i bench2.obj
 0001:0000ea07       ?AccessPrivateKey@?$DL_ObjectImplBase@V?$DL_DecryptorBase@UEC2NPoint@CryptoPP@@@CryptoPP@@U?$DL_CryptoSchemeOptions@U?$ECIES@VEC2N@CryptoPP@@U?$EnumToType@W4CofactorMultiplicationOption@CryptoPP@@$0A@@2@$0A@@CryptoPP@@U?$DL_Keys_EC@VEC2N@CryptoPP@@@2@V?$DL_KeyAgreementAlgorithm_DH@UEC2NPoint@CryptoPP@@U?$EnumToType@W4CofactorMultiplicationOption@CryptoPP@@$0A@@2@@2@V?$DL_KeyDerivationAlgorithm_P1363@UEC2NPoint@CryptoPP@@$0A@V?$P1363_KDF2@VSHA1@CryptoPP@@@2@@2@V?$DL_EncryptionAlgorithm_Xor@V?$HMAC@VSHA1@CryptoPP@@@CryptoPP@@$0A@@2@@2@V?$DL_PrivateKey_EC@VEC2N@CryptoPP@@@2@@CryptoPP@@UAEAAVPrivateKey@2@XZ 0040fa07 f i bench2.obj
 0001:0000ea07       ?AccessPrivateKey@?$DL_ObjectImplBase@V?$DL_SignerBase@UECPPoint@CryptoPP@@@CryptoPP@@U?$DL_SignatureSchemeOptions@V?$DL_SS@U?$DL_Keys_ECDSA@VECP@CryptoPP@@@CryptoPP@@V?$DL_Algorithm_ECDSA@VECP@CryptoPP@@@2@VDL_SignatureMessageEncodingMethod_DSA@2@VSHA1@2@H@CryptoPP@@U?$DL_Keys_ECDSA@VECP@CryptoPP@@@2@V?$DL_Algorithm_ECDSA@VECP@CryptoPP@@@2@VDL_SignatureMessageEncodingMethod_DSA@2@VSHA1@2@@2@V?$DL_PrivateKey_WithSignaturePairwiseConsistencyTest@V?$DL_PrivateKey_EC@VECP@CryptoPP@@@CryptoPP@@U?$ECDSA@VECP@CryptoPP@@VSHA256@2@@2@@2@@CryptoPP@@UAEAAVPrivateKey@2@XZ 0040fa07 f i bench2.obj
 0001:0000ea07       ?AccessPrivateKey@?$DL_ObjectImplBase@V?$DL_SignerBase@UEC2NPoint@CryptoPP@@@CryptoPP@@U?$DL_SignatureSchemeOptions@V?$DL_SS@U?$DL_Keys_ECDSA@VEC2N@CryptoPP@@@CryptoPP@@V?$DL_Algorithm_ECDSA@VEC2N@CryptoPP@@@2@VDL_SignatureMessageEncodingMethod_DSA@2@VSHA256@2@H@CryptoPP@@U?$DL_Keys_ECDSA@VEC2N@CryptoPP@@@2@V?$DL_Algorithm_ECDSA@VEC2N@CryptoPP@@@2@VDL_SignatureMessageEncodingMethod_DSA@2@VSHA256@2@@2@V?$DL_PrivateKey_WithSignaturePairwiseConsistencyTest@V?$DL_PrivateKey_EC@VEC2N@CryptoPP@@@CryptoPP@@U?$ECDSA@VEC2N@CryptoPP@@VSHA256@2@@2@@2@@CryptoPP@@UAEAAVPrivateKey@2@XZ 0040fa07 f i bench2.obj
 0001:0000ea07       ?AccessPrivateKey@?$DL_ObjectImplBase@V?$DL_DecryptorBase@UECPPoint@CryptoPP@@@CryptoPP@@U?$DL_CryptoSchemeOptions@U?$ECIES@VECP@CryptoPP@@U?$EnumToType@W4CofactorMultiplicationOption@CryptoPP@@$0A@@2@$0A@@CryptoPP@@U?$DL_Keys_EC@VECP@CryptoPP@@@2@V?$DL_KeyAgreementAlgorithm_DH@UECPPoint@CryptoPP@@U?$EnumToType@W4CofactorMultiplicationOption@CryptoPP@@$0A@@2@@2@V?$DL_KeyDerivationAlgorithm_P1363@UECPPoint@CryptoPP@@$0A@V?$P1363_KDF2@VSHA1@CryptoPP@@@2@@2@V?$DL_EncryptionAlgorithm_Xor@V?$HMAC@VSHA1@CryptoPP@@@CryptoPP@@$0A@@2@@2@V?$DL_PrivateKey_EC@VECP@CryptoPP@@@2@@CryptoPP@@UAEAAVPrivateKey@2@XZ 0040fa07 f i bench2.obj
 0001:0000ea07       ?AccessPublicKey@?$DL_ObjectImplBase@V?$DL_VerifierBase@VInteger@CryptoPP@@@CryptoPP@@U?$DL_SignatureSchemeOptions@UDSA@CryptoPP@@UDL_Keys_DSA@2@V?$DL_Algorithm_GDSA@VInteger@CryptoPP@@@2@VDL_SignatureMessageEncodingMethod_DSA@2@VSHA1@2@@2@V?$DL_PublicKey_GFP@VDL_GroupParameters_DSA@CryptoPP@@@2@@CryptoPP@@UAEAAVPublicKey@2@XZ 0040fa07 f i bench2.obj
 0001:0000ea07       ?AccessPublicKey@?$DL_ObjectImplBase@V?$DL_VerifierBase@VInteger@CryptoPP@@@CryptoPP@@U?$DL_SignatureSchemeOptions@V?$DL_SS@UDL_SignatureKeys_GFP@CryptoPP@@V?$DL_Algorithm_NR@VInteger@CryptoPP@@@2@VDL_SignatureMessageEncodingMethod_NR@2@VSHA1@2@H@CryptoPP@@UDL_SignatureKeys_GFP@2@V?$DL_Algorithm_NR@VInteger@CryptoPP@@@2@VDL_SignatureMessageEncodingMethod_NR@2@VSHA1@2@@2@V?$DL_PublicKey_GFP@VDL_GroupParameters_GFP@CryptoPP@@@2@@CryptoPP@@UAEAAVPublicKey@2@XZ 0040fa07 f i bench2.obj
 0001:0000ea07       ?AccessPublicKey@?$DL_ObjectImplBase@V?$DL_VerifierBase@UECPPoint@CryptoPP@@@CryptoPP@@U?$DL_SignatureSchemeOptions@V?$DL_SS@U?$DL_Keys_ECDSA@VECP@CryptoPP@@@CryptoPP@@V?$DL_Algorithm_ECDSA@VECP@CryptoPP@@@2@VDL_SignatureMessageEncodingMethod_DSA@2@VSHA1@2@H@CryptoPP@@U?$DL_Keys_ECDSA@VECP@CryptoPP@@@2@V?$DL_Algorithm_ECDSA@VECP@CryptoPP@@@2@VDL_SignatureMessageEncodingMethod_DSA@2@VSHA1@2@@2@V?$DL_PublicKey_EC@VECP@CryptoPP@@@2@@CryptoPP@@UAEAAVPublicKey@2@XZ 0040fa07 f i bench2.obj
 0001:0000ea07       ?AccessPrivateKey@?$DL_ObjectImplBase@V?$DL_SignerBase@UEC2NPoint@CryptoPP@@@CryptoPP@@U?$DL_SignatureSchemeOptions@V?$DL_SS@U?$DL_Keys_ECDSA@VEC2N@CryptoPP@@@CryptoPP@@V?$DL_Algorithm_ECDSA@VEC2N@CryptoPP@@@2@VDL_SignatureMessageEncodingMethod_DSA@2@VSHA1@2@H@CryptoPP@@U?$DL_Keys_ECDSA@VEC2N@CryptoPP@@@2@V?$DL_Algorithm_ECDSA@VEC2N@CryptoPP@@@2@VDL_SignatureMessageEncodingMethod_DSA@2@VSHA1@2@@2@V?$DL_PrivateKey_WithSignaturePairwiseConsistencyTest@V?$DL_PrivateKey_EC@VEC2N@CryptoPP@@@CryptoPP@@U?$ECDSA@VEC2N@CryptoPP@@VSHA256@2@@2@@2@@CryptoPP@@UAEAAVPrivateKey@2@XZ 0040fa07 f i bench2.obj
 0001:0000ea07       ?AccessPublicKey@?$DL_ObjectImplBase@V?$DL_EncryptorBase@VInteger@CryptoPP@@@CryptoPP@@U?$DL_CryptoSchemeOptions@U?$DLIES@U?$EnumToType@W4CofactorMultiplicationOption@CryptoPP@@$0A@@CryptoPP@@$00@CryptoPP@@UDL_CryptoKeys_GFP@2@V?$DL_KeyAgreementAlgorithm_DH@VInteger@CryptoPP@@U?$EnumToType@W4CofactorMultiplicationOption@CryptoPP@@$0A@@2@@2@V?$DL_KeyDerivationAlgorithm_P1363@VInteger@CryptoPP@@$00V?$P1363_KDF2@VSHA1@CryptoPP@@@2@@2@V?$DL_EncryptionAlgorithm_Xor@V?$HMAC@VSHA1@CryptoPP@@@CryptoPP@@$00@2@@2@V?$DL_PublicKey_GFP@VDL_GroupParameters_GFP_DefaultSafePrime@CryptoPP@@@2@@CryptoPP@@UAEAAVPublicKey@2@XZ 0040fa07 f i bench2.obj
 0001:0000ea07       ?AccessPrivateKey@?$DL_ObjectImplBase@V?$DL_SignerBase@VInteger@CryptoPP@@@CryptoPP@@U?$DL_SignatureSchemeOptions@V?$DL_SS@UDL_SignatureKeys_LUC@CryptoPP@@VDL_Algorithm_LUC_HMP@2@VDL_SignatureMessageEncodingMethod_DSA@2@VSHA1@2@H@CryptoPP@@UDL_SignatureKeys_LUC@2@VDL_Algorithm_LUC_HMP@2@VDL_SignatureMessageEncodingMethod_DSA@2@VSHA1@2@@2@V?$DL_PrivateKey_GFP@VDL_GroupParameters_LUC@CryptoPP@@@2@@CryptoPP@@UAEAAVPrivateKey@2@XZ 0040fa07 f i bench2.obj
 0001:0000ea07       ?AccessPrivateKey@?$DL_ObjectImplBase@V?$DL_DecryptorBase@VInteger@CryptoPP@@@CryptoPP@@U?$DL_CryptoSchemeOptions@U?$DLIES@U?$EnumToType@W4CofactorMultiplicationOption@CryptoPP@@$0A@@CryptoPP@@$00@CryptoPP@@UDL_CryptoKeys_GFP@2@V?$DL_KeyAgreementAlgorithm_DH@VInteger@CryptoPP@@U?$EnumToType@W4CofactorMultiplicationOption@CryptoPP@@$0A@@2@@2@V?$DL_KeyDerivationAlgorithm_P1363@VInteger@CryptoPP@@$00V?$P1363_KDF2@VSHA1@CryptoPP@@@2@@2@V?$DL_EncryptionAlgorithm_Xor@V?$HMAC@VSHA1@CryptoPP@@@CryptoPP@@$00@2@@2@V?$DL_PrivateKey_GFP@VDL_GroupParameters_GFP_DefaultSafePrime@CryptoPP@@@2@@CryptoPP@@UAEAAVPrivateKey@2@XZ 0040fa07 f i bench2.obj
 0001:0000ea07       ?AccessPrivateKey@?$DL_ObjectImplBase@V?$DL_SignerBase@VInteger@CryptoPP@@@CryptoPP@@U?$DL_SignatureSchemeOptions@V?$DL_SS@UDL_SignatureKeys_GFP@CryptoPP@@V?$DL_Algorithm_NR@VInteger@CryptoPP@@@2@VDL_SignatureMessageEncodingMethod_NR@2@VSHA1@2@H@CryptoPP@@UDL_SignatureKeys_GFP@2@V?$DL_Algorithm_NR@VInteger@CryptoPP@@@2@VDL_SignatureMessageEncodingMethod_NR@2@VSHA1@2@@2@V?$DL_PrivateKey_GFP@VDL_GroupParameters_GFP@CryptoPP@@@2@@CryptoPP@@UAEAAVPrivateKey@2@XZ 0040fa07 f i bench2.obj
 0001:0000ea07       ?AccessPublicKey@?$DL_ObjectImplBase@V?$DL_EncryptorBase@VInteger@CryptoPP@@@CryptoPP@@U?$DL_CryptoSchemeOptions@U?$LUC_IES@U?$EnumToType@W4CofactorMultiplicationOption@CryptoPP@@$0A@@CryptoPP@@$00@CryptoPP@@UDL_CryptoKeys_LUC@2@V?$DL_KeyAgreementAlgorithm_DH@VInteger@CryptoPP@@U?$EnumToType@W4CofactorMultiplicationOption@CryptoPP@@$0A@@2@@2@V?$DL_KeyDerivationAlgorithm_P1363@VInteger@CryptoPP@@$00V?$P1363_KDF2@VSHA1@CryptoPP@@@2@@2@V?$DL_EncryptionAlgorithm_Xor@V?$HMAC@VSHA1@CryptoPP@@@CryptoPP@@$00@2@@2@V?$DL_PublicKey_GFP@VDL_GroupParameters_LUC_DefaultSafePrime@CryptoPP@@@2@@CryptoPP@@UAEAAVPublicKey@2@XZ 0040fa07 f i bench2.obj
 0001:0000ea07       ?AccessPrivateKey@?$DL_ObjectImplBase@V?$DL_DecryptorBase@VInteger@CryptoPP@@@CryptoPP@@U?$DL_CryptoSchemeOptions@UElGamal@CryptoPP@@UElGamalKeys@2@HHH@2@V?$DL_PrivateKey_GFP_OldFormat@V?$DL_PrivateKey_GFP@VDL_GroupParameters_GFP_DefaultSafePrime@CryptoPP@@@CryptoPP@@@2@@CryptoPP@@UAEAAVPrivateKey@2@XZ 0040fa07 f i bench2.obj
 0001:0000ea07       ?AccessPrivateKey@?$DL_ObjectImplBase@V?$DL_SignerBase@VInteger@CryptoPP@@@CryptoPP@@U?$DL_SignatureSchemeOptions@UDSA@CryptoPP@@UDL_Keys_DSA@2@V?$DL_Algorithm_GDSA@VInteger@CryptoPP@@@2@VDL_SignatureMessageEncodingMethod_DSA@2@VSHA1@2@@2@V?$DL_PrivateKey_WithSignaturePairwiseConsistencyTest@V?$DL_PrivateKey_GFP@VDL_GroupParameters_DSA@CryptoPP@@@CryptoPP@@UDSA@2@@2@@CryptoPP@@UAEAAVPrivateKey@2@XZ 0040fa07 f i bench2.obj
 0001:0000ea14       ?AlgorithmName@?$AlgorithmImpl@V?$DL_DecryptorBase@UEC2NPoint@CryptoPP@@@CryptoPP@@U?$ECIES@VEC2N@CryptoPP@@U?$EnumToType@W4CofactorMultiplicationOption@CryptoPP@@$0A@@2@$0A@@2@@CryptoPP@@UBE?AV?$basic_string@DU?$char_traits@D@std@@V?$allocator@D@2@@std@@XZ 0040fa14 f i bench2.obj
 0001:0000ea14       ?AlgorithmName@?$AlgorithmImpl@V?$DL_EncryptorBase@UECPPoint@CryptoPP@@@CryptoPP@@U?$ECIES@VECP@CryptoPP@@U?$EnumToType@W4CofactorMultiplicationOption@CryptoPP@@$0A@@2@$0A@@2@@CryptoPP@@UBE?AV?$basic_string@DU?$char_traits@D@std@@V?$allocator@D@2@@std@@XZ 0040fa14 f i bench2.obj
 0001:0000ea14       ?AlgorithmName@?$AlgorithmImpl@V?$DL_DecryptorBase@UECPPoint@CryptoPP@@@CryptoPP@@U?$ECIES@VECP@CryptoPP@@U?$EnumToType@W4CofactorMultiplicationOption@CryptoPP@@$0A@@2@$0A@@2@@CryptoPP@@UBE?AV?$basic_string@DU?$char_traits@D@std@@V?$allocator@D@2@@std@@XZ 0040fa14 f i bench2.obj
 0001:0000ea14       ?AlgorithmName@?$AlgorithmImpl@V?$DL_EncryptorBase@UEC2NPoint@CryptoPP@@@CryptoPP@@U?$ECIES@VEC2N@CryptoPP@@U?$EnumToType@W4CofactorMultiplicationOption@CryptoPP@@$0A@@2@$0A@@2@@CryptoPP@@UBE?AV?$basic_string@DU?$char_traits@D@std@@V?$allocator@D@2@@std@@XZ 0040fa14 f i bench2.obj
 0001:0000ea2c       ?Decrypt@?$DL_DecryptorBase@UEC2NPoint@CryptoPP@@@CryptoPP@@UBE?AUDecodingResult@2@AAVRandomNumberGenerator@2@PBEIPAEABVNameValuePairs@2@@Z 0040fa2c f i bench2.obj
 0001:0000eb70       ??_GECPPoint@CryptoPP@@QAEPAXI@Z 0040fb70 f i bench2.obj
 0001:0000eb8c       ??_GEC2NPoint@CryptoPP@@QAEPAXI@Z 0040fb8c f i bench2.obj
 0001:0000eba8       ??_E?$DL_DecryptorImpl@U?$DL_CryptoSchemeOptions@U?$ECIES@VECP@CryptoPP@@U?$EnumToType@W4CofactorMultiplicationOption@CryptoPP@@$0A@@2@$0A@@CryptoPP@@U?$DL_Keys_EC@VECP@CryptoPP@@@2@V?$DL_KeyAgreementAlgorithm_DH@UECPPoint@CryptoPP@@U?$EnumToType@W4CofactorMultiplicationOption@CryptoPP@@$0A@@2@@2@V?$DL_KeyDerivationAlgorithm_P1363@UECPPoint@CryptoPP@@$0A@V?$P1363_KDF2@VSHA1@CryptoPP@@@2@@2@V?$DL_EncryptionAlgorithm_Xor@V?$HMAC@VSHA1@CryptoPP@@@CryptoPP@@$0A@@2@@CryptoPP@@@CryptoPP@@UAEPAXI@Z 0040fba8 f i bench2.obj
 0001:0000eba8       ??_G?$DL_DecryptorImpl@U?$DL_CryptoSchemeOptions@U?$ECIES@VECP@CryptoPP@@U?$EnumToType@W4CofactorMultiplicationOption@CryptoPP@@$0A@@2@$0A@@CryptoPP@@U?$DL_Keys_EC@VECP@CryptoPP@@@2@V?$DL_KeyAgreementAlgorithm_DH@UECPPoint@CryptoPP@@U?$EnumToType@W4CofactorMultiplicationOption@CryptoPP@@$0A@@2@@2@V?$DL_KeyDerivationAlgorithm_P1363@UECPPoint@CryptoPP@@$0A@V?$P1363_KDF2@VSHA1@CryptoPP@@@2@@2@V?$DL_EncryptionAlgorithm_Xor@V?$HMAC@VSHA1@CryptoPP@@@CryptoPP@@$0A@@2@@CryptoPP@@@CryptoPP@@UAEPAXI@Z 0040fba8 f i bench2.obj
 0001:0000ebc4       ??_G?$DL_DecryptorImpl@U?$DL_CryptoSchemeOptions@U?$ECIES@VEC2N@CryptoPP@@U?$EnumToType@W4CofactorMultiplicationOption@CryptoPP@@$0A@@2@$0A@@CryptoPP@@U?$DL_Keys_EC@VEC2N@CryptoPP@@@2@V?$DL_KeyAgreementAlgorithm_DH@UEC2NPoint@CryptoPP@@U?$EnumToType@W4CofactorMultiplicationOption@CryptoPP@@$0A@@2@@2@V?$DL_KeyDerivationAlgorithm_P1363@UEC2NPoint@CryptoPP@@$0A@V?$P1363_KDF2@VSHA1@CryptoPP@@@2@@2@V?$DL_EncryptionAlgorithm_Xor@V?$HMAC@VSHA1@CryptoPP@@@CryptoPP@@$0A@@2@@CryptoPP@@@CryptoPP@@UAEPAXI@Z 0040fbc4 f i bench2.obj
 0001:0000ebc4       ??_E?$DL_DecryptorImpl@U?$DL_CryptoSchemeOptions@U?$ECIES@VEC2N@CryptoPP@@U?$EnumToType@W4CofactorMultiplicationOption@CryptoPP@@$0A@@2@$0A@@CryptoPP@@U?$DL_Keys_EC@VEC2N@CryptoPP@@@2@V?$DL_KeyAgreementAlgorithm_DH@UEC2NPoint@CryptoPP@@U?$EnumToType@W4CofactorMultiplicationOption@CryptoPP@@$0A@@2@@2@V?$DL_KeyDerivationAlgorithm_P1363@UEC2NPoint@CryptoPP@@$0A@V?$P1363_KDF2@VSHA1@CryptoPP@@@2@@2@V?$DL_EncryptionAlgorithm_Xor@V?$HMAC@VSHA1@CryptoPP@@@CryptoPP@@$0A@@2@@CryptoPP@@@CryptoPP@@UAEPAXI@Z 0040fbc4 f i bench2.obj
 0001:0000ebe0       ??0?$DL_ObjectImplBase@V?$DL_DecryptorBase@UECPPoint@CryptoPP@@@CryptoPP@@U?$DL_CryptoSchemeOptions@U?$ECIES@VECP@CryptoPP@@U?$EnumToType@W4CofactorMultiplicationOption@CryptoPP@@$0A@@2@$0A@@CryptoPP@@U?$DL_Keys_EC@VECP@CryptoPP@@@2@V?$DL_KeyAgreementAlgorithm_DH@UECPPoint@CryptoPP@@U?$EnumToType@W4CofactorMultiplicationOption@CryptoPP@@$0A@@2@@2@V?$DL_KeyDerivationAlgorithm_P1363@UECPPoint@CryptoPP@@$0A@V?$P1363_KDF2@VSHA1@CryptoPP@@@2@@2@V?$DL_EncryptionAlgorithm_Xor@V?$HMAC@VSHA1@CryptoPP@@@CryptoPP@@$0A@@2@@2@V?$DL_PrivateKey_EC@VECP@CryptoPP@@@2@@CryptoPP@@QAE@XZ 0040fbe0 f i bench2.obj
 0001:0000ec1f       ??0?$DL_ObjectImplBase@V?$DL_DecryptorBase@UEC2NPoint@CryptoPP@@@CryptoPP@@U?$DL_CryptoSchemeOptions@U?$ECIES@VEC2N@CryptoPP@@U?$EnumToType@W4CofactorMultiplicationOption@CryptoPP@@$0A@@2@$0A@@CryptoPP@@U?$DL_Keys_EC@VEC2N@CryptoPP@@@2@V?$DL_KeyAgreementAlgorithm_DH@UEC2NPoint@CryptoPP@@U?$EnumToType@W4CofactorMultiplicationOption@CryptoPP@@$0A@@2@@2@V?$DL_KeyDerivationAlgorithm_P1363@UEC2NPoint@CryptoPP@@$0A@V?$P1363_KDF2@VSHA1@CryptoPP@@@2@@2@V?$DL_EncryptionAlgorithm_Xor@V?$HMAC@VSHA1@CryptoPP@@@CryptoPP@@$0A@@2@@2@V?$DL_PrivateKey_EC@VEC2N@CryptoPP@@@2@@CryptoPP@@QAE@XZ 0040fc1f f i bench2.obj
 0001:0000ec5e       ??0?$GetValueHelperClass@V?$DL_PublicKeyImpl@V?$DL_GroupParameters_EC@VECP@CryptoPP@@@CryptoPP@@@CryptoPP@@V?$DL_PublicKey@UECPPoint@CryptoPP@@@2@@CryptoPP@@QAE@PBV?$DL_PublicKeyImpl@V?$DL_GroupParameters_EC@VECP@CryptoPP@@@CryptoPP@@@1@PBDABVtype_info@@PAXPBVNameValuePairs@1@@Z 0040fc5e f i bench2.obj
 0001:0000ede0       ??0?$AssignFromHelperClass@V?$DL_PublicKeyImpl@V?$DL_GroupParameters_EC@VECP@CryptoPP@@@CryptoPP@@@CryptoPP@@V?$DL_PublicKey@UECPPoint@CryptoPP@@@2@@CryptoPP@@QAE@PAV?$DL_PublicKeyImpl@V?$DL_GroupParameters_EC@VECP@CryptoPP@@@CryptoPP@@@1@ABVNameValuePairs@1@@Z 0040fde0 f i bench2.obj
 0001:0000ee2b       ??0?$GetValueHelperClass@V?$DL_PublicKeyImpl@V?$DL_GroupParameters_EC@VEC2N@CryptoPP@@@CryptoPP@@@CryptoPP@@V?$DL_PublicKey@UEC2NPoint@CryptoPP@@@2@@CryptoPP@@QAE@PBV?$DL_PublicKeyImpl@V?$DL_GroupParameters_EC@VEC2N@CryptoPP@@@CryptoPP@@@1@PBDABVtype_info@@PAXPBVNameValuePairs@1@@Z 0040fe2b f i bench2.obj
 0001:0000efad       ??0?$AssignFromHelperClass@V?$DL_PublicKeyImpl@V?$DL_GroupParameters_EC@VEC2N@CryptoPP@@@CryptoPP@@@CryptoPP@@V?$DL_PublicKey@UEC2NPoint@CryptoPP@@@2@@CryptoPP@@QAE@PAV?$DL_PublicKeyImpl@V?$DL_GroupParameters_EC@VEC2N@CryptoPP@@@CryptoPP@@@1@ABVNameValuePairs@1@@Z 0040ffad f i bench2.obj
 0001:0000eff8       ??0?$GetValueHelperClass@V?$DL_PrivateKeyImpl@V?$DL_GroupParameters_EC@VECP@CryptoPP@@@CryptoPP@@@CryptoPP@@V?$DL_PrivateKey@UECPPoint@CryptoPP@@@2@@CryptoPP@@QAE@PBV?$DL_PrivateKeyImpl@V?$DL_GroupParameters_EC@VECP@CryptoPP@@@CryptoPP@@@1@PBDABVtype_info@@PAXPBVNameValuePairs@1@@Z 0040fff8 f i bench2.obj
 0001:0000f17a       ??0?$AssignFromHelperClass@V?$DL_PrivateKeyImpl@V?$DL_GroupParameters_EC@VECP@CryptoPP@@@CryptoPP@@@CryptoPP@@V?$DL_PrivateKey@UECPPoint@CryptoPP@@@2@@CryptoPP@@QAE@PAV?$DL_PrivateKeyImpl@V?$DL_GroupParameters_EC@VECP@CryptoPP@@@CryptoPP@@@1@ABVNameValuePairs@1@@Z 0041017a f i bench2.obj
 0001:0000f1c5       ??0?$GetValueHelperClass@V?$DL_PrivateKeyImpl@V?$DL_GroupParameters_EC@VEC2N@CryptoPP@@@CryptoPP@@@CryptoPP@@V?$DL_PrivateKey@UEC2NPoint@CryptoPP@@@2@@CryptoPP@@QAE@PBV?$DL_PrivateKeyImpl@V?$DL_GroupParameters_EC@VEC2N@CryptoPP@@@CryptoPP@@@1@PBDABVtype_info@@PAXPBVNameValuePairs@1@@Z 004101c5 f i bench2.obj
 0001:0000f347       ??0?$AssignFromHelperClass@V?$DL_PrivateKeyImpl@V?$DL_GroupParameters_EC@VEC2N@CryptoPP@@@CryptoPP@@@CryptoPP@@V?$DL_PrivateKey@UEC2NPoint@CryptoPP@@@2@@CryptoPP@@QAE@PAV?$DL_PrivateKeyImpl@V?$DL_GroupParameters_EC@VEC2N@CryptoPP@@@CryptoPP@@@1@ABVNameValuePairs@1@@Z 00410347 f i bench2.obj
 0001:0000f392       ??R?$NewObject@V?$DL_KeyAgreementAlgorithm_DH@UECPPoint@CryptoPP@@U?$EnumToType@W4CofactorMultiplicationOption@CryptoPP@@$0A@@2@@CryptoPP@@@CryptoPP@@QBEPAV?$DL_KeyAgreementAlgorithm_DH@UECPPoint@CryptoPP@@U?$EnumToType@W4CofactorMultiplicationOption@CryptoPP@@$0A@@2@@1@XZ 00410392 f i bench2.obj
 0001:0000f3a8       ?AgreeWithEphemeralPrivateKey@?$DL_KeyAgreementAlgorithm_DH@UECPPoint@CryptoPP@@U?$EnumToType@W4CofactorMultiplicationOption@CryptoPP@@$0A@@2@@CryptoPP@@UBE?AUECPPoint@2@ABV?$DL_GroupParameters@UECPPoint@CryptoPP@@@2@ABV?$DL_FixedBasePrecomputation@UECPPoint@CryptoPP@@@2@ABVInteger@2@@Z 004103a8 f i bench2.obj
 0001:0000f3e5       ?AgreeWithStaticPrivateKey@?$DL_KeyAgreementAlgorithm_DH@UECPPoint@CryptoPP@@U?$EnumToType@W4CofactorMultiplicationOption@CryptoPP@@$0A@@2@@CryptoPP@@UBE?AUECPPoint@2@ABV?$DL_GroupParameters@UECPPoint@CryptoPP@@@2@ABU32@_NABVInteger@2@@Z 004103e5 f i bench2.obj
 0001:0000f537       ??0ECPPoint@CryptoPP@@QAE@XZ 00410537 f i bench2.obj
 0001:0000f56e       ??R?$NewObject@V?$DL_KeyDerivationAlgorithm_P1363@UECPPoint@CryptoPP@@$0A@V?$P1363_KDF2@VSHA1@CryptoPP@@@2@@CryptoPP@@@CryptoPP@@QBEPAV?$DL_KeyDerivationAlgorithm_P1363@UECPPoint@CryptoPP@@$0A@V?$P1363_KDF2@VSHA1@CryptoPP@@@2@@1@XZ 0041056e f i bench2.obj
 0001:0000f584       ?ParameterSupported@?$DL_KeyDerivationAlgorithm_P1363@UECPPoint@CryptoPP@@$0A@V?$P1363_KDF2@VSHA1@CryptoPP@@@2@@CryptoPP@@UBE_NPBD@Z 00410584 f i bench2.obj
 0001:0000f584       ?ParameterSupported@?$DL_KeyDerivationAlgorithm_P1363@UEC2NPoint@CryptoPP@@$0A@V?$P1363_KDF2@VSHA1@CryptoPP@@@2@@CryptoPP@@UBE_NPBD@Z 00410584 f i bench2.obj
 0001:0000f584       ?ParameterSupported@?$DL_KeyDerivationAlgorithm_P1363@VInteger@CryptoPP@@$00V?$P1363_KDF2@VSHA1@CryptoPP@@@2@@CryptoPP@@UBE_NPBD@Z 00410584 f i bench2.obj
 0001:0000f59c       ?Derive@?$DL_KeyDerivationAlgorithm_P1363@UECPPoint@CryptoPP@@$0A@V?$P1363_KDF2@VSHA1@CryptoPP@@@2@@CryptoPP@@UBEXABV?$DL_GroupParameters@UECPPoint@CryptoPP@@@2@PAEIABUECPPoint@2@2ABVNameValuePairs@2@@Z 0041059c f i bench2.obj
 0001:0000f695       ??0ConstByteArrayParameter@CryptoPP@@QAE@PBD_N@Z 00410695 f i bench2.obj
 0001:0000f6e6       ??R?$NewObject@V?$DL_EncryptionAlgorithm_Xor@V?$HMAC@VSHA1@CryptoPP@@@CryptoPP@@$0A@@CryptoPP@@@CryptoPP@@QBEPAV?$DL_EncryptionAlgorithm_Xor@V?$HMAC@VSHA1@CryptoPP@@@CryptoPP@@$0A@@1@XZ 004106e6 f i bench2.obj
 0001:0000f6fc       ?GetSymmetricKeyLength@?$DL_EncryptionAlgorithm_Xor@V?$HMAC@VSHA1@CryptoPP@@@CryptoPP@@$00@CryptoPP@@UBEII@Z 004106fc f i bench2.obj
 0001:0000f6fc       ?GetSymmetricKeyLength@?$DL_EncryptionAlgorithm_Xor@V?$HMAC@VSHA1@CryptoPP@@@CryptoPP@@$0A@@CryptoPP@@UBEII@Z 004106fc f i bench2.obj
 0001:0000f706       ?GetSymmetricCiphertextLength@?$DL_EncryptionAlgorithm_Xor@V?$HMAC@VSHA1@CryptoPP@@@CryptoPP@@$00@CryptoPP@@UBEII@Z 00410706 f i bench2.obj
 0001:0000f706       ?GetSymmetricCiphertextLength@?$DL_EncryptionAlgorithm_Xor@V?$HMAC@VSHA1@CryptoPP@@@CryptoPP@@$0A@@CryptoPP@@UBEII@Z 00410706 f i bench2.obj
 0001:0000f710       ?GetMaxSymmetricPlaintextLength@?$DL_EncryptionAlgorithm_Xor@V?$HMAC@VSHA1@CryptoPP@@@CryptoPP@@$0A@@CryptoPP@@UBEII@Z 00410710 f i bench2.obj
 0001:0000f710       ?GetMaxSymmetricPlaintextLength@?$DL_EncryptionAlgorithm_Xor@V?$HMAC@VSHA1@CryptoPP@@@CryptoPP@@$00@CryptoPP@@UBEII@Z 00410710 f i bench2.obj
 0001:0000f723       ?SymmetricEncrypt@?$DL_EncryptionAlgorithm_Xor@V?$HMAC@VSHA1@CryptoPP@@@CryptoPP@@$0A@@CryptoPP@@UBEXAAVRandomNumberGenerator@2@PBE1IPAEABVNameValuePairs@2@@Z 00410723 f i bench2.obj
 0001:0000f813       ??1HMAC_Base@CryptoPP@@UAE@XZ 00410813 f i bench2.obj
 0001:0000f839       ?SymmetricDecrypt@?$DL_EncryptionAlgorithm_Xor@V?$HMAC@VSHA1@CryptoPP@@@CryptoPP@@$0A@@CryptoPP@@UBE?AUDecodingResult@2@PBE0IPAEABVNameValuePairs@2@@Z 00410839 f i bench2.obj
 0001:0000f975       ??1?$HMAC@VSHA1@CryptoPP@@@CryptoPP@@UAE@XZ 00410975 f i bench2.obj
 0001:0000f9c6       ??1?$MessageAuthenticationCodeImpl@VHMAC_Base@CryptoPP@@V?$HMAC@VSHA1@CryptoPP@@@2@@CryptoPP@@UAE@XZ 004109c6 f i bench2.obj
 0001:0000f9ec       ??0?$HMAC@VSHA1@CryptoPP@@@CryptoPP@@QAE@PBEI@Z 004109ec f i bench2.obj
 0001:0000fa5a       ?IsValidKeyLength@SimpleKeyingInterface@CryptoPP@@UBE_NI@Z 00410a5a f i bench2.obj
 0001:0000fa71       ?Resynchronize@SimpleKeyingInterface@CryptoPP@@UAEXPBEH@Z 00410a71 f i bench2.obj
 0001:0000fac8       ??0HMAC_Base@CryptoPP@@QAE@XZ 00410ac8 f i bench2.obj
 0001:0000fb0b       ?OptimalBlockSize@HMAC_Base@CryptoPP@@UBEIXZ 00410b0b f i bench2.obj
 0001:0000fb1b       ?DigestSize@HMAC_Base@CryptoPP@@UBEIXZ 00410b1b f i bench2.obj
 0001:0000fb2b       ?AlgorithmName@?$HMAC@VSHA1@CryptoPP@@@CryptoPP@@UBE?AV?$basic_string@DU?$char_traits@D@std@@V?$allocator@D@2@@std@@XZ 00410b2b f i bench2.obj
 0001:0000fbce       ?AlgorithmName@?$AlgorithmImpl@V?$SimpleKeyingInterfaceImpl@VHMAC_Base@CryptoPP@@V?$HMAC@VSHA1@CryptoPP@@@2@@CryptoPP@@V?$HMAC@VSHA1@CryptoPP@@@2@@CryptoPP@@UBE?AV?$basic_string@DU?$char_traits@D@std@@V?$allocator@D@2@@std@@XZ 00410bce f i bench2.obj
 0001:0000fbe6       ?MaxKeyLength@?$SimpleKeyingInterfaceImpl@VHMAC_Base@CryptoPP@@V?$HMAC@VSHA1@CryptoPP@@@2@@CryptoPP@@UBEIXZ 00410be6 f i bench2.obj
 0001:0000fbe6       ?MaxKeyLength@?$SimpleKeyingInterfaceImpl@VHMAC_Base@CryptoPP@@V?$HMAC@VSHA512@CryptoPP@@@2@@CryptoPP@@UBEIXZ 00410be6 f i bench2.obj
 0001:0000fbe6       ?MaxKeyLength@?$SimpleKeyingInterfaceImpl@VHMAC_Base@CryptoPP@@V?$HMAC@VRIPEMD160@CryptoPP@@@2@@CryptoPP@@UBEIXZ 00410be6 f i bench2.obj
 0001:0000fbe6       ?MaxKeyLength@?$SimpleKeyingInterfaceImpl@V?$TwoBases@VMessageAuthenticationCode@CryptoPP@@V?$VariableKeyLength@$0CA@$0A@$0HPPPPPPP@$00$03$0A@@2@@CryptoPP@@V12@@CryptoPP@@UBEIXZ 00410be6 f i bench2.obj
 0001:0000fbe6       ?MaxKeyLength@?$SimpleKeyingInterfaceImpl@VHMAC_Base@CryptoPP@@V?$HMAC@VSHA256@CryptoPP@@@2@@CryptoPP@@UBEIXZ 00410be6 f i bench2.obj
 0001:0000fbe6       ?MaxKeyLength@?$SimpleKeyingInterfaceImpl@VHMAC_Base@CryptoPP@@V?$HMAC@VSHA224@CryptoPP@@@2@@CryptoPP@@UBEIXZ 00410be6 f i bench2.obj
 0001:0000fbe6       ?MaxKeyLength@?$SimpleKeyingInterfaceImpl@VHMAC_Base@CryptoPP@@V?$HMAC@VMD5@Weak1@CryptoPP@@@2@@CryptoPP@@UBEIXZ 00410be6 f i bench2.obj
 0001:0000fbe6       ?MaxKeyLength@?$SimpleKeyingInterfaceImpl@VHMAC_Base@CryptoPP@@V?$HMAC@VSHA384@CryptoPP@@@2@@CryptoPP@@UBEIXZ 00410be6 f i bench2.obj
 0001:0000fbec       ??_G?$HMAC@VSHA1@CryptoPP@@@CryptoPP@@UAEPAXI@Z 00410bec f i bench2.obj
 0001:0000fbec       ??_E?$HMAC@VSHA1@CryptoPP@@@CryptoPP@@UAEPAXI@Z 00410bec f i bench2.obj
 0001:0000fc08       ??_G?$MessageAuthenticationCodeImpl@VHMAC_Base@CryptoPP@@V?$HMAC@VSHA1@CryptoPP@@@2@@CryptoPP@@UAEPAXI@Z 00410c08 f i bench2.obj
 0001:0000fc08       ??_E?$MessageAuthenticationCodeImpl@VHMAC_Base@CryptoPP@@V?$HMAC@VSHA1@CryptoPP@@@2@@CryptoPP@@UAEPAXI@Z 00410c08 f i bench2.obj
 0001:0000fc24       ?StaticAlgorithmName@?$HMAC@VSHA1@CryptoPP@@@CryptoPP@@SA?AV?$basic_string@DU?$char_traits@D@std@@V?$allocator@D@2@@std@@XZ 00410c24 f i bench2.obj
 0001:0000fcab       ??Hstd@@YA?AV?$basic_string@DU?$char_traits@D@std@@V?$allocator@D@2@@0@ABV10@0@Z 00410cab f i bench2.obj
 0001:0000fd2d       ??R?$NewObject@V?$DL_Algorithm_ECDSA@VECP@CryptoPP@@@CryptoPP@@@CryptoPP@@QBEPAV?$DL_Algorithm_ECDSA@VECP@CryptoPP@@@1@XZ 00410d2d f i bench2.obj
 0001:0000fd43       ?Sign@?$DL_Algorithm_GDSA@UECPPoint@CryptoPP@@@CryptoPP@@UBEXABV?$DL_GroupParameters@UECPPoint@CryptoPP@@@2@ABVInteger@2@11AAV42@2@Z 00410d43 f i bench2.obj
 0001:0000fe14       ?Verify@?$DL_Algorithm_GDSA@UECPPoint@CryptoPP@@@CryptoPP@@UBE_NABV?$DL_GroupParameters@UECPPoint@CryptoPP@@@2@ABV?$DL_PublicKey@UECPPoint@CryptoPP@@@2@ABVInteger@2@22@Z 00410e14 f i bench2.obj
 0001:00010004       ?RecoverPresignature@?$DL_ElgamalLikeSignatureAlgorithm@UECPPoint@CryptoPP@@@CryptoPP@@UBE?AVInteger@2@ABV?$DL_GroupParameters@UECPPoint@CryptoPP@@@2@ABV?$DL_PublicKey@UECPPoint@CryptoPP@@@2@ABV32@2@Z 00411004 f i bench2.obj
 0001:00010060       ?RLen@?$DL_ElgamalLikeSignatureAlgorithm@VInteger@CryptoPP@@@CryptoPP@@UBEIABV?$DL_GroupParameters@VInteger@CryptoPP@@@2@@Z 00411060 f i bench2.obj
 0001:00010060       ?SLen@?$DL_ElgamalLikeSignatureAlgorithm@VInteger@CryptoPP@@@CryptoPP@@UBEIABV?$DL_GroupParameters@VInteger@CryptoPP@@@2@@Z 00411060 f i bench2.obj
 0001:00010060       ?SLen@?$DL_ElgamalLikeSignatureAlgorithm@UECPPoint@CryptoPP@@@CryptoPP@@UBEIABV?$DL_GroupParameters@UECPPoint@CryptoPP@@@2@@Z 00411060 f i bench2.obj
 0001:00010060       ?RLen@?$DL_ElgamalLikeSignatureAlgorithm@UECPPoint@CryptoPP@@@CryptoPP@@UBEIABV?$DL_GroupParameters@UECPPoint@CryptoPP@@@2@@Z 00411060 f i bench2.obj
 0001:00010060       ?SLen@?$DL_ElgamalLikeSignatureAlgorithm@UEC2NPoint@CryptoPP@@@CryptoPP@@UBEIABV?$DL_GroupParameters@UEC2NPoint@CryptoPP@@@2@@Z 00411060 f i bench2.obj
 0001:00010060       ?RLen@?$DL_ElgamalLikeSignatureAlgorithm@UEC2NPoint@CryptoPP@@@CryptoPP@@UBEIABV?$DL_GroupParameters@UEC2NPoint@CryptoPP@@@2@@Z 00411060 f i bench2.obj
 0001:00010073       ??_1Integer@CryptoPP@@QAEAAV01@ABV01@@Z 00411073 f i bench2.obj
 0001:000100bd       ??R?$NewObject@VDL_SignatureMessageEncodingMethod_DSA@CryptoPP@@@CryptoPP@@QBEPAVDL_SignatureMessageEncodingMethod_DSA@1@XZ 004110bd f i bench2.obj
 0001:000100d3       ?MaxRecoverableLength@PK_SignatureMessageEncodingMethod@CryptoPP@@UBEIIII@Z 004110d3 f i bench2.obj
 0001:000100d8       ?RecoverablePartFirst@PK_SignatureMessageEncodingMethod@CryptoPP@@UBE_NXZ 004110d8 f i bench2.obj
 0001:00010134       ?ProcessRecoverableMessage@PK_SignatureMessageEncodingMethod@CryptoPP@@UBEXAAVHashTransformation@2@PBEI1IAAV?$SecBlock@EV?$AllocatorWithCleanup@E$0A@@CryptoPP@@@2@@Z 00411134 f i bench2.obj
 0001:0001013c       ?RecoverMessageFromRepresentative@PK_SignatureMessageEncodingMethod@CryptoPP@@UBE?AUDecodingResult@2@AAVHashTransformation@2@U?$pair@PBEI@std@@_NPAEI3@Z 0041113c f i bench2.obj
 0001:00010198       ?RecoverMessageFromSemisignature@PK_SignatureMessageEncodingMethod@CryptoPP@@UBE?AUDecodingResult@2@AAVHashTransformation@2@U?$pair@PBEI@std@@PBEI2IPAE@Z 00411198 f i bench2.obj
 0001:000101f4       ??R?$NewObject@V?$DL_KeyAgreementAlgorithm_DH@UECPPoint@CryptoPP@@U?$EnumToType@W4CofactorMultiplicationOption@CryptoPP@@$01@2@@CryptoPP@@@CryptoPP@@QBEPAV?$DL_KeyAgreementAlgorithm_DH@UECPPoint@CryptoPP@@U?$EnumToType@W4CofactorMultiplicationOption@CryptoPP@@$01@2@@1@XZ 004111f4 f i bench2.obj
 0001:0001020a       ?AgreeWithEphemeralPrivateKey@?$DL_KeyAgreementAlgorithm_DH@UECPPoint@CryptoPP@@U?$EnumToType@W4CofactorMultiplicationOption@CryptoPP@@$01@2@@CryptoPP@@UBE?AUECPPoint@2@ABV?$DL_GroupParameters@UECPPoint@CryptoPP@@@2@ABV?$DL_FixedBasePrecomputation@UECPPoint@CryptoPP@@@2@ABVInteger@2@@Z 0041120a f i bench2.obj
 0001:000102a5       ?AgreeWithStaticPrivateKey@?$DL_KeyAgreementAlgorithm_DH@UECPPoint@CryptoPP@@U?$EnumToType@W4CofactorMultiplicationOption@CryptoPP@@$01@2@@CryptoPP@@UBE?AUECPPoint@2@ABV?$DL_GroupParameters@UECPPoint@CryptoPP@@@2@ABU32@_NABVInteger@2@@Z 004112a5 f i bench2.obj
 0001:00010322       ??R?$NewObject@V?$DL_KeyAgreementAlgorithm_DH@UEC2NPoint@CryptoPP@@U?$EnumToType@W4CofactorMultiplicationOption@CryptoPP@@$0A@@2@@CryptoPP@@@CryptoPP@@QBEPAV?$DL_KeyAgreementAlgorithm_DH@UEC2NPoint@CryptoPP@@U?$EnumToType@W4CofactorMultiplicationOption@CryptoPP@@$0A@@2@@1@XZ 00411322 f i bench2.obj
 0001:00010338       ?AgreeWithEphemeralPrivateKey@?$DL_KeyAgreementAlgorithm_DH@UEC2NPoint@CryptoPP@@U?$EnumToType@W4CofactorMultiplicationOption@CryptoPP@@$0A@@2@@CryptoPP@@UBE?AUEC2NPoint@2@ABV?$DL_GroupParameters@UEC2NPoint@CryptoPP@@@2@ABV?$DL_FixedBasePrecomputation@UEC2NPoint@CryptoPP@@@2@ABVInteger@2@@Z 00411338 f i bench2.obj
 0001:00010375       ?AgreeWithStaticPrivateKey@?$DL_KeyAgreementAlgorithm_DH@UEC2NPoint@CryptoPP@@U?$EnumToType@W4CofactorMultiplicationOption@CryptoPP@@$0A@@2@@CryptoPP@@UBE?AUEC2NPoint@2@ABV?$DL_GroupParameters@UEC2NPoint@CryptoPP@@@2@ABU32@_NABVInteger@2@@Z 00411375 f i bench2.obj
 0001:000104c4       ??0EC2NPoint@CryptoPP@@QAE@XZ 004114c4 f i bench2.obj
 0001:000104fb       ??R?$NewObject@V?$DL_KeyDerivationAlgorithm_P1363@UEC2NPoint@CryptoPP@@$0A@V?$P1363_KDF2@VSHA1@CryptoPP@@@2@@CryptoPP@@@CryptoPP@@QBEPAV?$DL_KeyDerivationAlgorithm_P1363@UEC2NPoint@CryptoPP@@$0A@V?$P1363_KDF2@VSHA1@CryptoPP@@@2@@1@XZ 004114fb f i bench2.obj
 0001:00010511       ?Derive@?$DL_KeyDerivationAlgorithm_P1363@UEC2NPoint@CryptoPP@@$0A@V?$P1363_KDF2@VSHA1@CryptoPP@@@2@@CryptoPP@@UBEXABV?$DL_GroupParameters@UEC2NPoint@CryptoPP@@@2@PAEIABUEC2NPoint@2@2ABVNameValuePairs@2@@Z 00411511 f i bench2.obj
 0001:0001060a       ??R?$NewObject@V?$DL_Algorithm_ECDSA@VEC2N@CryptoPP@@@CryptoPP@@@CryptoPP@@QBEPAV?$DL_Algorithm_ECDSA@VEC2N@CryptoPP@@@1@XZ 0041160a f i bench2.obj
 0001:00010620       ?Sign@?$DL_Algorithm_GDSA@UEC2NPoint@CryptoPP@@@CryptoPP@@UBEXABV?$DL_GroupParameters@UEC2NPoint@CryptoPP@@@2@ABVInteger@2@11AAV42@2@Z 00411620 f i bench2.obj
 0001:000106f1       ?Verify@?$DL_Algorithm_GDSA@UEC2NPoint@CryptoPP@@@CryptoPP@@UBE_NABV?$DL_GroupParameters@UEC2NPoint@CryptoPP@@@2@ABV?$DL_PublicKey@UEC2NPoint@CryptoPP@@@2@ABVInteger@2@22@Z 004116f1 f i bench2.obj
 0001:000108e1       ?RecoverPresignature@?$DL_ElgamalLikeSignatureAlgorithm@UEC2NPoint@CryptoPP@@@CryptoPP@@UBE?AVInteger@2@ABV?$DL_GroupParameters@UEC2NPoint@CryptoPP@@@2@ABV?$DL_PublicKey@UEC2NPoint@CryptoPP@@@2@ABV32@2@Z 004118e1 f i bench2.obj
 0001:0001093d       ??R?$NewObject@V?$DL_KeyAgreementAlgorithm_DH@UEC2NPoint@CryptoPP@@U?$EnumToType@W4CofactorMultiplicationOption@CryptoPP@@$01@2@@CryptoPP@@@CryptoPP@@QBEPAV?$DL_KeyAgreementAlgorithm_DH@UEC2NPoint@CryptoPP@@U?$EnumToType@W4CofactorMultiplicationOption@CryptoPP@@$01@2@@1@XZ 0041193d f i bench2.obj
 0001:00010953       ?AgreeWithEphemeralPrivateKey@?$DL_KeyAgreementAlgorithm_DH@UEC2NPoint@CryptoPP@@U?$EnumToType@W4CofactorMultiplicationOption@CryptoPP@@$01@2@@CryptoPP@@UBE?AUEC2NPoint@2@ABV?$DL_GroupParameters@UEC2NPoint@CryptoPP@@@2@ABV?$DL_FixedBasePrecomputation@UEC2NPoint@CryptoPP@@@2@ABVInteger@2@@Z 00411953 f i bench2.obj
 0001:000109ee       ?AgreeWithStaticPrivateKey@?$DL_KeyAgreementAlgorithm_DH@UEC2NPoint@CryptoPP@@U?$EnumToType@W4CofactorMultiplicationOption@CryptoPP@@$01@2@@CryptoPP@@UBE?AUEC2NPoint@2@ABV?$DL_GroupParameters@UEC2NPoint@CryptoPP@@@2@ABU32@_NABVInteger@2@@Z 004119ee f i bench2.obj
 0001:00010a6b       ?GetVoidValue@?$DL_PublicKey@UECPPoint@CryptoPP@@@CryptoPP@@QBE_NPBDABVtype_info@@PAX@Z 00411a6b f i bench2.obj
 0001:00010abf       ?GetVoidValue@?$DL_PublicKey@UEC2NPoint@CryptoPP@@@CryptoPP@@QBE_NPBDABVtype_info@@PAX@Z 00411abf f i bench2.obj
 0001:00010b13       ?GetVoidValue@?$DL_PrivateKey@UECPPoint@CryptoPP@@@CryptoPP@@QBE_NPBDABVtype_info@@PAX@Z 00411b13 f i bench2.obj
 0001:00010b67       ?AssignFrom@?$DL_PrivateKey@UECPPoint@CryptoPP@@@CryptoPP@@QAEXABVNameValuePairs@2@@Z 00411b67 f i bench2.obj
 0001:00010bb4       ?GetVoidValue@?$DL_PrivateKey@UEC2NPoint@CryptoPP@@@CryptoPP@@QBE_NPBDABVtype_info@@PAX@Z 00411bb4 f i bench2.obj
 0001:00010c08       ?AssignFrom@?$DL_PrivateKey@UEC2NPoint@CryptoPP@@@CryptoPP@@QAEXABVNameValuePairs@2@@Z 00411c08 f i bench2.obj
 0001:00010c55       ?AssignFrom@?$DL_PublicKey@UECPPoint@CryptoPP@@@CryptoPP@@QAEXABVNameValuePairs@2@@Z 00411c55 f i bench2.obj
 0001:00010cc3       ?GetThisObject@NameValuePairs@CryptoPP@@QBE_NAAV?$DL_PublicKeyImpl@V?$DL_GroupParameters_EC@VECP@CryptoPP@@@CryptoPP@@@2@@Z 00411cc3 f i bench2.obj
 0001:00010d63       ?AssignFrom@?$DL_PublicKey@UEC2NPoint@CryptoPP@@@CryptoPP@@QAEXABVNameValuePairs@2@@Z 00411d63 f i bench2.obj
 0001:00010dd1       ?GetThisObject@NameValuePairs@CryptoPP@@QBE_NAAV?$DL_PublicKeyImpl@V?$DL_GroupParameters_EC@VEC2N@CryptoPP@@@CryptoPP@@@2@@Z 00411dd1 f i bench2.obj
 0001:00010e71       ?GetThisObject@NameValuePairs@CryptoPP@@QBE_NAAV?$DL_PrivateKeyImpl@V?$DL_GroupParameters_EC@VECP@CryptoPP@@@CryptoPP@@@2@@Z 00411e71 f i bench2.obj
 0001:00010f11       ?GetThisObject@NameValuePairs@CryptoPP@@QBE_NAAV?$DL_PrivateKeyImpl@V?$DL_GroupParameters_EC@VEC2N@CryptoPP@@@CryptoPP@@@2@@Z 00411f11 f i bench2.obj
 0001:00010fb1       ??R?$GetValueHelperClass@V?$DL_PublicKey@UECPPoint@CryptoPP@@@CryptoPP@@V12@@CryptoPP@@QAEAAV01@PBDP8?$DL_PublicKey@UECPPoint@CryptoPP@@@1@BEABUECPPoint@1@XZ@Z 00411fb1 f i bench2.obj
 0001:0001102f       ??R?$GetValueHelperClass@V?$DL_PublicKey@UEC2NPoint@CryptoPP@@@CryptoPP@@V12@@CryptoPP@@QAEAAV01@PBDP8?$DL_PublicKey@UEC2NPoint@CryptoPP@@@1@BEABUEC2NPoint@1@XZ@Z 0041202f f i bench2.obj
 0001:000110ad       ??R?$AssignFromHelperClass@V?$DL_PrivateKey@UECPPoint@CryptoPP@@@CryptoPP@@V12@@CryptoPP@@QAEAAV01@PBDP8?$DL_PrivateKey@UECPPoint@CryptoPP@@@1@AEXABVInteger@1@@Z@Z 004120ad f i bench2.obj
 0001:000111c2       ??0?$basic_string@DU?$char_traits@D@std@@V?$allocator@D@2@@std@@QAE@ABV01@@Z 004121c2 f i bench2.obj
 0001:000111ec       ??R?$AssignFromHelperClass@V?$DL_PrivateKey@UEC2NPoint@CryptoPP@@@CryptoPP@@V12@@CryptoPP@@QAEAAV01@PBDP8?$DL_PrivateKey@UEC2NPoint@CryptoPP@@@1@AEXABVInteger@1@@Z@Z 004121ec f i bench2.obj
 0001:0001131d       ?MakePublicKey@?$DL_PrivateKey@UECPPoint@CryptoPP@@@CryptoPP@@QBEXAAV?$DL_PublicKey@UECPPoint@CryptoPP@@@2@@Z 0041231d f i bench2.obj
 0001:000113a9       ?MakePublicKey@?$DL_PrivateKey@UEC2NPoint@CryptoPP@@@CryptoPP@@QBEXAAV?$DL_PublicKey@UEC2NPoint@CryptoPP@@@2@@Z 004123a9 f i bench2.obj
 0001:00011435       ??0?$GetValueHelperClass@V?$DL_PublicKey@UECPPoint@CryptoPP@@@CryptoPP@@V12@@CryptoPP@@QAE@PBV?$DL_PublicKey@UECPPoint@CryptoPP@@@1@PBDABVtype_info@@PAXPBVNameValuePairs@1@@Z 00412435 f i bench2.obj
 0001:000115b7       ??0?$GetValueHelperClass@V?$DL_PublicKey@UEC2NPoint@CryptoPP@@@CryptoPP@@V12@@CryptoPP@@QAE@PBV?$DL_PublicKey@UEC2NPoint@CryptoPP@@@1@PBDABVtype_info@@PAXPBVNameValuePairs@1@@Z 004125b7 f i bench2.obj
 0001:00011739       ??0?$GetValueHelperClass@V?$DL_PrivateKey@UECPPoint@CryptoPP@@@CryptoPP@@V12@@CryptoPP@@QAE@PBV?$DL_PrivateKey@UECPPoint@CryptoPP@@@1@PBDABVtype_info@@PAXPBVNameValuePairs@1@@Z 00412739 f i bench2.obj
 0001:000118bb       ??0?$AssignFromHelperClass@V?$DL_PrivateKey@UECPPoint@CryptoPP@@@CryptoPP@@V12@@CryptoPP@@QAE@PAV?$DL_PrivateKey@UECPPoint@CryptoPP@@@1@ABVNameValuePairs@1@@Z 004128bb f i bench2.obj
 0001:00011906       ??0?$GetValueHelperClass@V?$DL_PrivateKey@UEC2NPoint@CryptoPP@@@CryptoPP@@V12@@CryptoPP@@QAE@PBV?$DL_PrivateKey@UEC2NPoint@CryptoPP@@@1@PBDABVtype_info@@PAXPBVNameValuePairs@1@@Z 00412906 f i bench2.obj
 0001:00011a88       ??0?$AssignFromHelperClass@V?$DL_PrivateKey@UEC2NPoint@CryptoPP@@@CryptoPP@@V12@@CryptoPP@@QAE@PAV?$DL_PrivateKey@UEC2NPoint@CryptoPP@@@1@ABVNameValuePairs@1@@Z 00412a88 f i bench2.obj
 0001:00011ad3       ?GetThisPointer@NameValuePairs@CryptoPP@@QBE_NAAPAV?$DL_PrivateKey@UECPPoint@CryptoPP@@@2@@Z 00412ad3 f i bench2.obj
 0001:00011b73       ??R?$AssignFromHelperClass@V?$DL_PublicKey@UECPPoint@CryptoPP@@@CryptoPP@@V12@@CryptoPP@@QAEAAV01@PBDP8?$DL_PublicKey@UECPPoint@CryptoPP@@@1@AEXABUECPPoint@1@@Z@Z 00412b73 f i bench2.obj
 0001:00011c8e       ?GetThisPointer@NameValuePairs@CryptoPP@@QBE_NAAPAV?$DL_PrivateKey@UEC2NPoint@CryptoPP@@@2@@Z 00412c8e f i bench2.obj
 0001:00011d2e       ??R?$AssignFromHelperClass@V?$DL_PublicKey@UEC2NPoint@CryptoPP@@@CryptoPP@@V12@@CryptoPP@@QAEAAV01@PBDP8?$DL_PublicKey@UEC2NPoint@CryptoPP@@@1@AEXABUEC2NPoint@1@@Z@Z 00412d2e f i bench2.obj
 0001:00011e49       ?Hack_DefaultValueFromConstReferenceType@CryptoPP@@YA?AVInteger@1@ABV21@@Z 00412e49 f i bench2.obj
 0001:00011e5e       ?GetThisObject@NameValuePairs@CryptoPP@@QBE_NAAV?$DL_PrivateKey@UECPPoint@CryptoPP@@@2@@Z 00412e5e f i bench2.obj
 0001:00011efe       ?GetThisObject@NameValuePairs@CryptoPP@@QBE_NAAV?$DL_PrivateKey@UEC2NPoint@CryptoPP@@@2@@Z 00412efe f i bench2.obj
 0001:00011f9e       ??0?$AssignFromHelperClass@V?$DL_PublicKey@UECPPoint@CryptoPP@@@CryptoPP@@V12@@CryptoPP@@QAE@PAV?$DL_PublicKey@UECPPoint@CryptoPP@@@1@ABVNameValuePairs@1@@Z 00412f9e f i bench2.obj
 0001:00011fe9       ??0?$AssignFromHelperClass@V?$DL_PublicKey@UEC2NPoint@CryptoPP@@@CryptoPP@@V12@@CryptoPP@@QAE@PAV?$DL_PublicKey@UEC2NPoint@CryptoPP@@@1@ABVNameValuePairs@1@@Z 00412fe9 f i bench2.obj
 0001:00012034       ?Hack_DefaultValueFromConstReferenceType@CryptoPP@@YA?AUECPPoint@1@ABU21@@Z 00413034 f i bench2.obj
 0001:0001206d       ?Hack_DefaultValueFromConstReferenceType@CryptoPP@@YA?AUEC2NPoint@1@ABU21@@Z 0041306d f i bench2.obj
 0001:000120a6       ?GetThisObject@NameValuePairs@CryptoPP@@QBE_NAAV?$DL_PublicKey@UECPPoint@CryptoPP@@@2@@Z 004130a6 f i bench2.obj
 0001:00012146       ?GetThisObject@NameValuePairs@CryptoPP@@QBE_NAAV?$DL_PublicKey@UEC2NPoint@CryptoPP@@@2@@Z 00413146 f i bench2.obj
 0001:000121e6       ?GetOptimalBlockSize@AdditiveCipherAbstractPolicy@CryptoPP@@UBEIXZ 004131e6 f i bench2.obj
 0001:000121e6       ??_9@$B7AE                 004131e6 f i bench2.obj
 0001:000121eb       ??_9@$BM@AE                004131eb f i bench2.obj
 0001:000121eb       ?OptimalBlockSize@StreamTransformation@CryptoPP@@UBEIXZ 004131eb f i bench2.obj
 0001:000121f0       ??_E?$DL_GroupParameters_EC@VEC2N@CryptoPP@@@CryptoPP@@$4PPPPPPPM@A@AEPAXI@Z 004131f0 f i bench2.obj
 0001:000121f8       ??_G?$DL_GroupParameters_EC@VEC2N@CryptoPP@@@CryptoPP@@UAEPAXI@Z 004131f8 f i bench2.obj
 0001:000121f8       ??_E?$DL_GroupParameters_EC@VEC2N@CryptoPP@@@CryptoPP@@UAEPAXI@Z 004131f8 f i bench2.obj
 0001:00012229       ?GetVoidValue@?$DL_GroupParameters_EC@VEC2N@CryptoPP@@@CryptoPP@@$4PPPPPPPM@A@BE_NPBDABVtype_info@@PAX@Z 00413229 f i bench2.obj
 0001:00012231       ?AssignFrom@?$DL_GroupParameters_EC@VEC2N@CryptoPP@@@CryptoPP@@$4PPPPPPPM@A@AEXABVNameValuePairs@2@@Z 00413231 f i bench2.obj
 0001:00012239       ?Validate@?$DL_GroupParameters@UEC2NPoint@CryptoPP@@@CryptoPP@@$4PPPPPPPM@ME@BE_NAAVRandomNumberGenerator@2@I@Z 00413239 f i bench2.obj
 0001:00012247       ?Validate@?$DL_GroupParameters@VInteger@CryptoPP@@@CryptoPP@@UBE_NAAVRandomNumberGenerator@2@I@Z 00413247 f i bench2.obj
 0001:00012247       ?Validate@?$DL_GroupParameters@UEC2NPoint@CryptoPP@@@CryptoPP@@UBE_NAAVRandomNumberGenerator@2@I@Z 00413247 f i bench2.obj
 0001:00012247       ?Validate@?$DL_GroupParameters@UECPPoint@CryptoPP@@@CryptoPP@@UBE_NAAVRandomNumberGenerator@2@I@Z 00413247 f i bench2.obj
 0001:000122b7       ?SupportsPrecomputation@?$DL_GroupParameters@UEC2NPoint@CryptoPP@@@CryptoPP@@$4PPPPPPPM@ME@BE_NXZ 004132b7 f i bench2.obj
 0001:000122c5       ?Precompute@?$DL_GroupParameters@UEC2NPoint@CryptoPP@@@CryptoPP@@$4PPPPPPPM@ME@AEXI@Z 004132c5 f i bench2.obj
 0001:000122d3       ?Precompute@?$DL_GroupParameters@UECPPoint@CryptoPP@@@CryptoPP@@UAEXI@Z 004132d3 f i bench2.obj
 0001:000122d3       ?Precompute@?$DL_GroupParameters@VInteger@CryptoPP@@@CryptoPP@@UAEXI@Z 004132d3 f i bench2.obj
 0001:000122d3       ?Precompute@?$DL_GroupParameters@UEC2NPoint@CryptoPP@@@CryptoPP@@UAEXI@Z 004132d3 f i bench2.obj
 0001:0001230b       ?LoadPrecomputation@?$DL_GroupParameters@UEC2NPoint@CryptoPP@@@CryptoPP@@$4PPPPPPPM@ME@AEXAAVBufferedTransformation@2@@Z 0041330b f i bench2.obj
 0001:00012319       ?LoadPrecomputation@?$DL_GroupParameters@UECPPoint@CryptoPP@@@CryptoPP@@UAEXAAVBufferedTransformation@2@@Z 00413319 f i bench2.obj
 0001:00012319       ?LoadPrecomputation@?$DL_GroupParameters@VInteger@CryptoPP@@@CryptoPP@@UAEXAAVBufferedTransformation@2@@Z 00413319 f i bench2.obj
 0001:00012319       ?LoadPrecomputation@?$DL_GroupParameters@UEC2NPoint@CryptoPP@@@CryptoPP@@UAEXAAVBufferedTransformation@2@@Z 00413319 f i bench2.obj
 0001:0001234a       ?SavePrecomputation@?$DL_GroupParameters@UEC2NPoint@CryptoPP@@@CryptoPP@@$4PPPPPPPM@ME@BEXAAVBufferedTransformation@2@@Z 0041334a f i bench2.obj
 0001:00012358       ??_E?$DL_VerifierImpl@U?$DL_SignatureSchemeOptions@V?$DL_SS@U?$DL_Keys_ECDSA@VECP@CryptoPP@@@CryptoPP@@V?$DL_Algorithm_ECDSA@VECP@CryptoPP@@@2@VDL_SignatureMessageEncodingMethod_DSA@2@VSHA256@2@H@CryptoPP@@U?$DL_Keys_ECDSA@VECP@CryptoPP@@@2@V?$DL_Algorithm_ECDSA@VECP@CryptoPP@@@2@VDL_SignatureMessageEncodingMethod_DSA@2@VSHA256@2@@CryptoPP@@@CryptoPP@@W3AEPAXI@Z 00413358 f i bench2.obj
 0001:00012360       ??_E?$DL_KeyImpl@VPKCS8PrivateKey@CryptoPP@@V?$DL_GroupParameters_EC@VECP@CryptoPP@@@2@VOID@2@@CryptoPP@@WOI@AEPAXI@Z 00413360 f i bench2.obj
 0001:0001236b       ?Save@?$ASN1CryptoMaterial@VPrivateKey@CryptoPP@@@CryptoPP@@WNM@BEXAAVBufferedTransformation@2@@Z 0041336b f i bench2.obj
 0001:00012376       ?Save@?$ASN1CryptoMaterial@VPrivateKey@CryptoPP@@@CryptoPP@@UBEXAAVBufferedTransformation@2@@Z 00413376 f i bench2.obj
 0001:00012386       ?Load@?$ASN1CryptoMaterial@VPrivateKey@CryptoPP@@@CryptoPP@@WNM@AEXAAVBufferedTransformation@2@@Z 00413386 f i bench2.obj
 0001:00012391       ?Load@?$ASN1CryptoMaterial@VPrivateKey@CryptoPP@@@CryptoPP@@UAEXAAVBufferedTransformation@2@@Z 00413391 f i bench2.obj
 0001:000123a1       ??_E?$DL_DecryptorImpl@U?$DL_CryptoSchemeOptions@U?$ECIES@VECP@CryptoPP@@U?$EnumToType@W4CofactorMultiplicationOption@CryptoPP@@$0A@@2@$0A@@CryptoPP@@U?$DL_Keys_EC@VECP@CryptoPP@@@2@V?$DL_KeyAgreementAlgorithm_DH@UECPPoint@CryptoPP@@U?$EnumToType@W4CofactorMultiplicationOption@CryptoPP@@$0A@@2@@2@V?$DL_KeyDerivationAlgorithm_P1363@UECPPoint@CryptoPP@@$0A@V?$P1363_KDF2@VSHA1@CryptoPP@@@2@@2@V?$DL_EncryptionAlgorithm_Xor@V?$HMAC@VSHA1@CryptoPP@@@CryptoPP@@$0A@@2@@CryptoPP@@@CryptoPP@@W3AEPAXI@Z 004133a1 f i bench2.obj
 0001:000123a9       ??_E?$DL_GroupParametersImpl@V?$EcPrecomputation@VEC2N@CryptoPP@@@CryptoPP@@V?$DL_FixedBasePrecomputationImpl@UEC2NPoint@CryptoPP@@@2@V?$DL_GroupParameters@UEC2NPoint@CryptoPP@@@2@@CryptoPP@@$4PPPPPPPM@A@AEPAXI@Z 004133a9 f i bench2.obj
 0001:000123b1       ??_E?$DL_GroupParametersImpl@V?$EcPrecomputation@VEC2N@CryptoPP@@@CryptoPP@@V?$DL_FixedBasePrecomputationImpl@UEC2NPoint@CryptoPP@@@2@V?$DL_GroupParameters@UEC2NPoint@CryptoPP@@@2@@CryptoPP@@UAEPAXI@Z 004133b1 f i bench2.obj
 0001:000123b1       ??_G?$DL_GroupParametersImpl@V?$EcPrecomputation@VEC2N@CryptoPP@@@CryptoPP@@V?$DL_FixedBasePrecomputationImpl@UEC2NPoint@CryptoPP@@@2@V?$DL_GroupParameters@UEC2NPoint@CryptoPP@@@2@@CryptoPP@@UAEPAXI@Z 004133b1 f i bench2.obj
 0001:000123e2       ?GetVoidValue@?$DL_GroupParameters@UEC2NPoint@CryptoPP@@@CryptoPP@@$4PPPPPPPM@II@BE_NPBDABVtype_info@@PAX@Z 004133e2 f i bench2.obj
 0001:000123f0       ?GetVoidValue@?$DL_GroupParameters@UEC2NPoint@CryptoPP@@@CryptoPP@@UBE_NPBDABVtype_info@@PAX@Z 004133f0 f i bench2.obj
 0001:0001246c       ??R?$GetValueHelperClass@V?$DL_GroupParameters@UECPPoint@CryptoPP@@@CryptoPP@@V12@@CryptoPP@@QAEAAV01@PBDP8?$DL_GroupParameters@UECPPoint@CryptoPP@@@1@BEABVInteger@1@XZ@Z 0041346c f i bench2.obj
 0001:0001246c       ??R?$GetValueHelperClass@V?$DL_GroupParameters@UEC2NPoint@CryptoPP@@@CryptoPP@@V12@@CryptoPP@@QAEAAV01@PBDP8?$DL_GroupParameters@UEC2NPoint@CryptoPP@@@1@BEABVInteger@1@XZ@Z 0041346c f i bench2.obj
 0001:000124fc       ??R?$GetValueHelperClass@V?$DL_GroupParameters@UEC2NPoint@CryptoPP@@@CryptoPP@@V12@@CryptoPP@@QAEAAV01@PBDP8?$DL_GroupParameters@UEC2NPoint@CryptoPP@@@1@BEABUEC2NPoint@1@XZ@Z 004134fc f i bench2.obj
 0001:0001258c       ??0?$GetValueHelperClass@V?$DL_GroupParameters@UEC2NPoint@CryptoPP@@@CryptoPP@@V12@@CryptoPP@@QAE@PBV?$DL_GroupParameters@UEC2NPoint@CryptoPP@@@1@PBDABVtype_info@@PAXPBVNameValuePairs@1@@Z 0041358c f i bench2.obj
 0001:00012714       ??_9@$B3AE                 00413714 f i bench2.obj
 0001:00012719       ?Validate@?$DL_GroupParameters@UEC2NPoint@CryptoPP@@@CryptoPP@@$4PPPPPPPM@II@BE_NAAVRandomNumberGenerator@2@I@Z 00413719 f i bench2.obj
 0001:00012727       ?SupportsPrecomputation@?$DL_GroupParameters@UEC2NPoint@CryptoPP@@@CryptoPP@@$4PPPPPPPM@II@BE_NXZ 00413727 f i bench2.obj
 0001:00012735       ?Precompute@?$DL_GroupParameters@UEC2NPoint@CryptoPP@@@CryptoPP@@$4PPPPPPPM@II@AEXI@Z 00413735 f i bench2.obj
 0001:00012743       ?LoadPrecomputation@?$DL_GroupParameters@UEC2NPoint@CryptoPP@@@CryptoPP@@$4PPPPPPPM@II@AEXAAVBufferedTransformation@2@@Z 00413743 f i bench2.obj
 0001:00012751       ?SavePrecomputation@?$DL_GroupParameters@UEC2NPoint@CryptoPP@@@CryptoPP@@$4PPPPPPPM@II@BEXAAVBufferedTransformation@2@@Z 00413751 f i bench2.obj
 0001:0001275f       ?Save@?$ASN1CryptoMaterial@VPublicKey@CryptoPP@@@CryptoPP@@WLE@BEXAAVBufferedTransformation@2@@Z 0041375f f i bench2.obj
 0001:0001276a       ?Load@?$ASN1CryptoMaterial@VPublicKey@CryptoPP@@@CryptoPP@@WLE@AEXAAVBufferedTransformation@2@@Z 0041376a f i bench2.obj
 0001:00012775       ??_E?$DL_PrivateKeyImpl@V?$DL_GroupParameters_EC@VECP@CryptoPP@@@CryptoPP@@@CryptoPP@@WPM@AEPAXI@Z 00413775 f i bench2.obj
 0001:00012780       ?Save@?$ASN1CryptoMaterial@VPrivateKey@CryptoPP@@@CryptoPP@@WPA@BEXAAVBufferedTransformation@2@@Z 00413780 f i bench2.obj
 0001:0001278b       ?Load@?$ASN1CryptoMaterial@VPrivateKey@CryptoPP@@@CryptoPP@@WPA@AEXAAVBufferedTransformation@2@@Z 0041378b f i bench2.obj
 0001:00012796       ??_E?$DL_EncryptorImpl@U?$DL_CryptoSchemeOptions@U?$ECIES@VECP@CryptoPP@@U?$EnumToType@W4CofactorMultiplicationOption@CryptoPP@@$0A@@2@$0A@@CryptoPP@@U?$DL_Keys_EC@VECP@CryptoPP@@@2@V?$DL_KeyAgreementAlgorithm_DH@UECPPoint@CryptoPP@@U?$EnumToType@W4CofactorMultiplicationOption@CryptoPP@@$0A@@2@@2@V?$DL_KeyDerivationAlgorithm_P1363@UECPPoint@CryptoPP@@$0A@V?$P1363_KDF2@VSHA1@CryptoPP@@@2@@2@V?$DL_EncryptionAlgorithm_Xor@V?$HMAC@VSHA1@CryptoPP@@@CryptoPP@@$0A@@2@@CryptoPP@@@CryptoPP@@W3AEPAXI@Z 00413796 f i bench2.obj
 0001:0001279e       ??_E?$DL_PrivateKeyImpl@V?$DL_GroupParameters_EC@VEC2N@CryptoPP@@@CryptoPP@@@CryptoPP@@WBCA@AEPAXI@Z 0041379e f i bench2.obj
 0001:000127a9       ?Save@?$ASN1CryptoMaterial@VPrivateKey@CryptoPP@@@CryptoPP@@WBBE@BEXAAVBufferedTransformation@2@@Z 004137a9 f i bench2.obj
 0001:000127b4       ?Load@?$ASN1CryptoMaterial@VPrivateKey@CryptoPP@@@CryptoPP@@WBBE@AEXAAVBufferedTransformation@2@@Z 004137b4 f i bench2.obj
 0001:000127bf       ??_E?$DL_SignerImpl@U?$DL_SignatureSchemeOptions@V?$DL_SS@U?$DL_Keys_ECDSA@VEC2N@CryptoPP@@@CryptoPP@@V?$DL_Algorithm_ECDSA@VEC2N@CryptoPP@@@2@VDL_SignatureMessageEncodingMethod_DSA@2@VSHA1@2@H@CryptoPP@@U?$DL_Keys_ECDSA@VEC2N@CryptoPP@@@2@V?$DL_Algorithm_ECDSA@VEC2N@CryptoPP@@@2@VDL_SignatureMessageEncodingMethod_DSA@2@VSHA1@2@@CryptoPP@@@CryptoPP@@W3AEPAXI@Z 004137bf f i bench2.obj
 0001:000127c7       ??_E?$DL_PublicKeyImpl@V?$DL_GroupParameters_EC@VECP@CryptoPP@@@CryptoPP@@@CryptoPP@@WBBE@AEPAXI@Z 004137c7 f i bench2.obj
 0001:000127d2       ?Save@?$ASN1CryptoMaterial@VPublicKey@CryptoPP@@@CryptoPP@@WBAM@BEXAAVBufferedTransformation@2@@Z 004137d2 f i bench2.obj
 0001:000127dd       ?Load@?$ASN1CryptoMaterial@VPublicKey@CryptoPP@@@CryptoPP@@WBAM@AEXAAVBufferedTransformation@2@@Z 004137dd f i bench2.obj
 0001:000127e8       ??_E?$DL_VerifierImpl@U?$DL_SignatureSchemeOptions@V?$DL_SS@U?$DL_Keys_ECDSA@VEC2N@CryptoPP@@@CryptoPP@@V?$DL_Algorithm_ECDSA@VEC2N@CryptoPP@@@2@VDL_SignatureMessageEncodingMethod_DSA@2@VSHA1@2@H@CryptoPP@@U?$DL_Keys_ECDSA@VEC2N@CryptoPP@@@2@V?$DL_Algorithm_ECDSA@VEC2N@CryptoPP@@@2@VDL_SignatureMessageEncodingMethod_DSA@2@VSHA1@2@@CryptoPP@@@CryptoPP@@W3AEPAXI@Z 004137e8 f i bench2.obj
 0001:000127f0       ??_E?$DL_PublicKey_EC@VECP@CryptoPP@@@CryptoPP@@WBBE@AEPAXI@Z 004137f0 f i bench2.obj
 0001:000127fb       ??_E?$DL_PrivateKey_EC@VEC2N@CryptoPP@@@CryptoPP@@WBCA@AEPAXI@Z 004137fb f i bench2.obj
 0001:000127fb       ??_E?$DL_PrivateKey_WithSignaturePairwiseConsistencyTest@V?$DL_PrivateKey_EC@VEC2N@CryptoPP@@@CryptoPP@@U?$ECDSA@VEC2N@CryptoPP@@VSHA256@2@@2@@CryptoPP@@WBCA@AEPAXI@Z 004137fb f i bench2.obj
 0001:00012806       ??_E?$DL_DecryptorImpl@U?$DL_CryptoSchemeOptions@U?$ECIES@VEC2N@CryptoPP@@U?$EnumToType@W4CofactorMultiplicationOption@CryptoPP@@$0A@@2@$0A@@CryptoPP@@U?$DL_Keys_EC@VEC2N@CryptoPP@@@2@V?$DL_KeyAgreementAlgorithm_DH@UEC2NPoint@CryptoPP@@U?$EnumToType@W4CofactorMultiplicationOption@CryptoPP@@$0A@@2@@2@V?$DL_KeyDerivationAlgorithm_P1363@UEC2NPoint@CryptoPP@@$0A@V?$P1363_KDF2@VSHA1@CryptoPP@@@2@@2@V?$DL_EncryptionAlgorithm_Xor@V?$HMAC@VSHA1@CryptoPP@@@CryptoPP@@$0A@@2@@CryptoPP@@@CryptoPP@@W3AEPAXI@Z 00413806 f i bench2.obj
 0001:0001280e       ??_E?$DL_KeyImpl@VPKCS8PrivateKey@CryptoPP@@V?$DL_GroupParameters_EC@VEC2N@CryptoPP@@@2@VOID@2@@CryptoPP@@WBAM@AEPAXI@Z 0041380e f i bench2.obj
 0001:00012819       ?Save@?$ASN1CryptoMaterial@VPrivateKey@CryptoPP@@@CryptoPP@@WBAA@BEXAAVBufferedTransformation@2@@Z 00413819 f i bench2.obj
 0001:00012824       ?Load@?$ASN1CryptoMaterial@VPrivateKey@CryptoPP@@@CryptoPP@@WBAA@AEXAAVBufferedTransformation@2@@Z 00413824 f i bench2.obj
 0001:0001282f       ??_E?$DL_EncryptorImpl@U?$DL_CryptoSchemeOptions@U?$ECIES@VEC2N@CryptoPP@@U?$EnumToType@W4CofactorMultiplicationOption@CryptoPP@@$0A@@2@$0A@@CryptoPP@@U?$DL_Keys_EC@VEC2N@CryptoPP@@@2@V?$DL_KeyAgreementAlgorithm_DH@UEC2NPoint@CryptoPP@@U?$EnumToType@W4CofactorMultiplicationOption@CryptoPP@@$0A@@2@@2@V?$DL_KeyDerivationAlgorithm_P1363@UEC2NPoint@CryptoPP@@$0A@V?$P1363_KDF2@VSHA1@CryptoPP@@@2@@2@V?$DL_EncryptionAlgorithm_Xor@V?$HMAC@VSHA1@CryptoPP@@@CryptoPP@@$0A@@2@@CryptoPP@@@CryptoPP@@W3AEPAXI@Z 0041382f f i bench2.obj
 0001:00012837       ??_E?$HMAC@VSHA1@CryptoPP@@@CryptoPP@@W3AEPAXI@Z 00413837 f i bench2.obj
 0001:0001283f       ??_E?$MessageAuthenticationCodeImpl@VHMAC_Base@CryptoPP@@V?$HMAC@VSHA1@CryptoPP@@@2@@CryptoPP@@W3AEPAXI@Z 0041383f f i bench2.obj
 0001:00012847       ??_E?$DL_SignerImpl@U?$DL_SignatureSchemeOptions@V?$DL_SS@U?$DL_Keys_ECDSA@VEC2N@CryptoPP@@@CryptoPP@@V?$DL_Algorithm_ECDSA@VEC2N@CryptoPP@@@2@VDL_SignatureMessageEncodingMethod_DSA@2@VSHA256@2@H@CryptoPP@@U?$DL_Keys_ECDSA@VEC2N@CryptoPP@@@2@V?$DL_Algorithm_ECDSA@VEC2N@CryptoPP@@@2@VDL_SignatureMessageEncodingMethod_DSA@2@VSHA256@2@@CryptoPP@@@CryptoPP@@W3AEPAXI@Z 00413847 f i bench2.obj
 0001:0001284f       ??_E?$DL_KeyImpl@VX509PublicKey@CryptoPP@@V?$DL_GroupParameters_EC@VEC2N@CryptoPP@@@2@VOID@2@@CryptoPP@@WOA@AEPAXI@Z 0041384f f i bench2.obj
 0001:0001285a       ?Save@?$ASN1CryptoMaterial@VPublicKey@CryptoPP@@@CryptoPP@@WNI@BEXAAVBufferedTransformation@2@@Z 0041385a f i bench2.obj
 0001:00012865       ?Load@?$ASN1CryptoMaterial@VPublicKey@CryptoPP@@@CryptoPP@@WNI@AEXAAVBufferedTransformation@2@@Z 00413865 f i bench2.obj
 0001:00012870       ??_E?$DL_PrivateKey_WithSignaturePairwiseConsistencyTest@V?$DL_PrivateKey_EC@VECP@CryptoPP@@@CryptoPP@@U?$ECDSA@VECP@CryptoPP@@VSHA256@2@@2@@CryptoPP@@WPM@AEPAXI@Z 00413870 f i bench2.obj
 0001:00012870       ??_E?$DL_PrivateKey_EC@VECP@CryptoPP@@@CryptoPP@@WPM@AEPAXI@Z 00413870 f i bench2.obj
 0001:0001287b       ??_E?$DL_KeyImpl@VX509PublicKey@CryptoPP@@V?$DL_GroupParameters_EC@VECP@CryptoPP@@@2@VOID@2@@CryptoPP@@WLM@AEPAXI@Z 0041387b f i bench2.obj
 0001:00012886       ??_E?$DL_PublicKeyImpl@V?$DL_GroupParameters_EC@VEC2N@CryptoPP@@@CryptoPP@@@CryptoPP@@WBCI@AEPAXI@Z 00413886 f i bench2.obj
 0001:00012891       ?Save@?$ASN1CryptoMaterial@VPublicKey@CryptoPP@@@CryptoPP@@WBCA@BEXAAVBufferedTransformation@2@@Z 00413891 f i bench2.obj
 0001:0001289c       ?Load@?$ASN1CryptoMaterial@VPublicKey@CryptoPP@@@CryptoPP@@WBCA@AEXAAVBufferedTransformation@2@@Z 0041389c f i bench2.obj
 0001:000128a7       ??_E?$DL_VerifierImpl@U?$DL_SignatureSchemeOptions@V?$DL_SS@U?$DL_Keys_ECDSA@VEC2N@CryptoPP@@@CryptoPP@@V?$DL_Algorithm_ECDSA@VEC2N@CryptoPP@@@2@VDL_SignatureMessageEncodingMethod_DSA@2@VSHA256@2@H@CryptoPP@@U?$DL_Keys_ECDSA@VEC2N@CryptoPP@@@2@V?$DL_Algorithm_ECDSA@VEC2N@CryptoPP@@@2@VDL_SignatureMessageEncodingMethod_DSA@2@VSHA256@2@@CryptoPP@@@CryptoPP@@W3AEPAXI@Z 004138a7 f i bench2.obj
 0001:000128af       ??_E?$DL_SignerImpl@U?$DL_SignatureSchemeOptions@V?$DL_SS@U?$DL_Keys_ECDSA@VECP@CryptoPP@@@CryptoPP@@V?$DL_Algorithm_ECDSA@VECP@CryptoPP@@@2@VDL_SignatureMessageEncodingMethod_DSA@2@VSHA1@2@H@CryptoPP@@U?$DL_Keys_ECDSA@VECP@CryptoPP@@@2@V?$DL_Algorithm_ECDSA@VECP@CryptoPP@@@2@VDL_SignatureMessageEncodingMethod_DSA@2@VSHA1@2@@CryptoPP@@@CryptoPP@@W3AEPAXI@Z 004138af f i bench2.obj
 0001:000128b7       ??_EX509PublicKey@CryptoPP@@W7AEPAXI@Z 004138b7 f i bench2.obj
 0001:000128bf       ??_EPKCS8PrivateKey@CryptoPP@@WDE@AEPAXI@Z 004138bf f i bench2.obj
 0001:000128c7       ?Save@?$ASN1CryptoMaterial@VPrivateKey@CryptoPP@@@CryptoPP@@WCI@BEXAAVBufferedTransformation@2@@Z 004138c7 f i bench2.obj
 0001:000128cf       ?Load@?$ASN1CryptoMaterial@VPrivateKey@CryptoPP@@@CryptoPP@@WCI@AEXAAVBufferedTransformation@2@@Z 004138cf f i bench2.obj
 0001:000128d7       ??_E?$DL_VerifierImpl@U?$DL_SignatureSchemeOptions@V?$DL_SS@U?$DL_Keys_ECDSA@VECP@CryptoPP@@@CryptoPP@@V?$DL_Algorithm_ECDSA@VECP@CryptoPP@@@2@VDL_SignatureMessageEncodingMethod_DSA@2@VSHA1@2@H@CryptoPP@@U?$DL_Keys_ECDSA@VECP@CryptoPP@@@2@V?$DL_Algorithm_ECDSA@VECP@CryptoPP@@@2@VDL_SignatureMessageEncodingMethod_DSA@2@VSHA1@2@@CryptoPP@@@CryptoPP@@W3AEPAXI@Z 004138d7 f i bench2.obj
 0001:000128df       ??_E?$DL_PublicKey_EC@VEC2N@CryptoPP@@@CryptoPP@@WBCI@AEPAXI@Z 004138df f i bench2.obj
 0001:000128ea       ??_E?$DL_GroupParameters_EC@VECP@CryptoPP@@@CryptoPP@@$4PPPPPPPM@A@AEPAXI@Z 004138ea f i bench2.obj
 0001:000128f2       ??_E?$DL_GroupParameters_EC@VECP@CryptoPP@@@CryptoPP@@UAEPAXI@Z 004138f2 f i bench2.obj
 0001:000128f2       ??_G?$DL_GroupParameters_EC@VECP@CryptoPP@@@CryptoPP@@UAEPAXI@Z 004138f2 f i bench2.obj
 0001:00012923       ?GetVoidValue@?$DL_GroupParameters_EC@VECP@CryptoPP@@@CryptoPP@@$4PPPPPPPM@A@BE_NPBDABVtype_info@@PAX@Z 00413923 f i bench2.obj
 0001:0001292b       ?AssignFrom@?$DL_GroupParameters_EC@VECP@CryptoPP@@@CryptoPP@@$4PPPPPPPM@A@AEXABVNameValuePairs@2@@Z 0041392b f i bench2.obj
 0001:00012933       ?Validate@?$DL_GroupParameters@UECPPoint@CryptoPP@@@CryptoPP@@$4PPPPPPPM@KA@BE_NAAVRandomNumberGenerator@2@I@Z 00413933 f i bench2.obj
 0001:00012941       ?SupportsPrecomputation@?$DL_GroupParameters@UECPPoint@CryptoPP@@@CryptoPP@@$4PPPPPPPM@KA@BE_NXZ 00413941 f i bench2.obj
 0001:0001294f       ?Precompute@?$DL_GroupParameters@UECPPoint@CryptoPP@@@CryptoPP@@$4PPPPPPPM@KA@AEXI@Z 0041394f f i bench2.obj
 0001:0001295d       ?LoadPrecomputation@?$DL_GroupParameters@UECPPoint@CryptoPP@@@CryptoPP@@$4PPPPPPPM@KA@AEXAAVBufferedTransformation@2@@Z 0041395d f i bench2.obj
 0001:0001296b       ?SavePrecomputation@?$DL_GroupParameters@UECPPoint@CryptoPP@@@CryptoPP@@$4PPPPPPPM@KA@BEXAAVBufferedTransformation@2@@Z 0041396b f i bench2.obj
 0001:00012979       ??_E?$DL_GroupParametersImpl@V?$EcPrecomputation@VECP@CryptoPP@@@CryptoPP@@V?$DL_FixedBasePrecomputationImpl@UECPPoint@CryptoPP@@@2@V?$DL_GroupParameters@UECPPoint@CryptoPP@@@2@@CryptoPP@@$4PPPPPPPM@A@AEPAXI@Z 00413979 f i bench2.obj
 0001:00012981       ??_G?$DL_GroupParametersImpl@V?$EcPrecomputation@VECP@CryptoPP@@@CryptoPP@@V?$DL_FixedBasePrecomputationImpl@UECPPoint@CryptoPP@@@2@V?$DL_GroupParameters@UECPPoint@CryptoPP@@@2@@CryptoPP@@UAEPAXI@Z 00413981 f i bench2.obj
 0001:00012981       ??_E?$DL_GroupParametersImpl@V?$EcPrecomputation@VECP@CryptoPP@@@CryptoPP@@V?$DL_FixedBasePrecomputationImpl@UECPPoint@CryptoPP@@@2@V?$DL_GroupParameters@UECPPoint@CryptoPP@@@2@@CryptoPP@@UAEPAXI@Z 00413981 f i bench2.obj
 0001:000129ac       ?GetVoidValue@?$DL_GroupParameters@UECPPoint@CryptoPP@@@CryptoPP@@$4PPPPPPPM@GE@BE_NPBDABVtype_info@@PAX@Z 004139ac f i bench2.obj
 0001:000129b7       ?GetVoidValue@?$DL_GroupParameters@UECPPoint@CryptoPP@@@CryptoPP@@UBE_NPBDABVtype_info@@PAX@Z 004139b7 f i bench2.obj
 0001:00012a33       ??R?$GetValueHelperClass@V?$DL_GroupParameters@UECPPoint@CryptoPP@@@CryptoPP@@V12@@CryptoPP@@QAEAAV01@PBDP8?$DL_GroupParameters@UECPPoint@CryptoPP@@@1@BEABUECPPoint@1@XZ@Z 00413a33 f i bench2.obj
 0001:00012ac3       ??0?$GetValueHelperClass@V?$DL_GroupParameters@UECPPoint@CryptoPP@@@CryptoPP@@V12@@CryptoPP@@QAE@PBV?$DL_GroupParameters@UECPPoint@CryptoPP@@@1@PBDABVtype_info@@PAXPBVNameValuePairs@1@@Z 00413ac3 f i bench2.obj
 0001:00012c4b       ?Validate@?$DL_GroupParameters@UECPPoint@CryptoPP@@@CryptoPP@@$4PPPPPPPM@GE@BE_NAAVRandomNumberGenerator@2@I@Z 00413c4b f i bench2.obj
 0001:00012c56       ?SupportsPrecomputation@?$DL_GroupParameters@UECPPoint@CryptoPP@@@CryptoPP@@$4PPPPPPPM@GE@BE_NXZ 00413c56 f i bench2.obj
 0001:00012c61       ?Precompute@?$DL_GroupParameters@UECPPoint@CryptoPP@@@CryptoPP@@$4PPPPPPPM@GE@AEXI@Z 00413c61 f i bench2.obj
 0001:00012c6c       ?LoadPrecomputation@?$DL_GroupParameters@UECPPoint@CryptoPP@@@CryptoPP@@$4PPPPPPPM@GE@AEXAAVBufferedTransformation@2@@Z 00413c6c f i bench2.obj
 0001:00012c77       ?SavePrecomputation@?$DL_GroupParameters@UECPPoint@CryptoPP@@@CryptoPP@@$4PPPPPPPM@GE@BEXAAVBufferedTransformation@2@@Z 00413c77 f i bench2.obj
 0001:00012c82       ??_E?$DL_SignerImpl@U?$DL_SignatureSchemeOptions@V?$DL_SS@U?$DL_Keys_ECDSA@VECP@CryptoPP@@@CryptoPP@@V?$DL_Algorithm_ECDSA@VECP@CryptoPP@@@2@VDL_SignatureMessageEncodingMethod_DSA@2@VSHA256@2@H@CryptoPP@@U?$DL_Keys_ECDSA@VECP@CryptoPP@@@2@V?$DL_Algorithm_ECDSA@VECP@CryptoPP@@@2@VDL_SignatureMessageEncodingMethod_DSA@2@VSHA256@2@@CryptoPP@@@CryptoPP@@W3AEPAXI@Z 00413c82 f i bench2.obj
 0001:00012c8a       ?DataExists@@YA_NABV?$map@V?$basic_string@DU?$char_traits@D@std@@V?$allocator@D@2@@std@@V12@U?$less@V?$basic_string@DU?$char_traits@D@std@@V?$allocator@D@2@@std@@@2@V?$allocator@V?$basic_string@DU?$char_traits@D@std@@V?$allocator@D@2@@std@@@2@@std@@PBD@Z 00413c8a f   datatest.obj
 0001:00012cfc       ?GetRequiredDatum@@YAABV?$basic_string@DU?$char_traits@D@std@@V?$allocator@D@2@@std@@ABV?$map@V?$basic_string@DU?$char_traits@D@std@@V?$allocator@D@2@@std@@V12@U?$less@V?$basic_string@DU?$char_traits@D@std@@V?$allocator@D@2@@std@@@2@V?$allocator@V?$basic_string@DU?$char_traits@D@std@@V?$allocator@D@2@@std@@@2@@2@PBD@Z 00413cfc f   datatest.obj
 0001:00012e4f       ?RandomizedTransfer@@YAXAAVBufferedTransformation@CryptoPP@@0_NABV?$basic_string@DU?$char_traits@D@std@@V?$allocator@D@2@@std@@@Z 00413e4f f   datatest.obj
 0001:00012f30       ?PutDecodedDatumInto@@YAXABV?$map@V?$basic_string@DU?$char_traits@D@std@@V?$allocator@D@2@@std@@V12@U?$less@V?$basic_string@DU?$char_traits@D@std@@V?$allocator@D@2@@std@@@2@V?$allocator@V?$basic_string@DU?$char_traits@D@std@@V?$allocator@D@2@@std@@@2@@std@@PBDAAVBufferedTransformation@CryptoPP@@@Z 00413f30 f   datatest.obj
 0001:0001345e       ?GetDecodedDatum@@YA?AV?$basic_string@DU?$char_traits@D@std@@V?$allocator@D@2@@std@@ABV?$map@V?$basic_string@DU?$char_traits@D@std@@V?$allocator@D@2@@std@@V12@U?$less@V?$basic_string@DU?$char_traits@D@std@@V?$allocator@D@2@@std@@@2@V?$allocator@V?$basic_string@DU?$char_traits@D@std@@V?$allocator@D@2@@std@@@2@@2@PBD@Z 0041445e f   datatest.obj
 0001:00013501       ?GetOptionalDecodedDatum@@YA?AV?$basic_string@DU?$char_traits@D@std@@V?$allocator@D@2@@std@@ABV?$map@V?$basic_string@DU?$char_traits@D@std@@V?$allocator@D@2@@std@@V12@U?$less@V?$basic_string@DU?$char_traits@D@std@@V?$allocator@D@2@@std@@@2@V?$allocator@V?$basic_string@DU?$char_traits@D@std@@V?$allocator@D@2@@std@@@2@@2@PBD@Z 00414501 f   datatest.obj
 0001:000135b4       ?TestKeyPairValidAndConsistent@@YAXAAVCryptoMaterial@CryptoPP@@ABV12@@Z 004145b4 f   datatest.obj
 0001:00013619       ??0TestFailure@@QAE@XZ     00414619 f i datatest.obj
 0001:00013688       ??0TestFailure@@QAE@ABV0@@Z 00414688 f i datatest.obj
 0001:000136a0       ?TestSignatureScheme@@YAXAAV?$map@V?$basic_string@DU?$char_traits@D@std@@V?$allocator@D@2@@std@@V12@U?$less@V?$basic_string@DU?$char_traits@D@std@@V?$allocator@D@2@@std@@@2@V?$allocator@V?$basic_string@DU?$char_traits@D@std@@V?$allocator@D@2@@std@@@2@@std@@@Z 004146a0 f   datatest.obj
 0001:00013c7b       ?GetVoidValue@TestDataNameValuePairs@@UBE_NPBDABVtype_info@@PAX@Z 00414c7b f i datatest.obj
 0001:00013fff       ??_GTestDataNameValuePairs@@UAEPAXI@Z 00414fff f i datatest.obj
 0001:00013fff       ??_ETestDataNameValuePairs@@UAEPAXI@Z 00414fff f i datatest.obj
 0001:0001401b       ??1TestDataNameValuePairs@@UAE@XZ 0041501b f i datatest.obj
 0001:00014043       ??1SignatureVerificationFilter@CryptoPP@@UAE@XZ 00415043 f i datatest.obj
 0001:0001409a       ?TestAsymmetricCipher@@YAXAAV?$map@V?$basic_string@DU?$char_traits@D@std@@V?$allocator@D@2@@std@@V12@U?$less@V?$basic_string@DU?$char_traits@D@std@@V?$allocator@D@2@@std@@@2@V?$allocator@V?$basic_string@DU?$char_traits@D@std@@V?$allocator@D@2@@std@@@2@@std@@@Z 0041509a f   datatest.obj
 0001:00014495       ?TestSymmetricCipher@@YAXAAV?$map@V?$basic_string@DU?$char_traits@D@std@@V?$allocator@D@2@@std@@V12@U?$less@V?$basic_string@DU?$char_traits@D@std@@V?$allocator@D@2@@std@@@2@V?$allocator@V?$basic_string@DU?$char_traits@D@std@@V?$allocator@D@2@@std@@@2@@std@@ABVNameValuePairs@CryptoPP@@@Z 00415495 f   datatest.obj
 0001:0001534d       ??1StreamTransformationFilter@CryptoPP@@UAE@XZ 0041634d f i datatest.obj
 0001:0001539b       ?TestAuthenticatedSymmetricCipher@@YAXAAV?$map@V?$basic_string@DU?$char_traits@D@std@@V?$allocator@D@2@@std@@V12@U?$less@V?$basic_string@DU?$char_traits@D@std@@V?$allocator@D@2@@std@@@2@V?$allocator@V?$basic_string@DU?$char_traits@D@std@@V?$allocator@D@2@@std@@@2@@std@@ABVNameValuePairs@CryptoPP@@@Z 0041639b f   datatest.obj
 0001:00015d7b       ??1AuthenticatedEncryptionFilter@CryptoPP@@UAE@XZ 00416d7b f i datatest.obj
 0001:00015db0       ??1AuthenticatedDecryptionFilter@CryptoPP@@UAE@XZ 00416db0 f i datatest.obj
 0001:00015e0a       ??1HashFilter@CryptoPP@@UAE@XZ 00416e0a f i datatest.obj
 0001:00015e6a       ??1HashVerificationFilter@CryptoPP@@UAE@XZ 00416e6a f i datatest.obj
 0001:00015eb2       ?TestDigestOrMAC@@YAXAAV?$map@V?$basic_string@DU?$char_traits@D@std@@V?$allocator@D@2@@std@@V12@U?$less@V?$basic_string@DU?$char_traits@D@std@@V?$allocator@D@2@@std@@@2@V?$allocator@V?$basic_string@DU?$char_traits@D@std@@V?$allocator@D@2@@std@@@2@@std@@_N@Z 00416eb2 f   datatest.obj
 0001:00016147       ?GetField@@YA_NAAV?$basic_istream@DU?$char_traits@D@std@@@std@@AAV?$basic_string@DU?$char_traits@D@std@@V?$allocator@D@2@@2@1@Z 00417147 f   datatest.obj
 0001:0001630e       ?TestDataFile@@YAXABV?$basic_string@DU?$char_traits@D@std@@V?$allocator@D@2@@std@@ABVNameValuePairs@CryptoPP@@AAI2@Z 0041730e f   datatest.obj
 0001:000167f5       ??_D?$basic_ifstream@DU?$char_traits@D@std@@@std@@QAEXXZ 004177f5 f i datatest.obj
 0001:00016809       ??1?$map@V?$basic_string@DU?$char_traits@D@std@@V?$allocator@D@2@@std@@V12@U?$less@V?$basic_string@DU?$char_traits@D@std@@V?$allocator@D@2@@std@@@2@V?$allocator@V?$basic_string@DU?$char_traits@D@std@@V?$allocator@D@2@@std@@@2@@std@@QAE@XZ 00417809 f i datatest.obj
 0001:0001680e       ?RunTestDataFile@@YA_NPBDABVNameValuePairs@CryptoPP@@@Z 0041780e f   datatest.obj
 0001:000168f7       ??0?$basic_string@DU?$char_traits@D@std@@V?$allocator@D@2@@std@@QAE@ABV?$allocator@D@1@@Z 004178f7 f i datatest.obj
 0001:0001690f       ?resize@?$basic_string@DU?$char_traits@D@std@@V?$allocator@D@2@@std@@QAEXI@Z 0041790f f i datatest.obj
 0001:00016935       ?substr@?$basic_string@DU?$char_traits@D@std@@V?$allocator@D@2@@std@@QBE?AV12@II@Z 00417935 f i datatest.obj
 0001:00016968       ??6?$basic_ostream@DU?$char_traits@D@std@@@std@@QAEAAV01@I@Z 00417968 f i datatest.obj
 0001:00016a82       ??1?$basic_ios@DU?$char_traits@D@std@@@std@@UAE@XZ 00417a82 f i datatest.obj
 0001:00016a8d       ?ignore@?$basic_istream@DU?$char_traits@D@std@@@std@@QAEAAV12@HH@Z 00417a8d f i datatest.obj
 0001:00016b52       ?peek@?$basic_istream@DU?$char_traits@D@std@@@std@@QAEHXZ 00417b52 f i datatest.obj
 0001:00016c05       ?sgetc@?$basic_streambuf@DU?$char_traits@D@std@@@std@@QAEHXZ 00417c05 f i datatest.obj
 0001:00016c23       ??0?$SecBlock@EV?$AllocatorWithCleanup@E$0A@@CryptoPP@@@CryptoPP@@QAE@PBEI@Z 00417c23 f i datatest.obj
 0001:00016c6d       ?Flush@?$Unflushable@V?$Multichannel@VFilter@CryptoPP@@@CryptoPP@@@CryptoPP@@UAE_N_NH0@Z 00417c6d f i datatest.obj
 0001:00016c6d       ?Flush@?$Unflushable@VFilter@CryptoPP@@@CryptoPP@@UAE_N_NH0@Z 00417c6d f i datatest.obj
 0001:00016c6d       ?Flush@?$Unflushable@VSink@CryptoPP@@@CryptoPP@@UAE_N_NH0@Z 00417c6d f i datatest.obj
 0001:00016c6d       ?Flush@?$Multichannel@VSink@CryptoPP@@@CryptoPP@@UAE_N_NH0@Z 00417c6d f i datatest.obj
 0001:00016c89       ?ChannelFlush@?$Unflushable@VFilter@CryptoPP@@@CryptoPP@@UAE_NABV?$basic_string@DU?$char_traits@D@std@@V?$allocator@D@2@@std@@_NH1@Z 00417c89 f i datatest.obj
 0001:00016d35       ?IsolatedInitialize@?$StringSinkTemplate@V?$basic_string@DU?$char_traits@D@std@@V?$allocator@D@2@@std@@@CryptoPP@@UAEXABVNameValuePairs@2@@Z 00417d35 f i datatest.obj
 0001:00016dbb       ?Put2@?$StringSinkTemplate@V?$basic_string@DU?$char_traits@D@std@@V?$allocator@D@2@@std@@@CryptoPP@@UAEIPBEIH_N@Z 00417dbb f i datatest.obj
 0001:00016e00       ??A?$map@V?$basic_string@DU?$char_traits@D@std@@V?$allocator@D@2@@std@@V12@U?$less@V?$basic_string@DU?$char_traits@D@std@@V?$allocator@D@2@@std@@@2@V?$allocator@V?$basic_string@DU?$char_traits@D@std@@V?$allocator@D@2@@std@@@2@@std@@QAEAAV?$basic_string@DU?$char_traits@D@std@@V?$allocator@D@2@@1@ABV21@@Z 00417e00 f i datatest.obj
 0001:00016e87       ??1?$_Tree@V?$basic_string@DU?$char_traits@D@std@@V?$allocator@D@2@@std@@U?$pair@$$CBV?$basic_string@DU?$char_traits@D@std@@V?$allocator@D@2@@std@@V12@@2@U_Kfn@?$map@V?$basic_string@DU?$char_traits@D@std@@V?$allocator@D@2@@std@@V12@U?$less@V?$basic_string@DU?$char_traits@D@std@@V?$allocator@D@2@@std@@@2@V?$allocator@V?$basic_string@DU?$char_traits@D@std@@V?$allocator@D@2@@std@@@2@@2@U?$less@V?$basic_string@DU?$char_traits@D@std@@V?$allocator@D@2@@std@@@2@V?$allocator@V?$basic_string@DU?$char_traits@D@std@@V?$allocator@D@2@@std@@@2@@std@@QAE@XZ 00417e87 f i datatest.obj
 0001:00016ee6       ?CreateObject@?$ObjectFactoryRegistry@VPK_Signer@CryptoPP@@$0A@@CryptoPP@@QBEPAVPK_Signer@2@PBD@Z 00417ee6 f i datatest.obj
 0001:00016f1b       ?CreateObject@?$ObjectFactoryRegistry@VPK_Verifier@CryptoPP@@$0A@@CryptoPP@@QBEPAVPK_Verifier@2@PBD@Z 00417f1b f i datatest.obj
 0001:00016f50       ?CreateObject@?$ObjectFactoryRegistry@VPK_Encryptor@CryptoPP@@$0A@@CryptoPP@@QBEPAVPK_Encryptor@2@PBD@Z 00417f50 f i datatest.obj
 0001:00016f85       ?CreateObject@?$ObjectFactoryRegistry@VPK_Decryptor@CryptoPP@@$0A@@CryptoPP@@QBEPAVPK_Decryptor@2@PBD@Z 00417f85 f i datatest.obj
 0001:00016fba       ?CreateObject@?$ObjectFactoryRegistry@VSymmetricCipher@CryptoPP@@$00@CryptoPP@@QBEPAVSymmetricCipher@2@PBD@Z 00417fba f i datatest.obj
 0001:00016fef       ?CreateObject@?$ObjectFactoryRegistry@VAuthenticatedSymmetricCipher@CryptoPP@@$00@CryptoPP@@QBEPAVAuthenticatedSymmetricCipher@2@PBD@Z 00417fef f i datatest.obj
 0001:00017024       ?PutModifiable2@BufferedTransformation@CryptoPP@@UAEIPAEIH_N@Z 00418024 f i datatest.obj
 0001:0001703c       ??0?$basic_ifstream@DU?$char_traits@D@std@@@std@@QAE@PBDH@Z 0041803c f i datatest.obj
 0001:000170e1       ??1?$basic_istream@DU?$char_traits@D@std@@@std@@UAE@XZ 004180e1 f i datatest.obj
 0001:000170f0       ??1?$basic_ifstream@DU?$char_traits@D@std@@@std@@UAE@XZ 004180f0 f i datatest.obj
 0001:00017136       ??1?$basic_filebuf@DU?$char_traits@D@std@@@std@@UAE@XZ 00418136 f i datatest.obj
 0001:0001719b       ??1?$basic_streambuf@DU?$char_traits@D@std@@@std@@UAE@XZ 0041819b f i datatest.obj
 0001:000171a9       ?pbackfail@?$basic_streambuf@DU?$char_traits@D@std@@@std@@MAEHH@Z 004181a9 f i datatest.obj
 0001:000171a9       ?overflow@?$basic_streambuf@DU?$char_traits@D@std@@@std@@MAEHH@Z 004181a9 f i datatest.obj
 0001:000171af       ?uflow@?$basic_streambuf@DU?$char_traits@D@std@@@std@@MAEHXZ 004181af f i datatest.obj
 0001:000171cc       ?xsgetn@?$basic_streambuf@DU?$char_traits@D@std@@@std@@MAEHPADH@Z 004181cc f i datatest.obj
 0001:00017240       ?xsputn@?$basic_streambuf@DU?$char_traits@D@std@@@std@@MAEHPBDH@Z 00418240 f i datatest.obj
 0001:000172b6       ?CopyRangeTo@BufferedTransformation@CryptoPP@@QBE_KAAV12@_K1ABV?$basic_string@DU?$char_traits@D@std@@V?$allocator@D@2@@std@@@Z 004182b6 f i datatest.obj
 0001:000172fb       ?overflow@?$basic_filebuf@DU?$char_traits@D@std@@@std@@MAEHH@Z 004182fb f i datatest.obj
 0001:00017431       ?NumberOfMessagesInThisSeries@BufferedTransformation@CryptoPP@@UBEIXZ 00418431 f i datatest.obj
 0001:00017436       ?pbackfail@?$basic_filebuf@DU?$char_traits@D@std@@@std@@MAEHH@Z 00418436 f i datatest.obj
 0001:000174e3       ?underflow@?$basic_filebuf@DU?$char_traits@D@std@@@std@@MAEHXZ 004184e3 f i datatest.obj
 0001:00017510       ?AttachedTransformation@BufferedTransformation@CryptoPP@@UBEPBV12@XZ 00418510 f i datatest.obj
 0001:00017518       ?Detach@BufferedTransformation@CryptoPP@@UAEXPAV12@@Z 00418518 f i datatest.obj
 0001:00017574       ?uflow@?$basic_filebuf@DU?$char_traits@D@std@@@std@@MAEHXZ 00418574 f i datatest.obj
 0001:00017689       ?seekpos@?$basic_filebuf@GU?$char_traits@G@std@@@std@@MAE?AV?$fpos@H@2@V32@H@Z 00418689 f i datatest.obj
 0001:00017689       ?seekpos@?$basic_filebuf@DU?$char_traits@D@std@@@std@@MAE?AV?$fpos@H@2@V32@H@Z 00418689 f i datatest.obj
 0001:00017738       ?setbuf@?$basic_filebuf@DU?$char_traits@D@std@@@std@@MAEPAV?$basic_streambuf@DU?$char_traits@D@std@@@2@PADH@Z 00418738 f i datatest.obj
 0001:00017763       ??_G?$basic_ios@DU?$char_traits@D@std@@@std@@UAEPAXI@Z 00418763 f i datatest.obj
 0001:00017763       ??_E?$basic_ios@DU?$char_traits@D@std@@@std@@UAEPAXI@Z 00418763 f i datatest.obj
 0001:0001777f       ??_G?$basic_istream@DU?$char_traits@D@std@@@std@@UAEPAXI@Z 0041877f f i datatest.obj
 0001:0001777f       ??_E?$basic_istream@DU?$char_traits@D@std@@@std@@UAEPAXI@Z 0041877f f i datatest.obj
 0001:0001779e       ??_G?$basic_streambuf@DU?$char_traits@D@std@@@std@@UAEPAXI@Z 0041879e f i datatest.obj
 0001:0001779e       ??_E?$basic_streambuf@DU?$char_traits@D@std@@@std@@UAEPAXI@Z 0041879e f i datatest.obj
 0001:000177ba       ??0CannotFlush@CryptoPP@@QAE@ABV01@@Z 004187ba f i datatest.obj
 0001:000177d2       ??1?$pair@$$CBV?$basic_string@DU?$char_traits@D@std@@V?$allocator@D@2@@std@@V12@@std@@QAE@XZ 004187d2 f i datatest.obj
 0001:0001780b       ??0FactoryNotFound@?$ObjectFactoryRegistry@VPK_Signer@CryptoPP@@$0A@@CryptoPP@@QAE@ABV012@@Z 0041880b f i datatest.obj
 0001:00017823       ??0FactoryNotFound@?$ObjectFactoryRegistry@VPK_Verifier@CryptoPP@@$0A@@CryptoPP@@QAE@ABV012@@Z 00418823 f i datatest.obj
 0001:0001783b       ??0FactoryNotFound@?$ObjectFactoryRegistry@VPK_Encryptor@CryptoPP@@$0A@@CryptoPP@@QAE@ABV012@@Z 0041883b f i datatest.obj
 0001:00017853       ??1ParameterNotUsed@AlgorithmParametersBase@CryptoPP@@UAE@XZ 00418853 f i datatest.obj
 0001:00017853       ??1Exception@CryptoPP@@UAE@XZ 00418853 f i datatest.obj
 0001:00017853       ??1FactoryNotFound@?$ObjectFactoryRegistry@VPK_Encryptor@CryptoPP@@$0A@@CryptoPP@@UAE@XZ 00418853 f i datatest.obj
 0001:00017853       ??1FactoryNotFound@?$ObjectFactoryRegistry@VAuthenticatedSymmetricCipher@CryptoPP@@$00@CryptoPP@@UAE@XZ 00418853 f i datatest.obj
 0001:00017853       ??1InputRejected@?$InputRejecting@VFilter@CryptoPP@@@CryptoPP@@UAE@XZ 00418853 f i datatest.obj
 0001:00017853       ??1CannotFlush@CryptoPP@@UAE@XZ 00418853 f i datatest.obj
 0001:00017853       ??1FactoryNotFound@?$ObjectFactoryRegistry@VSymmetricCipher@CryptoPP@@$0A@@CryptoPP@@UAE@XZ 00418853 f i datatest.obj
 0001:00017853       ??1FactoryNotFound@?$ObjectFactoryRegistry@VHashTransformation@CryptoPP@@$0A@@CryptoPP@@UAE@XZ 00418853 f i datatest.obj
 0001:00017853       ??1ValueTypeMismatch@NameValuePairs@CryptoPP@@UAE@XZ 00418853 f i datatest.obj
 0001:00017853       ??1InputRejected@?$InputRejecting@VBufferedTransformation@CryptoPP@@@CryptoPP@@UAE@XZ 00418853 f i datatest.obj
 0001:00017853       ??1BlockingInputOnly@BufferedTransformation@CryptoPP@@UAE@XZ 00418853 f i datatest.obj
 0001:00017853       ??1FactoryNotFound@?$ObjectFactoryRegistry@VAuthenticatedSymmetricCipher@CryptoPP@@$0A@@CryptoPP@@UAE@XZ 00418853 f i datatest.obj
 0001:00017853       ??1TestFailure@@UAE@XZ     00418853 f i datatest.obj
 0001:00017853       ??1FactoryNotFound@?$ObjectFactoryRegistry@VPK_Decryptor@CryptoPP@@$0A@@CryptoPP@@UAE@XZ 00418853 f i datatest.obj
 0001:00017853       ??1InvalidDataFormat@CryptoPP@@UAE@XZ 00418853 f i datatest.obj
 0001:00017853       ??1DL_BadElement@CryptoPP@@UAE@XZ 00418853 f i datatest.obj
 0001:00017853       ??1FactoryNotFound@?$ObjectFactoryRegistry@VSymmetricCipher@CryptoPP@@$00@CryptoPP@@UAE@XZ 00418853 f i datatest.obj
 0001:00017853       ??1FactoryNotFound@?$ObjectFactoryRegistry@VPK_Verifier@CryptoPP@@$0A@@CryptoPP@@UAE@XZ 00418853 f i datatest.obj
 0001:00017853       ??1SelfTestFailure@CryptoPP@@UAE@XZ 00418853 f i datatest.obj
 0001:00017853       ??1FactoryNotFound@?$ObjectFactoryRegistry@VPK_Signer@CryptoPP@@$0A@@CryptoPP@@UAE@XZ 00418853 f i datatest.obj
 0001:00017853       ??1InvalidArgument@CryptoPP@@UAE@XZ 00418853 f i datatest.obj
 0001:00017853       ??1NotImplemented@CryptoPP@@UAE@XZ 00418853 f i datatest.obj
 0001:00017853       ??1InvalidMaterial@CryptoMaterial@CryptoPP@@UAE@XZ 00418853 f i datatest.obj
 0001:00017853       ??1FactoryNotFound@?$ObjectFactoryRegistry@VMessageAuthenticationCode@CryptoPP@@$0A@@CryptoPP@@UAE@XZ 00418853 f i datatest.obj
 0001:0001786f       ??0FactoryNotFound@?$ObjectFactoryRegistry@VPK_Decryptor@CryptoPP@@$0A@@CryptoPP@@QAE@ABV012@@Z 0041886f f i datatest.obj
 0001:00017887       ??0FactoryNotFound@?$ObjectFactoryRegistry@VSymmetricCipher@CryptoPP@@$00@CryptoPP@@QAE@ABV012@@Z 00418887 f i datatest.obj
 0001:0001789f       ??0FactoryNotFound@?$ObjectFactoryRegistry@VAuthenticatedSymmetricCipher@CryptoPP@@$00@CryptoPP@@QAE@ABV012@@Z 0041889f f i datatest.obj
 0001:000178b7       ??_E?$basic_ifstream@DU?$char_traits@D@std@@@std@@UAEPAXI@Z 004188b7 f i datatest.obj
 0001:000178b7       ??_G?$basic_ifstream@DU?$char_traits@D@std@@@std@@UAEPAXI@Z 004188b7 f i datatest.obj
 0001:000178e2       ??_E?$basic_filebuf@DU?$char_traits@D@std@@@std@@UAEPAXI@Z 004188e2 f i datatest.obj
 0001:000178e2       ??_G?$basic_filebuf@DU?$char_traits@D@std@@@std@@UAEPAXI@Z 004188e2 f i datatest.obj
 0001:000178fe       ??_D?$basic_istream@DU?$char_traits@D@std@@@std@@QAEXXZ 004188fe f i datatest.obj
 0001:00017913       ?append@?$basic_string@DU?$char_traits@D@std@@V?$allocator@D@2@@std@@QAEAAV12@PBD0@Z 00418913 f i datatest.obj
 0001:00017956       ?find@?$basic_string@DU?$char_traits@D@std@@V?$allocator@D@2@@std@@QBEIPBDII@Z 00418956 f i datatest.obj
 0001:000179d8       ?_Freeze@?$basic_string@DU?$char_traits@D@std@@V?$allocator@D@2@@std@@AAEXXZ 004189d8 f i datatest.obj
 0001:00017a04       ?widen@?$basic_ios@DU?$char_traits@D@std@@@std@@QBEDD@Z 00418a04 f i datatest.obj
 0001:00017a42       ??0?$fpos@H@std@@QAE@J@Z   00418a42 f i datatest.obj
 0001:00017a7c       ??0?$basic_istream@DU?$char_traits@D@std@@@std@@QAE@PAV?$basic_streambuf@DU?$char_traits@D@std@@@1@_N@Z 00418a7c f i datatest.obj
 0001:00017ae4       ?ipfx@?$basic_istream@DU?$char_traits@D@std@@@std@@QAE_N_N@Z 00418ae4 f i datatest.obj
 0001:00017bfb       ?snextc@?$basic_streambuf@DU?$char_traits@D@std@@@std@@QAEHXZ 00418bfb f i datatest.obj
 0001:00017c15       ?get@?$basic_istream@DU?$char_traits@D@std@@@std@@QAEAAV12@PADHD@Z 00418c15 f i datatest.obj
 0001:00017cfb       ?sbumpc@?$basic_streambuf@DU?$char_traits@D@std@@@std@@QAEHXZ 00418cfb f i datatest.obj
 0001:00017d1e       ?_Gndec@?$basic_streambuf@DU?$char_traits@D@std@@@std@@IAEPADXZ 00418d1e f i datatest.obj
 0001:00017d2e       ?_Gninc@?$basic_streambuf@DU?$char_traits@D@std@@@std@@IAEPADXZ 00418d2e f i datatest.obj
 0001:00017d3e       ?TransferTo2@Sink@CryptoPP@@UAEIAAVBufferedTransformation@2@AA_KABV?$basic_string@DU?$char_traits@D@std@@V?$allocator@D@2@@std@@_N@Z 00418d3e f i datatest.obj
 0001:00017d4e       ?CopyRangeTo2@Sink@CryptoPP@@UBEIAAVBufferedTransformation@2@AA_K_KABV?$basic_string@DU?$char_traits@D@std@@V?$allocator@D@2@@std@@_N@Z 00418d4e f i datatest.obj
 0001:00017d53       ??0?$_Tree@V?$basic_string@DU?$char_traits@D@std@@V?$allocator@D@2@@std@@U?$pair@$$CBV?$basic_string@DU?$char_traits@D@std@@V?$allocator@D@2@@std@@V12@@2@U_Kfn@?$map@V?$basic_string@DU?$char_traits@D@std@@V?$allocator@D@2@@std@@V12@U?$less@V?$basic_string@DU?$char_traits@D@std@@V?$allocator@D@2@@std@@@2@V?$allocator@V?$basic_string@DU?$char_traits@D@std@@V?$allocator@D@2@@std@@@2@@2@U?$less@V?$basic_string@DU?$char_traits@D@std@@V?$allocator@D@2@@std@@@2@V?$allocator@V?$basic_string@DU?$char_traits@D@std@@V?$allocator@D@2@@std@@@2@@std@@QAE@ABU?$less@V?$basic_string@DU?$char_traits@D@std@@V?$allocator@D@2@@std@@@1@_NABV?$allocator@V?$basic_string@DU?$char_traits@D@std@@V?$allocator@D@2@@std@@@1@@Z 00418d53 f i datatest.obj
 0001:00017d79       ?end@?$_Tree@V?$basic_string@DU?$char_traits@D@std@@V?$allocator@D@2@@std@@U?$pair@$$CBV?$basic_string@DU?$char_traits@D@std@@V?$allocator@D@2@@std@@V12@@2@U_Kfn@?$map@V?$basic_string@DU?$char_traits@D@std@@V?$allocator@D@2@@std@@V12@U?$less@V?$basic_string@DU?$char_traits@D@std@@V?$allocator@D@2@@std@@@2@V?$allocator@V?$basic_string@DU?$char_traits@D@std@@V?$allocator@D@2@@std@@@2@@2@U?$less@V?$basic_string@DU?$char_traits@D@std@@V?$allocator@D@2@@std@@@2@V?$allocator@V?$basic_string@DU?$char_traits@D@std@@V?$allocator@D@2@@std@@@2@@std@@QBE?AVconst_iterator@12@XZ 00418d79 f i datatest.obj
 0001:00017d85       ?erase@?$_Tree@V?$basic_string@DU?$char_traits@D@std@@V?$allocator@D@2@@std@@U?$pair@$$CBV?$basic_string@DU?$char_traits@D@std@@V?$allocator@D@2@@std@@V12@@2@U_Kfn@?$map@V?$basic_string@DU?$char_traits@D@std@@V?$allocator@D@2@@std@@V12@U?$less@V?$basic_string@DU?$char_traits@D@std@@V?$allocator@D@2@@std@@@2@V?$allocator@V?$basic_string@DU?$char_traits@D@std@@V?$allocator@D@2@@std@@@2@@2@U?$less@V?$basic_string@DU?$char_traits@D@std@@V?$allocator@D@2@@std@@@2@V?$allocator@V?$basic_string@DU?$char_traits@D@std@@V?$allocator@D@2@@std@@@2@@std@@QAE?AViterator@12@V312@0@Z 00418d85 f i datatest.obj
 0001:00017dfc       ?clear@?$_Tree@V?$basic_string@DU?$char_traits@D@std@@V?$allocator@D@2@@std@@U?$pair@$$CBV?$basic_string@DU?$char_traits@D@std@@V?$allocator@D@2@@std@@V12@@2@U_Kfn@?$map@V?$basic_string@DU?$char_traits@D@std@@V?$allocator@D@2@@std@@V12@U?$less@V?$basic_string@DU?$char_traits@D@std@@V?$allocator@D@2@@std@@@2@V?$allocator@V?$basic_string@DU?$char_traits@D@std@@V?$allocator@D@2@@std@@@2@@2@U?$less@V?$basic_string@DU?$char_traits@D@std@@V?$allocator@D@2@@std@@@2@V?$allocator@V?$basic_string@DU?$char_traits@D@std@@V?$allocator@D@2@@std@@@2@@std@@QAEXXZ 00418dfc f i datatest.obj
 0001:00017e10       ?find@?$_Tree@V?$basic_string@DU?$char_traits@D@std@@V?$allocator@D@2@@std@@U?$pair@$$CBV?$basic_string@DU?$char_traits@D@std@@V?$allocator@D@2@@std@@V12@@2@U_Kfn@?$map@V?$basic_string@DU?$char_traits@D@std@@V?$allocator@D@2@@std@@V12@U?$less@V?$basic_string@DU?$char_traits@D@std@@V?$allocator@D@2@@std@@@2@V?$allocator@V?$basic_string@DU?$char_traits@D@std@@V?$allocator@D@2@@std@@@2@@2@U?$less@V?$basic_string@DU?$char_traits@D@std@@V?$allocator@D@2@@std@@@2@V?$allocator@V?$basic_string@DU?$char_traits@D@std@@V?$allocator@D@2@@std@@@2@@std@@QBE?AVconst_iterator@12@ABV?$basic_string@DU?$char_traits@D@std@@V?$allocator@D@2@@2@@Z 00418e10 f i datatest.obj
 0001:00017e51       ??1?$Bufferless@VFilter@CryptoPP@@@CryptoPP@@UAE@XZ 00418e51 f i datatest.obj
 0001:00017e77       ??1Filter@CryptoPP@@UAE@XZ 00418e77 f i datatest.obj
 0001:00017e9d       ??0?$pair@$$CBV?$basic_string@DU?$char_traits@D@std@@V?$allocator@D@2@@std@@V12@@std@@QAE@ABV?$basic_string@DU?$char_traits@D@std@@V?$allocator@D@2@@1@0@Z 00418e9d f i datatest.obj
 0001:00017f07       ?_Inc@const_iterator@?$_Tree@V?$basic_string@DU?$char_traits@D@std@@V?$allocator@D@2@@std@@U?$pair@$$CBV?$basic_string@DU?$char_traits@D@std@@V?$allocator@D@2@@std@@V12@@2@U_Kfn@?$map@V?$basic_string@DU?$char_traits@D@std@@V?$allocator@D@2@@std@@V12@U?$less@V?$basic_string@DU?$char_traits@D@std@@V?$allocator@D@2@@std@@@2@V?$allocator@V?$basic_string@DU?$char_traits@D@std@@V?$allocator@D@2@@std@@@2@@2@U?$less@V?$basic_string@DU?$char_traits@D@std@@V?$allocator@D@2@@std@@@2@V?$allocator@V?$basic_string@DU?$char_traits@D@std@@V?$allocator@D@2@@std@@@2@@std@@QAEXXZ 00418f07 f i datatest.obj
 0001:00017f3d       ?GetFactory@?$ObjectFactoryRegistry@VPK_Signer@CryptoPP@@$0A@@CryptoPP@@QBEPBV?$ObjectFactory@VPK_Signer@CryptoPP@@@2@PBD@Z 00418f3d f i datatest.obj
 0001:00017fae       ??0FactoryNotFound@?$ObjectFactoryRegistry@VPK_Signer@CryptoPP@@$0A@@CryptoPP@@QAE@PBD@Z 00418fae f i datatest.obj
 0001:00018036       ?Put2@FilterWithBufferedInput@CryptoPP@@UAEIPBEIH_N@Z 00419036 f i datatest.obj
 0001:00018050       ?PutModifiable2@FilterWithBufferedInput@CryptoPP@@UAEIPAEIH_N@Z 00419050 f i datatest.obj
 0001:0001806a       ?GetFactory@?$ObjectFactoryRegistry@VPK_Verifier@CryptoPP@@$0A@@CryptoPP@@QBEPBV?$ObjectFactory@VPK_Verifier@CryptoPP@@@2@PBD@Z 0041906a f i datatest.obj
 0001:000180db       ?InitializeDerivedAndReturnNewSizes@FilterWithBufferedInput@CryptoPP@@MAEXABVNameValuePairs@2@AAI11@Z 004190db f i datatest.obj
 0001:000180ea       ??0FactoryNotFound@?$ObjectFactoryRegistry@VPK_Verifier@CryptoPP@@$0A@@CryptoPP@@QAE@PBD@Z 004190ea f i datatest.obj
 0001:00018172       ?GetFactory@?$ObjectFactoryRegistry@VPK_Encryptor@CryptoPP@@$0A@@CryptoPP@@QBEPBV?$ObjectFactory@VPK_Encryptor@CryptoPP@@@2@PBD@Z 00419172 f i datatest.obj
 0001:000181e3       ??0FactoryNotFound@?$ObjectFactoryRegistry@VPK_Encryptor@CryptoPP@@$0A@@CryptoPP@@QAE@PBD@Z 004191e3 f i datatest.obj
 0001:0001826b       ?GetFactory@?$ObjectFactoryRegistry@VPK_Decryptor@CryptoPP@@$0A@@CryptoPP@@QBEPBV?$ObjectFactory@VPK_Decryptor@CryptoPP@@@2@PBD@Z 0041926b f i datatest.obj
 0001:000182dc       ??0FactoryNotFound@?$ObjectFactoryRegistry@VPK_Decryptor@CryptoPP@@$0A@@CryptoPP@@QAE@PBD@Z 004192dc f i datatest.obj
 0001:00018364       ?GetFactory@?$ObjectFactoryRegistry@VSymmetricCipher@CryptoPP@@$00@CryptoPP@@QBEPBV?$ObjectFactory@VSymmetricCipher@CryptoPP@@@2@PBD@Z 00419364 f i datatest.obj
 0001:000183d5       ??0FactoryNotFound@?$ObjectFactoryRegistry@VSymmetricCipher@CryptoPP@@$00@CryptoPP@@QAE@PBD@Z 004193d5 f i datatest.obj
 0001:0001845d       ?GetFactory@?$ObjectFactoryRegistry@VAuthenticatedSymmetricCipher@CryptoPP@@$00@CryptoPP@@QBEPBV?$ObjectFactory@VAuthenticatedSymmetricCipher@CryptoPP@@@2@PBD@Z 0041945d f i datatest.obj
 0001:000184ce       ??0SignerFilter@CryptoPP@@QAE@AAVRandomNumberGenerator@1@ABVPK_Signer@1@PAVBufferedTransformation@1@_N@Z 004194ce f i datatest.obj
 0001:0001853f       ??0FactoryNotFound@?$ObjectFactoryRegistry@VAuthenticatedSymmetricCipher@CryptoPP@@$00@CryptoPP@@QAE@PBD@Z 0041953f f i datatest.obj
 0001:000185c7       ?AlgorithmName@SignerFilter@CryptoPP@@UBE?AV?$basic_string@DU?$char_traits@D@std@@V?$allocator@D@2@@std@@XZ 004195c7 f i datatest.obj
 0001:000185e5       ??_GSignerFilter@CryptoPP@@UAEPAXI@Z 004195e5 f i datatest.obj
 0001:000185e5       ??_ESignerFilter@CryptoPP@@UAEPAXI@Z 004195e5 f i datatest.obj
 0001:00018601       ??1?$Unflushable@VFilter@CryptoPP@@@CryptoPP@@UAE@XZ 00419601 f i datatest.obj
 0001:00018627       ??1SignerFilter@CryptoPP@@UAE@XZ 00419627 f i datatest.obj
 0001:0001866f       ??0?$basic_filebuf@DU?$char_traits@D@std@@@std@@QAE@PAU_iobuf@@@Z 0041966f f i datatest.obj
 0001:000186cf       ??0locale@std@@QAE@XZ      004196cf f i datatest.obj
 0001:000186fd       ?open@?$basic_filebuf@DU?$char_traits@D@std@@@std@@QAEPAV12@PBDH@Z 004196fd f i datatest.obj
 0001:00018734       ?close@?$basic_filebuf@DU?$char_traits@D@std@@@std@@QAEPAV12@XZ 00419734 f i datatest.obj
 0001:0001875b       ?CanModifyInput@Redirector@CryptoPP@@UBE_NXZ 0041975b f i datatest.obj
 0001:0001876b       ?CreatePutSpace@Redirector@CryptoPP@@UAEPAEAAI@Z 0041976b f i datatest.obj
 0001:00018788       ?Put2@Redirector@CryptoPP@@UAEIPBEIH_N@Z 00419788 f i datatest.obj
 0001:000187b8       ?Flush@Redirector@CryptoPP@@UAE_N_NH0@Z 004197b8 f i datatest.obj
 0001:000187df       ?MessageSeriesEnd@Redirector@CryptoPP@@UAE_NH_N@Z 004197df f i datatest.obj
 0001:00018802       ?ChannelCreatePutSpace@Redirector@CryptoPP@@UAEPAEABV?$basic_string@DU?$char_traits@D@std@@V?$allocator@D@2@@std@@AAI@Z 00419802 f i datatest.obj
 0001:00018826       ?ChannelPut2@Redirector@CryptoPP@@UAEIABV?$basic_string@DU?$char_traits@D@std@@V?$allocator@D@2@@std@@PBEIH_N@Z 00419826 f i datatest.obj
 0001:0001885c       ?ChannelPutModifiable2@Redirector@CryptoPP@@UAEIABV?$basic_string@DU?$char_traits@D@std@@V?$allocator@D@2@@std@@PAEIH_N@Z 0041985c f i datatest.obj
 0001:00018892       ?ChannelFlush@Redirector@CryptoPP@@UAE_NABV?$basic_string@DU?$char_traits@D@std@@V?$allocator@D@2@@std@@_NH1@Z 00419892 f i datatest.obj
 0001:000188c0       ?ChannelMessageSeriesEnd@Redirector@CryptoPP@@UAE_NABV?$basic_string@DU?$char_traits@D@std@@V?$allocator@D@2@@std@@H_N@Z 004198c0 f i datatest.obj
 0001:000188ea       ?GetMaxWaitObjectCount@Redirector@CryptoPP@@UBEIXZ 004198ea f i datatest.obj
 0001:00018908       ?GetWaitObjects@Redirector@CryptoPP@@UAEXAAVWaitObjectContainer@2@ABVCallStack@2@@Z 00419908 f i datatest.obj
 0001:0001892d       ?replace@?$basic_string@DU?$char_traits@D@std@@V?$allocator@D@2@@std@@QAEAAV12@PAD0PBD1@Z 0041992d f i datatest.obj
 0001:0001898d       ?init@?$basic_ios@DU?$char_traits@D@std@@@std@@IAEXPAV?$basic_streambuf@DU?$char_traits@D@std@@@2@_N@Z 0041998d f i datatest.obj
 0001:000189cd       ??0SimpleProxyFilter@CryptoPP@@QAE@PAVBufferedTransformation@1@0@Z 004199cd f i datatest.obj
 0001:000189f4       ?InitializeDerived@FilterWithBufferedInput@CryptoPP@@MAEXABVNameValuePairs@2@@Z 004199f4 f i datatest.obj
 0001:000189f4       ?do_close@?$messages@G@std@@MBEXH@Z 004199f4 f i datatest.obj
 0001:000189f4       ?IsolatedInitialize@Base64Decoder@CryptoPP@@UAEXABVNameValuePairs@2@@Z 004199f4 f i datatest.obj
 0001:000189f4       ?imbue@?$basic_streambuf@DU?$char_traits@D@std@@@std@@MAEXABVlocale@2@@Z 004199f4 f i datatest.obj
 0001:000189f4       ?imbue@?$basic_streambuf@GU?$char_traits@G@std@@@std@@MAEXABVlocale@2@@Z 004199f4 f i datatest.obj
 0001:000189f4       ?SetAutoSignalPropagation@BufferedTransformation@CryptoPP@@UAEXH@Z 004199f4 f i datatest.obj
 0001:000189f4       ?NextPutSingle@FilterWithBufferedInput@CryptoPP@@MAEXPBE@Z 004199f4 f i datatest.obj
 0001:000189f4       ?FirstPut@SimpleProxyFilter@CryptoPP@@UAEXPBE@Z 004199f4 f i datatest.obj
 0001:000189f4       ?StoreInitialize@BERGeneralDecoder@CryptoPP@@EAEXABVNameValuePairs@2@@Z 004199f4 f i datatest.obj
 0001:000189f4       ?IsolatedInitialize@?$CustomSignalPropagation@VSink@CryptoPP@@@CryptoPP@@EAEXABVNameValuePairs@2@@Z 004199f4 f i datatest.obj
 0001:000189f4       ?do_close@?$messages@D@std@@MBEXH@Z 004199f4 f i datatest.obj
 0001:000189f7       ?LastPut@SimpleProxyFilter@CryptoPP@@UAEXPBEI@Z 004199f7 f i datatest.obj
 0001:00018a0a       ??1PK_DecryptorFilter@CryptoPP@@UAE@XZ 00419a0a f i datatest.obj
 0001:00018a0a       ??1SimpleProxyFilter@CryptoPP@@UAE@XZ 00419a0a f i datatest.obj
 0001:00018a0a       ??1Base32Encoder@CryptoPP@@UAE@XZ 00419a0a f i datatest.obj
 0001:00018a0a       ??1HexEncoder@CryptoPP@@UAE@XZ 00419a0a f i datatest.obj
 0001:00018a0a       ??1Base64Encoder@CryptoPP@@UAE@XZ 00419a0a f i datatest.obj
 0001:00018a0a       ??1PK_EncryptorFilter@CryptoPP@@UAE@XZ 00419a0a f i datatest.obj
 0001:00018a0f       ??1ProxyFilter@CryptoPP@@UAE@XZ 00419a0f f i datatest.obj
 0001:00018a57       ??1FilterWithBufferedInput@CryptoPP@@UAE@XZ 00419a57 f i datatest.obj
 0001:00018a90       ??0?$CustomSignalPropagation@VSink@CryptoPP@@@CryptoPP@@QAE@XZ 00419a90 f i datatest.obj
 0001:00018a90       ??0?$Bufferless@VSink@CryptoPP@@@CryptoPP@@QAE@XZ 00419a90 f i datatest.obj
 0001:00018a90       ??0Sink@CryptoPP@@QAE@XZ   00419a90 f i datatest.obj
 0001:00018a90       ??0BufferedTransformation@CryptoPP@@QAE@XZ 00419a90 f i datatest.obj
 0001:00018a9e       ?insert@?$_Tree@V?$basic_string@DU?$char_traits@D@std@@V?$allocator@D@2@@std@@U?$pair@$$CBV?$basic_string@DU?$char_traits@D@std@@V?$allocator@D@2@@std@@V12@@2@U_Kfn@?$map@V?$basic_string@DU?$char_traits@D@std@@V?$allocator@D@2@@std@@V12@U?$less@V?$basic_string@DU?$char_traits@D@std@@V?$allocator@D@2@@std@@@2@V?$allocator@V?$basic_string@DU?$char_traits@D@std@@V?$allocator@D@2@@std@@@2@@2@U?$less@V?$basic_string@DU?$char_traits@D@std@@V?$allocator@D@2@@std@@@2@V?$allocator@V?$basic_string@DU?$char_traits@D@std@@V?$allocator@D@2@@std@@@2@@std@@QAE?AU?$pair@Viterator@?$_Tree@V?$basic_string@DU?$char_traits@D@std@@V?$allocator@D@2@@std@@U?$pair@$$CBV?$basic_string@DU?$char_traits@D@std@@V?$allocator@D@2@@std@@V12@@2@U_Kfn@?$map@V?$basic_string@DU?$char_traits@D@std@@V?$allocator@D@2@@std@@V12@U?$less@V?$basic_string@DU?$char_traits@D@std@@V?$allocator@D@2@@std@@@2@V?$allocator@V?$basic_string@DU?$char_traits@D@std@@V?$allocator@D@2@@std@@@2@@2@U?$less@V?$basic_string@DU?$char_traits@D@std@@V?$allocator@D@2@@std@@@2@V?$allocator@V?$basic_string@DU?$char_traits@D@std@@V?$allocator@D@2@@std@@@2@@std@@_N@2@ABU?$pair@$$CBV?$basic_string@DU?$char_traits@D@std@@V?$allocator@D@2@@std@@V12@@2@@Z 00419a9e f i datatest.obj
 0001:00018b81       ?erase@?$_Tree@V?$basic_string@DU?$char_traits@D@std@@V?$allocator@D@2@@std@@U?$pair@$$CBV?$basic_string@DU?$char_traits@D@std@@V?$allocator@D@2@@std@@V12@@2@U_Kfn@?$map@V?$basic_string@DU?$char_traits@D@std@@V?$allocator@D@2@@std@@V12@U?$less@V?$basic_string@DU?$char_traits@D@std@@V?$allocator@D@2@@std@@@2@V?$allocator@V?$basic_string@DU?$char_traits@D@std@@V?$allocator@D@2@@std@@@2@@2@U?$less@V?$basic_string@DU?$char_traits@D@std@@V?$allocator@D@2@@std@@@2@V?$allocator@V?$basic_string@DU?$char_traits@D@std@@V?$allocator@D@2@@std@@@2@@std@@QAE?AViterator@12@V312@@Z 00419b81 f i datatest.obj
 0001:00018e21       ?_Erase@?$_Tree@V?$basic_string@DU?$char_traits@D@std@@V?$allocator@D@2@@std@@U?$pair@$$CBV?$basic_string@DU?$char_traits@D@std@@V?$allocator@D@2@@std@@V12@@2@U_Kfn@?$map@V?$basic_string@DU?$char_traits@D@std@@V?$allocator@D@2@@std@@V12@U?$less@V?$basic_string@DU?$char_traits@D@std@@V?$allocator@D@2@@std@@@2@V?$allocator@V?$basic_string@DU?$char_traits@D@std@@V?$allocator@D@2@@std@@@2@@2@U?$less@V?$basic_string@DU?$char_traits@D@std@@V?$allocator@D@2@@std@@@2@V?$allocator@V?$basic_string@DU?$char_traits@D@std@@V?$allocator@D@2@@std@@@2@@std@@IAEXPAU_Node@12@@Z 00419e21 f i datatest.obj
 0001:00018e5f       ?_Init@?$_Tree@V?$basic_string@DU?$char_traits@D@std@@V?$allocator@D@2@@std@@U?$pair@$$CBV?$basic_string@DU?$char_traits@D@std@@V?$allocator@D@2@@std@@V12@@2@U_Kfn@?$map@V?$basic_string@DU?$char_traits@D@std@@V?$allocator@D@2@@std@@V12@U?$less@V?$basic_string@DU?$char_traits@D@std@@V?$allocator@D@2@@std@@@2@V?$allocator@V?$basic_string@DU?$char_traits@D@std@@V?$allocator@D@2@@std@@@2@@2@U?$less@V?$basic_string@DU?$char_traits@D@std@@V?$allocator@D@2@@std@@@2@V?$allocator@V?$basic_string@DU?$char_traits@D@std@@V?$allocator@D@2@@std@@@2@@std@@IAEXXZ 00419e5f f i datatest.obj
 0001:00018ee8       ??1Source@CryptoPP@@UAE@XZ 00419ee8 f i datatest.obj
 0001:00018f0e       ?_Init@?$basic_filebuf@DU?$char_traits@D@std@@@std@@IAEXPAU_iobuf@@W4_Initfl@12@@Z 00419f0e f i datatest.obj
 0001:00018f86       ??0StringSource@CryptoPP@@QAE@ABV?$basic_string@DU?$char_traits@D@std@@V?$allocator@D@2@@std@@_NPAVBufferedTransformation@1@@Z 00419f86 f i datatest.obj
 0001:0001901e       ?ChannelPut2@?$InputRejecting@VFilter@CryptoPP@@@CryptoPP@@UAEIABV?$basic_string@DU?$char_traits@D@std@@V?$allocator@D@2@@std@@PBEIH_N@Z 0041a01e f i datatest.obj
 0001:0001901e       ?Put2@?$InputRejecting@VFilter@CryptoPP@@@CryptoPP@@UAEIPBEIH_N@Z 0041a01e f i datatest.obj
 0001:0001901e       ?IsolatedMessageSeriesEnd@?$InputRejecting@VFilter@CryptoPP@@@CryptoPP@@UAE_N_N@Z 0041a01e f i datatest.obj
 0001:0001901e       ?ChannelMessageSeriesEnd@?$InputRejecting@VFilter@CryptoPP@@@CryptoPP@@UAE_NABV?$basic_string@DU?$char_traits@D@std@@V?$allocator@D@2@@std@@H_N@Z 0041a01e f i datatest.obj
 0001:0001903a       ??0?$SourceTemplate@VStringStore@CryptoPP@@@CryptoPP@@QAE@PAVBufferedTransformation@1@@Z 0041a03a f i datatest.obj
 0001:0001908f       ?IsolatedInitialize@?$SourceTemplate@VRandomNumberStore@CryptoPP@@@CryptoPP@@UAEXABVNameValuePairs@2@@Z 0041a08f f i datatest.obj
 0001:0001908f       ?IsolatedInitialize@?$SourceTemplate@VStringStore@CryptoPP@@@CryptoPP@@UAEXABVNameValuePairs@2@@Z 0041a08f f i datatest.obj
 0001:0001908f       ?IsolatedInitialize@?$SourceTemplate@VFileStore@CryptoPP@@@CryptoPP@@UAEXABVNameValuePairs@2@@Z 0041a08f f i datatest.obj
 0001:0001909f       ?Pump2@?$SourceTemplate@VFileStore@CryptoPP@@@CryptoPP@@UAEIAA_K_N@Z 0041a09f f i datatest.obj
 0001:0001909f       ?Pump2@?$SourceTemplate@VStringStore@CryptoPP@@@CryptoPP@@UAEIAA_K_N@Z 0041a09f f i datatest.obj
 0001:0001909f       ?Pump2@?$SourceTemplate@VRandomNumberStore@CryptoPP@@@CryptoPP@@UAEIAA_K_N@Z 0041a09f f i datatest.obj
 0001:000190c7       ?SetAutoSignalPropagation@?$SourceTemplate@VFileStore@CryptoPP@@@CryptoPP@@UAEXH@Z 0041a0c7 f i datatest.obj
 0001:000190c7       ?SetAutoSignalPropagation@?$SourceTemplate@VStringStore@CryptoPP@@@CryptoPP@@UAEXH@Z 0041a0c7 f i datatest.obj
 0001:000190c7       ?SetAutoSignalPropagation@?$SourceTemplate@VRandomNumberStore@CryptoPP@@@CryptoPP@@UAEXH@Z 0041a0c7 f i datatest.obj
 0001:000190d7       ??0InputRejected@?$InputRejecting@VFilter@CryptoPP@@@CryptoPP@@QAE@ABU012@@Z 0041a0d7 f i datatest.obj
 0001:000190ef       ??_E?$SourceTemplate@VStringStore@CryptoPP@@@CryptoPP@@UAEPAXI@Z 0041a0ef f i datatest.obj
 0001:000190ef       ??_G?$SourceTemplate@VStringStore@CryptoPP@@@CryptoPP@@UAEPAXI@Z 0041a0ef f i datatest.obj
 0001:0001910b       ??0InputRejected@?$InputRejecting@VFilter@CryptoPP@@@CryptoPP@@QAE@XZ 0041a10b f i datatest.obj
 0001:00019179       ??0StringStore@CryptoPP@@QAE@PBD@Z 0041a179 f i datatest.obj
 0001:00019205       ?SetAutoSignalPropagation@?$AutoSignaling@V?$InputRejecting@VBufferedTransformation@CryptoPP@@@CryptoPP@@@CryptoPP@@UAEXH@Z 0041a205 f i datatest.obj
 0001:0001920f       ?ChannelMessageSeriesEnd@?$InputRejecting@VBufferedTransformation@CryptoPP@@@CryptoPP@@UAE_NABV?$basic_string@DU?$char_traits@D@std@@V?$allocator@D@2@@std@@H_N@Z 0041a20f f i datatest.obj
 0001:0001920f       ?ChannelPut2@?$InputRejecting@VBufferedTransformation@CryptoPP@@@CryptoPP@@UAEIABV?$basic_string@DU?$char_traits@D@std@@V?$allocator@D@2@@std@@PBEIH_N@Z 0041a20f f i datatest.obj
 0001:0001920f       ?Put2@?$InputRejecting@VBufferedTransformation@CryptoPP@@@CryptoPP@@UAEIPBEIH_N@Z 0041a20f f i datatest.obj
 0001:0001920f       ?IsolatedMessageSeriesEnd@?$InputRejecting@VBufferedTransformation@CryptoPP@@@CryptoPP@@UAE_N_N@Z 0041a20f f i datatest.obj
 0001:0001922b       ??0InputRejected@?$InputRejecting@VBufferedTransformation@CryptoPP@@@CryptoPP@@QAE@ABU012@@Z 0041a22b f i datatest.obj
 0001:00019243       ?IsolatedInitialize@Store@CryptoPP@@UAEXABVNameValuePairs@2@@Z 0041a243 f i datatest.obj
 0001:00019256       ?NumberOfMessages@Store@CryptoPP@@UBEIXZ 0041a256 f i datatest.obj
 0001:0001925f       ??0InputRejected@?$InputRejecting@VBufferedTransformation@CryptoPP@@@CryptoPP@@QAE@XZ 0041a25f f i datatest.obj
 0001:000192cd       ??1?$InputRejecting@VFilter@CryptoPP@@@CryptoPP@@UAE@XZ 0041a2cd f i datatest.obj
 0001:000192f3       ?_Initcvt@?$basic_filebuf@DU?$char_traits@D@std@@@std@@IAEXXZ 0041a2f3 f i datatest.obj
 0001:000193a1       ??0locale@std@@QAE@ABV01@@Z 0041a3a1 f i datatest.obj
 0001:000193b7       ??4locale@std@@QAEAAV01@ABV01@@Z 0041a3b7 f i datatest.obj
 0001:000193e6       ??_GStringSource@CryptoPP@@UAEPAXI@Z 0041a3e6 f i datatest.obj
 0001:000193e6       ??_EStringSource@CryptoPP@@UAEPAXI@Z 0041a3e6 f i datatest.obj
 0001:00019402       ??1?$SourceTemplate@VStringStore@CryptoPP@@@CryptoPP@@UAE@XZ 0041a402 f i datatest.obj
 0001:00019428       ??1StringSource@CryptoPP@@UAE@XZ 0041a428 f i datatest.obj
 0001:0001944e       ?replace@?$basic_string@DU?$char_traits@D@std@@V?$allocator@D@2@@std@@QAEAAV12@IIID@Z 0041a44e f i datatest.obj
 0001:0001951c       ??0BaseN_Decoder@CryptoPP@@QAE@PBHHPAVBufferedTransformation@1@@Z 0041a51c f i datatest.obj
 0001:000195b3       ??_EBaseN_Decoder@CryptoPP@@UAEPAXI@Z 0041a5b3 f i datatest.obj
 0001:000195b3       ??_GBaseN_Decoder@CryptoPP@@UAEPAXI@Z 0041a5b3 f i datatest.obj
 0001:000195cf       ??1BaseN_Decoder@CryptoPP@@UAE@XZ 0041a5cf f i datatest.obj
 0001:00019608       ?getloc@?$basic_streambuf@DU?$char_traits@D@std@@@std@@QAE?AVlocale@2@XZ 0041a608 f i datatest.obj
 0001:00019625       ?_Init@?$basic_streambuf@GU?$char_traits@G@std@@@std@@IAEXXZ 0041a625 f i datatest.obj
 0001:00019625       ?_Init@?$basic_streambuf@DU?$char_traits@D@std@@@std@@IAEXXZ 0041a625 f i datatest.obj
 0001:00019667       ??0HexEncoder@CryptoPP@@QAE@PAVBufferedTransformation@1@_NHABV?$basic_string@DU?$char_traits@D@std@@V?$allocator@D@2@@std@@2@Z 0041a667 f i datatest.obj
 0001:00019798       ??0BaseN_Encoder@CryptoPP@@QAE@PAVBufferedTransformation@1@@Z 0041a798 f i datatest.obj
 0001:000197ea       ??_GBaseN_Encoder@CryptoPP@@UAEPAXI@Z 0041a7ea f i datatest.obj
 0001:000197ea       ??_EBaseN_Encoder@CryptoPP@@UAEPAXI@Z 0041a7ea f i datatest.obj
 0001:00019806       ??1BaseN_Encoder@CryptoPP@@UAE@XZ 0041a806 f i datatest.obj
 0001:0001983f       ??0Grouper@CryptoPP@@QAE@PAVBufferedTransformation@1@@Z 0041a83f f i datatest.obj
 0001:0001989f       ??_EGrouper@CryptoPP@@UAEPAXI@Z 0041a89f f i datatest.obj
 0001:0001989f       ??_GGrouper@CryptoPP@@UAEPAXI@Z 0041a89f f i datatest.obj
 0001:000198bb       ??1Grouper@CryptoPP@@UAE@XZ 0041a8bb f i datatest.obj
 0001:00019903       ??_ESimpleProxyFilter@CryptoPP@@UAEPAXI@Z 0041a903 f i datatest.obj
 0001:00019903       ??_EBase64Encoder@CryptoPP@@UAEPAXI@Z 0041a903 f i datatest.obj
 0001:00019903       ??_GSimpleProxyFilter@CryptoPP@@UAEPAXI@Z 0041a903 f i datatest.obj
 0001:00019903       ??_GPK_DecryptorFilter@CryptoPP@@UAEPAXI@Z 0041a903 f i datatest.obj
 0001:00019903       ??_GBase64Encoder@CryptoPP@@UAEPAXI@Z 0041a903 f i datatest.obj
 0001:00019903       ??_GPK_EncryptorFilter@CryptoPP@@UAEPAXI@Z 0041a903 f i datatest.obj
 0001:00019903       ??_GBase32Encoder@CryptoPP@@UAEPAXI@Z 0041a903 f i datatest.obj
 0001:00019903       ??_GHexEncoder@CryptoPP@@UAEPAXI@Z 0041a903 f i datatest.obj
 0001:00019903       ??_EPK_EncryptorFilter@CryptoPP@@UAEPAXI@Z 0041a903 f i datatest.obj
 0001:00019903       ??_EBase32Encoder@CryptoPP@@UAEPAXI@Z 0041a903 f i datatest.obj
 0001:00019903       ??_EPK_DecryptorFilter@CryptoPP@@UAEPAXI@Z 0041a903 f i datatest.obj
 0001:00019903       ??_EHexEncoder@CryptoPP@@UAEPAXI@Z 0041a903 f i datatest.obj
 0001:0001991f       ?_Insert@?$_Tree@V?$basic_string@DU?$char_traits@D@std@@V?$allocator@D@2@@std@@U?$pair@$$CBV?$basic_string@DU?$char_traits@D@std@@V?$allocator@D@2@@std@@V12@@2@U_Kfn@?$map@V?$basic_string@DU?$char_traits@D@std@@V?$allocator@D@2@@std@@V12@U?$less@V?$basic_string@DU?$char_traits@D@std@@V?$allocator@D@2@@std@@@2@V?$allocator@V?$basic_string@DU?$char_traits@D@std@@V?$allocator@D@2@@std@@@2@@2@U?$less@V?$basic_string@DU?$char_traits@D@std@@V?$allocator@D@2@@std@@@2@V?$allocator@V?$basic_string@DU?$char_traits@D@std@@V?$allocator@D@2@@std@@@2@@std@@IAE?AViterator@12@PAU_Node@12@0ABU?$pair@$$CBV?$basic_string@DU?$char_traits@D@std@@V?$allocator@D@2@@std@@V12@@2@@Z 0041a91f f i datatest.obj
 0001:00019a76       ??_GHexDecoder@CryptoPP@@UAEPAXI@Z 0041aa76 f i datatest.obj
 0001:00019a76       ??_EHexDecoder@CryptoPP@@UAEPAXI@Z 0041aa76 f i datatest.obj
 0001:00019a92       ??1HexDecoder@CryptoPP@@UAE@XZ 0041aa92 f i datatest.obj
 0001:00019b0b       ?_Lbound@?$_Tree@V?$basic_string@DU?$char_traits@D@std@@V?$allocator@D@2@@std@@U?$pair@$$CBV?$basic_string@DU?$char_traits@D@std@@V?$allocator@D@2@@std@@V12@@2@U_Kfn@?$map@V?$basic_string@DU?$char_traits@D@std@@V?$allocator@D@2@@std@@V12@U?$less@V?$basic_string@DU?$char_traits@D@std@@V?$allocator@D@2@@std@@@2@V?$allocator@V?$basic_string@DU?$char_traits@D@std@@V?$allocator@D@2@@std@@@2@@2@U?$less@V?$basic_string@DU?$char_traits@D@std@@V?$allocator@D@2@@std@@@2@V?$allocator@V?$basic_string@DU?$char_traits@D@std@@V?$allocator@D@2@@std@@@2@@std@@IBEPAU_Node@12@ABV?$basic_string@DU?$char_traits@D@std@@V?$allocator@D@2@@2@@Z 0041ab0b f i datatest.obj
 0001:00019b3f       ?_Lrotate@?$_Tree@V?$basic_string@DU?$char_traits@D@std@@V?$allocator@D@2@@std@@U?$pair@$$CBV?$basic_string@DU?$char_traits@D@std@@V?$allocator@D@2@@std@@V12@@2@U_Kfn@?$map@V?$basic_string@DU?$char_traits@D@std@@V?$allocator@D@2@@std@@V12@U?$less@V?$basic_string@DU?$char_traits@D@std@@V?$allocator@D@2@@std@@@2@V?$allocator@V?$basic_string@DU?$char_traits@D@std@@V?$allocator@D@2@@std@@@2@@2@U?$less@V?$basic_string@DU?$char_traits@D@std@@V?$allocator@D@2@@std@@@2@V?$allocator@V?$basic_string@DU?$char_traits@D@std@@V?$allocator@D@2@@std@@@2@@std@@IAEXPAU_Node@12@@Z 0041ab3f f i datatest.obj
 0001:00019b83       ?_Rrotate@?$_Tree@V?$basic_string@DU?$char_traits@D@std@@V?$allocator@D@2@@std@@U?$pair@$$CBV?$basic_string@DU?$char_traits@D@std@@V?$allocator@D@2@@std@@V12@@2@U_Kfn@?$map@V?$basic_string@DU?$char_traits@D@std@@V?$allocator@D@2@@std@@V12@U?$less@V?$basic_string@DU?$char_traits@D@std@@V?$allocator@D@2@@std@@@2@V?$allocator@V?$basic_string@DU?$char_traits@D@std@@V?$allocator@D@2@@std@@@2@@2@U?$less@V?$basic_string@DU?$char_traits@D@std@@V?$allocator@D@2@@std@@@2@V?$allocator@V?$basic_string@DU?$char_traits@D@std@@V?$allocator@D@2@@std@@@2@@std@@IAEXPAU_Node@12@@Z 0041ab83 f i datatest.obj
 0001:00019bc9       ??1FilterPutSpaceHelper@CryptoPP@@QAE@XZ 0041abc9 f i datatest.obj
 0001:00019bce       ?_Dec@const_iterator@?$_Tree@V?$basic_string@DU?$char_traits@D@std@@V?$allocator@D@2@@std@@U?$pair@$$CBV?$basic_string@DU?$char_traits@D@std@@V?$allocator@D@2@@std@@V12@@2@U_Kfn@?$map@V?$basic_string@DU?$char_traits@D@std@@V?$allocator@D@2@@std@@V12@U?$less@V?$basic_string@DU?$char_traits@D@std@@V?$allocator@D@2@@std@@@2@V?$allocator@V?$basic_string@DU?$char_traits@D@std@@V?$allocator@D@2@@std@@@2@@2@U?$less@V?$basic_string@DU?$char_traits@D@std@@V?$allocator@D@2@@std@@@2@V?$allocator@V?$basic_string@DU?$char_traits@D@std@@V?$allocator@D@2@@std@@@2@@std@@QAEXXZ 0041abce f i datatest.obj
 0001:00019c0a       ?use_facet@std@@YAABV?$ctype@D@1@ABVlocale@1@PBV21@_N@Z 0041ac0a f i datatest.obj
 0001:00019cd2       ??0?$ctype@D@std@@QAE@PBF_NI@Z 0041acd2 f i datatest.obj
 0001:00019d71       ?_Init@?$ctype@D@std@@IAEXABV_Locinfo@2@@Z 0041ad71 f i datatest.obj
 0001:00019dc6       ?_Term@?$ctype@D@std@@KAXXZ 0041adc6 f i datatest.obj
 0001:00019dd3       ?do_tolower@?$ctype@D@std@@MBEDD@Z 0041add3 f i datatest.obj
 0001:00019de7       ?do_tolower@?$ctype@D@std@@MBEPBDPADPBD@Z 0041ade7 f i datatest.obj
 0001:00019e12       ?do_toupper@?$ctype@D@std@@MBEDD@Z 0041ae12 f i datatest.obj
 0001:00019e26       ?do_toupper@?$ctype@D@std@@MBEPBDPADPBD@Z 0041ae26 f i datatest.obj
 0001:00019e51       ??_G?$ctype@D@std@@UAEPAXI@Z 0041ae51 f i datatest.obj
 0001:00019e51       ??_E?$ctype@D@std@@UAEPAXI@Z 0041ae51 f i datatest.obj
 0001:00019e6d       ??1?$ctype@D@std@@UAE@XZ   0041ae6d f i datatest.obj
 0001:00019e8d       ??0FileSink@CryptoPP@@QAE@AAV?$basic_ostream@DU?$char_traits@D@std@@@std@@@Z 0041ae8d f i datatest.obj
 0001:00019f06       ??_EFileSink@CryptoPP@@UAEPAXI@Z 0041af06 f i datatest.obj
 0001:00019f06       ??_GFileSink@CryptoPP@@UAEPAXI@Z 0041af06 f i datatest.obj
 0001:00019f22       ??1FileSink@CryptoPP@@UAE@XZ 0041af22 f i datatest.obj
 0001:00019f48       ??_EStringSource@CryptoPP@@W3AEPAXI@Z 0041af48 f i datatest.obj
 0001:00019f50       ??_EFileSink@CryptoPP@@W3AEPAXI@Z 0041af50 f i datatest.obj
 0001:00019f58       ??_EBaseN_Decoder@CryptoPP@@W3AEPAXI@Z 0041af58 f i datatest.obj
 0001:00019f60       ??_EHexDecoder@CryptoPP@@W3AEPAXI@Z 0041af60 f i datatest.obj
 0001:00019f68       ??_ESignerFilter@CryptoPP@@W3AEPAXI@Z 0041af68 f i datatest.obj
 0001:00019f70       ??_EGrouper@CryptoPP@@W3AEPAXI@Z 0041af70 f i datatest.obj
 0001:00019f78       ??_EBaseN_Encoder@CryptoPP@@W3AEPAXI@Z 0041af78 f i datatest.obj
 0001:00019f80       ??0ConstByteArrayParameter@CryptoPP@@QAE@ABV?$basic_string@DU?$char_traits@D@std@@V?$allocator@D@2@@std@@_N@Z 0041af80 f i datatest.obj
 0001:00019fce       ?MakeParameters@CryptoPP@@YA?AVAlgorithmParameters@1@PBDABQBH_N@Z 0041afce f i datatest.obj
 0001:0001a029       ?MakeParameters@CryptoPP@@YA?AVAlgorithmParameters@1@PBDAB_N_N@Z 0041b029 f i datatest.obj
 0001:0001a084       ??1?$member_ptr@V?$basic_ifstream@DU?$char_traits@D@std@@@std@@@CryptoPP@@QAE@XZ 0041b084 f i datatest.obj
 0001:0001a084       ??1?$member_ptr@V?$basic_ofstream@DU?$char_traits@D@std@@@std@@@CryptoPP@@QAE@XZ 0041b084 f i datatest.obj
 0001:0001a098       ?MakeParameters@CryptoPP@@YA?AVAlgorithmParameters@1@PBDABQAV?$basic_ostream@DU?$char_traits@D@std@@@std@@_N@Z 0041b098 f i datatest.obj
 0001:0001a0f3       ??8std@@YA_NABV?$basic_string@DU?$char_traits@D@std@@V?$allocator@D@2@@0@PBD@Z 0041b0f3 f i datatest.obj
 0001:0001a116       ?Registry@?$ObjectFactoryRegistry@VPK_Signer@CryptoPP@@$0A@@CryptoPP@@SAAAV12@ZZ 0041b116 f i datatest.obj
 0001:0001a141       ?Registry@?$ObjectFactoryRegistry@VPK_Verifier@CryptoPP@@$0A@@CryptoPP@@SAAAV12@ZZ 0041b141 f i datatest.obj
 0001:0001a16c       ??0StringStore@CryptoPP@@QAE@ABV?$basic_string@DU?$char_traits@D@std@@V?$allocator@D@2@@std@@@Z 0041b16c f i datatest.obj
 0001:0001a1f8       ?Registry@?$ObjectFactoryRegistry@VPK_Encryptor@CryptoPP@@$0A@@CryptoPP@@SAAAV12@ZZ 0041b1f8 f i datatest.obj
 0001:0001a223       ?Registry@?$ObjectFactoryRegistry@VPK_Decryptor@CryptoPP@@$0A@@CryptoPP@@SAAAV12@ZZ 0041b223 f i datatest.obj
 0001:0001a24e       ?Registry@?$ObjectFactoryRegistry@VSymmetricCipher@CryptoPP@@$00@CryptoPP@@SAAAV12@ZZ 0041b24e f i datatest.obj
 0001:0001a279       ?Registry@?$ObjectFactoryRegistry@VAuthenticatedSymmetricCipher@CryptoPP@@$00@CryptoPP@@SAAAV12@ZZ 0041b279 f i datatest.obj
 0001:0001a2a4       ??5std@@YAAAV?$basic_istream@DU?$char_traits@D@std@@@0@AAV10@AAV?$basic_string@DU?$char_traits@D@std@@V?$allocator@D@2@@0@@Z 0041b2a4 f i datatest.obj
 0001:0001a3df       ??5std@@YAAAV?$basic_istream@DU?$char_traits@D@std@@@0@AAV10@AAD@Z 0041b3df f i datatest.obj
 0001:0001a48a       ?_Ungetc@std@@YA_NABDPAU_iobuf@@I@Z 0041b48a f i datatest.obj
 0001:0001a4d7       ?use_facet@std@@YAABV?$codecvt@DDH@1@ABVlocale@1@PBV21@_N@Z 0041b4d7 f i datatest.obj
 0001:0001a59b       ?_Addfac@std@@YA?AVlocale@1@V21@PAV?$codecvt@DDH@1@@Z 0041b59b f i datatest.obj
 0001:0001a609       ?_Construct@std@@YAXPAU?$pair@$$CBV?$basic_string@DU?$char_traits@D@std@@V?$allocator@D@2@@std@@V12@@1@ABU21@@Z 0041b609 f i datatest.obj
 0001:0001a636       ?s_registry@?1??Registry@?$ObjectFactoryRegistry@VAuthenticatedSymmetricCipher@CryptoPP@@$00@CryptoPP@@SAAAV12@ZZ@$AV12@A 0041b636 f i datatest.obj
 0001:0001a640       ?s_registry@?1??Registry@?$ObjectFactoryRegistry@VSymmetricCipher@CryptoPP@@$00@CryptoPP@@SAAAV12@ZZ@$AV12@A 0041b640 f i datatest.obj
 0001:0001a64a       ?s_registry@?1??Registry@?$ObjectFactoryRegistry@VPK_Decryptor@CryptoPP@@$0A@@CryptoPP@@SAAAV12@ZZ@$AV12@A 0041b64a f i datatest.obj
 0001:0001a654       ?s_registry@?1??Registry@?$ObjectFactoryRegistry@VPK_Encryptor@CryptoPP@@$0A@@CryptoPP@@SAAAV12@ZZ@$AV12@A 0041b654 f i datatest.obj
 0001:0001a65e       ?s_registry@?1??Registry@?$ObjectFactoryRegistry@VPK_Verifier@CryptoPP@@$0A@@CryptoPP@@SAAAV12@ZZ@$AV12@A 0041b65e f i datatest.obj
 0001:0001a668       ?s_registry@?1??Registry@?$ObjectFactoryRegistry@VPK_Signer@CryptoPP@@$0A@@CryptoPP@@SAAAV12@ZZ@$AV12@A 0041b668 f i datatest.obj
 0001:0001a672       ??_G?$pair@$$CBV?$basic_string@DU?$char_traits@D@std@@V?$allocator@D@2@@std@@V12@@std@@QAEPAXI@Z 0041b672 f i datatest.obj
 0001:0001a68e       ??0?$pair@$$CBV?$basic_string@DU?$char_traits@D@std@@V?$allocator@D@2@@std@@V12@@std@@QAE@ABU01@@Z 0041b68e f i datatest.obj
 0001:0001a6f9       ?compare@?$basic_string@DU?$char_traits@D@std@@V?$allocator@D@2@@std@@QBEHPBD@Z 0041b6f9 f i datatest.obj
 0001:0001a71b       ??1?$ObjectFactoryRegistry@VPK_Signer@CryptoPP@@$0A@@CryptoPP@@QAE@XZ 0041b71b f i datatest.obj
 0001:0001a778       ??1?$ObjectFactoryRegistry@VPK_Verifier@CryptoPP@@$0A@@CryptoPP@@QAE@XZ 0041b778 f i datatest.obj
 0001:0001a7d5       ??1?$ObjectFactoryRegistry@VPK_Encryptor@CryptoPP@@$0A@@CryptoPP@@QAE@XZ 0041b7d5 f i datatest.obj
 0001:0001a832       ??1?$ObjectFactoryRegistry@VPK_Decryptor@CryptoPP@@$0A@@CryptoPP@@QAE@XZ 0041b832 f i datatest.obj
 0001:0001a88f       ??1?$ObjectFactoryRegistry@VSymmetricCipher@CryptoPP@@$00@CryptoPP@@QAE@XZ 0041b88f f i datatest.obj
 0001:0001a8ec       ??1?$ObjectFactoryRegistry@VAuthenticatedSymmetricCipher@CryptoPP@@$00@CryptoPP@@QAE@XZ 0041b8ec f i datatest.obj
 0001:0001a949       ??0?$codecvt@DDH@std@@QAE@I@Z 0041b949 f i datatest.obj
 0001:0001a99d       ?do_out@?$codecvt@DDH@std@@MBEHAAHPBD1AAPBDPAD3AAPAD@Z 0041b99d f i datatest.obj
 0001:0001a99d       ?do_in@?$codecvt@DDH@std@@MBEHAAHPBD1AAPBDPAD3AAPAD@Z 0041b99d f i datatest.obj
 0001:0001a9b7       ?do_length@?$codecvt@DDH@std@@MBEHAAHPBD1I@Z 0041b9b7 f i datatest.obj
 0001:0001a9cc       ?_Save@?$_Tidyfac@V?$ctype@D@std@@@std@@SAPAV?$ctype@D@2@PAV32@@Z 0041b9cc f i datatest.obj
 0001:0001aa1a       ?_Save@?$_Tidyfac@V?$codecvt@DDH@std@@@std@@SAPAV?$codecvt@DDH@2@PAV32@@Z 0041ba1a f i datatest.obj
 0001:0001aa68       ?_Tidy@?$_Tidyfac@V?$ctype@D@std@@@std@@SAXXZ 0041ba68 f i datatest.obj
 0001:0001aab5       ?_Tidy@?$_Tidyfac@V?$codecvt@DDH@std@@@std@@SAXXZ 0041bab5 f i datatest.obj
 0001:0001ab02       ??RAlgorithmParameters@CryptoPP@@QAEAAV01@PBDAB_N_N@Z 0041bb02 f i datatest.obj
 0001:0001aba4       ?AssignValue@?$AlgorithmParametersTemplate@_N@CryptoPP@@UBEXPBDABVtype_info@@PAX@Z 0041bba4 f i datatest.obj
 0001:0001abfd       ?MoveInto@?$AlgorithmParametersTemplate@_N@CryptoPP@@UBEXPAX@Z 0041bbfd f i datatest.obj
 0001:0001ac3e       ??_E?$AlgorithmParametersTemplate@PAVRandomNumberGenerator@CryptoPP@@@CryptoPP@@UAEPAXI@Z 0041bc3e f i datatest.obj
 0001:0001ac3e       ??_G?$AlgorithmParametersTemplate@H@CryptoPP@@UAEPAXI@Z 0041bc3e f i datatest.obj
 0001:0001ac3e       ??_G?$AlgorithmParametersTemplate@PBH@CryptoPP@@UAEPAXI@Z 0041bc3e f i datatest.obj
 0001:0001ac3e       ??_G?$AlgorithmParametersTemplate@PAVRandomNumberGenerator@CryptoPP@@@CryptoPP@@UAEPAXI@Z 0041bc3e f i datatest.obj
 0001:0001ac3e       ??_G?$AlgorithmParametersTemplate@_N@CryptoPP@@UAEPAXI@Z 0041bc3e f i datatest.obj
 0001:0001ac3e       ??_E?$AlgorithmParametersTemplate@PAV?$basic_ostream@DU?$char_traits@D@std@@@std@@@CryptoPP@@UAEPAXI@Z 0041bc3e f i datatest.obj
 0001:0001ac3e       ??_G?$AlgorithmParametersTemplate@PAV?$basic_ostream@DU?$char_traits@D@std@@@std@@@CryptoPP@@UAEPAXI@Z 0041bc3e f i datatest.obj
 0001:0001ac3e       ??_E?$AlgorithmParametersTemplate@PBH@CryptoPP@@UAEPAXI@Z 0041bc3e f i datatest.obj
 0001:0001ac3e       ??_E?$AlgorithmParametersTemplate@H@CryptoPP@@UAEPAXI@Z 0041bc3e f i datatest.obj
 0001:0001ac3e       ??_E?$AlgorithmParametersTemplate@PBD@CryptoPP@@UAEPAXI@Z 0041bc3e f i datatest.obj
 0001:0001ac3e       ??_G?$AlgorithmParametersTemplate@PBD@CryptoPP@@UAEPAXI@Z 0041bc3e f i datatest.obj
 0001:0001ac3e       ??_E?$AlgorithmParametersTemplate@_N@CryptoPP@@UAEPAXI@Z 0041bc3e f i datatest.obj
 0001:0001ac5a       ??RAlgorithmParameters@CryptoPP@@QAEAAV01@PBDABQBH_N@Z 0041bc5a f i datatest.obj
 0001:0001acfc       ??RAlgorithmParameters@CryptoPP@@QAEAAV01@PBDABQAV?$basic_ostream@DU?$char_traits@D@std@@@std@@_N@Z 0041bcfc f i datatest.obj
 0001:0001ae07       ?AssignValue@?$AlgorithmParametersTemplate@PBH@CryptoPP@@UBEXPBDABVtype_info@@PAX@Z 0041be07 f i datatest.obj
 0001:0001ae60       ?MoveInto@?$AlgorithmParametersTemplate@PBH@CryptoPP@@UBEXPAX@Z 0041be60 f i datatest.obj
 0001:0001aea1       ?AssignValue@?$AlgorithmParametersTemplate@PAV?$basic_ostream@DU?$char_traits@D@std@@@std@@@CryptoPP@@UBEXPBDABVtype_info@@PAX@Z 0041bea1 f i datatest.obj
 0001:0001aefa       ?MoveInto@?$AlgorithmParametersTemplate@PAV?$basic_ostream@DU?$char_traits@D@std@@@std@@@CryptoPP@@UBEXPAX@Z 0041befa f i datatest.obj
 0001:0001af3b       ??_E?$SourceTemplate@VStringStore@CryptoPP@@@CryptoPP@@W3AEPAXI@Z 0041bf3b f i datatest.obj
 0001:0001af43       ?FIPS140_SampleApplication@@YAXXZ 0041bf43 f   dlltest.obj
 0001:0001b79d       ??1?$CipherModeFinalTemplate_CipherHolder@V?$BlockCipherFinal@$0A@VBase@DES_EDE3@CryptoPP@@@CryptoPP@@V?$ConcretePolicyHolder@VEmpty@CryptoPP@@V?$CFB_RequireFullDataBlocks@V?$CFB_EncryptionTemplate@V?$AbstractPolicyHolder@VCFB_CipherAbstractPolicy@CryptoPP@@VCFB_ModePolicy@2@@CryptoPP@@@CryptoPP@@@2@VCFB_CipherAbstractPolicy@2@@2@@CryptoPP@@UAE@XZ 0041c79d f i dlltest.obj
 0001:0001b7d8       ??1?$CipherModeFinalTemplate_CipherHolder@V?$BlockCipherFinal@$0A@VBase@DES_EDE3@CryptoPP@@@CryptoPP@@V?$ConcretePolicyHolder@VEmpty@CryptoPP@@V?$CFB_RequireFullDataBlocks@V?$CFB_DecryptionTemplate@V?$AbstractPolicyHolder@VCFB_CipherAbstractPolicy@CryptoPP@@VCFB_ModePolicy@2@@CryptoPP@@@CryptoPP@@@2@VCFB_CipherAbstractPolicy@2@@2@@CryptoPP@@UAE@XZ 0041c7d8 f i dlltest.obj
 0001:0001b813       ??1?$AutoSeededX917RNG@VRijndael@CryptoPP@@@CryptoPP@@UAE@XZ 0041c813 f i dlltest.obj
 0001:0001b839       ??0?$DL_PrivateKey_WithSignaturePairwiseConsistencyTest@V?$DL_PrivateKey_GFP@VDL_GroupParameters_DSA@CryptoPP@@@CryptoPP@@UDSA@2@@CryptoPP@@QAE@XZ 0041c839 f i dlltest.obj
 0001:0001b8a1       ??_D?$DL_PrivateKey_WithSignaturePairwiseConsistencyTest@V?$DL_PrivateKey_GFP@VDL_GroupParameters_DSA@CryptoPP@@@CryptoPP@@UDSA@2@@CryptoPP@@QAEXXZ 0041c8a1 f i dlltest.obj
 0001:0001b8b9       ??0?$DL_PublicKey_GFP@VDL_GroupParameters_DSA@CryptoPP@@@CryptoPP@@QAE@XZ 0041c8b9 f i dlltest.obj
 0001:0001b91a       ??_D?$DL_PublicKey_GFP@VDL_GroupParameters_DSA@CryptoPP@@@CryptoPP@@QAEXXZ 0041c91a f i dlltest.obj
 0001:0001b932       ??1?$DL_SignerImpl@U?$DL_SignatureSchemeOptions@UDSA@CryptoPP@@UDL_Keys_DSA@2@V?$DL_Algorithm_GDSA@VInteger@CryptoPP@@@2@VDL_SignatureMessageEncodingMethod_DSA@2@VSHA1@2@@CryptoPP@@@CryptoPP@@UAE@XZ 0041c932 f i dlltest.obj
 0001:0001b932       ??1?$PK_FinalTemplate@V?$DL_SignerImpl@U?$DL_SignatureSchemeOptions@UDSA@CryptoPP@@UDL_Keys_DSA@2@V?$DL_Algorithm_GDSA@VInteger@CryptoPP@@@2@VDL_SignatureMessageEncodingMethod_DSA@2@VSHA1@2@@CryptoPP@@@CryptoPP@@@CryptoPP@@UAE@XZ 0041c932 f i dlltest.obj
 0001:0001b937       ??1?$PK_FinalTemplate@V?$DL_VerifierImpl@U?$DL_SignatureSchemeOptions@UDSA@CryptoPP@@UDL_Keys_DSA@2@V?$DL_Algorithm_GDSA@VInteger@CryptoPP@@@2@VDL_SignatureMessageEncodingMethod_DSA@2@VSHA1@2@@CryptoPP@@@CryptoPP@@@CryptoPP@@UAE@XZ 0041c937 f i dlltest.obj
 0001:0001b937       ??1?$DL_VerifierImpl@U?$DL_SignatureSchemeOptions@UDSA@CryptoPP@@UDL_Keys_DSA@2@V?$DL_Algorithm_GDSA@VInteger@CryptoPP@@@2@VDL_SignatureMessageEncodingMethod_DSA@2@VSHA1@2@@CryptoPP@@@CryptoPP@@UAE@XZ 0041c937 f i dlltest.obj
 0001:0001b93c       ??1?$CipherModeFinalTemplate_CipherHolder@V?$BlockCipherFinal@$0A@VBase@DES_EDE3@CryptoPP@@@CryptoPP@@VECB_OneWay@2@@CryptoPP@@UAE@XZ 0041c93c f i dlltest.obj
 0001:0001b977       ??1?$BlockCipherFinal@$0A@VBase@DES_EDE3@CryptoPP@@@CryptoPP@@UAE@XZ 0041c977 f i dlltest.obj
 0001:0001b977       ??1?$ClonableImpl@V?$BlockCipherFinal@$00VBase@DES_EDE3@CryptoPP@@@CryptoPP@@VBase@DES_EDE3@2@@CryptoPP@@UAE@XZ 0041c977 f i dlltest.obj
 0001:0001b977       ??1?$ClonableImpl@V?$BlockCipherFinal@$0A@VBase@DES_EDE3@CryptoPP@@@CryptoPP@@VBase@DES_EDE3@2@@CryptoPP@@UAE@XZ 0041c977 f i dlltest.obj
 0001:0001b977       ??1?$ObjectHolder@V?$BlockCipherFinal@$0A@VBase@DES_EDE3@CryptoPP@@@CryptoPP@@@CryptoPP@@QAE@XZ 0041c977 f i dlltest.obj
 0001:0001b977       ??1?$BlockCipherFinal@$00VBase@DES_EDE3@CryptoPP@@@CryptoPP@@UAE@XZ 0041c977 f i dlltest.obj
 0001:0001b97c       ??_E?$DL_PrivateKey_WithSignaturePairwiseConsistencyTest@V?$DL_PrivateKey_GFP@VDL_GroupParameters_DSA@CryptoPP@@@CryptoPP@@UDSA@2@@CryptoPP@@UAEPAXI@Z 0041c97c f i dlltest.obj
 0001:0001b97c       ??_G?$DL_PrivateKey_WithSignaturePairwiseConsistencyTest@V?$DL_PrivateKey_GFP@VDL_GroupParameters_DSA@CryptoPP@@@CryptoPP@@UDSA@2@@CryptoPP@@UAEPAXI@Z 0041c97c f i dlltest.obj
 0001:0001b97c       ??_E?$DL_PrivateKey_GFP@VDL_GroupParameters_DSA@CryptoPP@@@CryptoPP@@UAEPAXI@Z 0041c97c f i dlltest.obj
 0001:0001b97c       ??_G?$DL_PrivateKey_GFP@VDL_GroupParameters_DSA@CryptoPP@@@CryptoPP@@UAEPAXI@Z 0041c97c f i dlltest.obj
 0001:0001b9a7       ??0?$DL_PrivateKey_GFP@VDL_GroupParameters_DSA@CryptoPP@@@CryptoPP@@QAE@XZ 0041c9a7 f i dlltest.obj
 0001:0001ba0f       ??1?$DL_PrivateKey_GFP@VDL_GroupParameters_DSA@CryptoPP@@@CryptoPP@@UAE@XZ 0041ca0f f i dlltest.obj
 0001:0001ba0f       ??1?$DL_PrivateKey_WithSignaturePairwiseConsistencyTest@V?$DL_PrivateKey_GFP@VDL_GroupParameters_DSA@CryptoPP@@@CryptoPP@@UDSA@2@@CryptoPP@@UAE@XZ 0041ca0f f i dlltest.obj
 0001:0001ba14       ??_E?$DL_PublicKey_GFP@VDL_GroupParameters_DSA@CryptoPP@@@CryptoPP@@UAEPAXI@Z 0041ca14 f i dlltest.obj
 0001:0001ba14       ??_G?$DL_PublicKey_GFP@VDL_GroupParameters_DSA@CryptoPP@@@CryptoPP@@UAEPAXI@Z 0041ca14 f i dlltest.obj
 0001:0001ba3f       ??0?$DL_PublicKeyImpl@VDL_GroupParameters_DSA@CryptoPP@@@CryptoPP@@QAE@XZ 0041ca3f f i dlltest.obj
 0001:0001bab3       ??1?$DL_PublicKeyImpl@VDL_GroupParameters_DSA@CryptoPP@@@CryptoPP@@UAE@XZ 0041cab3 f i dlltest.obj
 0001:0001baf8       ??1?$DL_PublicKey_GFP@VDL_GroupParameters_DSA@CryptoPP@@@CryptoPP@@UAE@XZ 0041caf8 f i dlltest.obj
 0001:0001bafd       ??0?$DL_PrivateKeyImpl@VDL_GroupParameters_DSA@CryptoPP@@@CryptoPP@@QAE@XZ 0041cafd f i dlltest.obj
 0001:0001bb78       ??1?$DL_PrivateKeyImpl@VDL_GroupParameters_DSA@CryptoPP@@@CryptoPP@@UAE@XZ 0041cb78 f i dlltest.obj
 0001:0001bbdc       ??_E?$DL_PublicKeyImpl@VDL_GroupParameters_DSA@CryptoPP@@@CryptoPP@@UAEPAXI@Z 0041cbdc f i dlltest.obj
 0001:0001bbdc       ??_G?$DL_PublicKeyImpl@VDL_GroupParameters_DSA@CryptoPP@@@CryptoPP@@UAEPAXI@Z 0041cbdc f i dlltest.obj
 0001:0001bc07       ??0?$DL_KeyImpl@VX509PublicKey@CryptoPP@@VDL_GroupParameters_DSA@2@VOID@2@@CryptoPP@@QAE@XZ 0041cc07 f i dlltest.obj
 0001:0001bc6e       ??1?$DL_KeyImpl@VX509PublicKey@CryptoPP@@VDL_GroupParameters_DSA@2@VOID@2@@CryptoPP@@UAE@XZ 0041cc6e f i dlltest.obj
 0001:0001bc94       ??1?$DL_FixedBasePrecomputationImpl@VInteger@CryptoPP@@@CryptoPP@@QAE@XZ 0041cc94 f i dlltest.obj
 0001:0001bce9       ??1Base@Rijndael@CryptoPP@@UAE@XZ 0041cce9 f i dlltest.obj
 0001:0001bd0f       ??_E?$DL_PrivateKeyImpl@VDL_GroupParameters_DSA@CryptoPP@@@CryptoPP@@UAEPAXI@Z 0041cd0f f i dlltest.obj
 0001:0001bd0f       ??_G?$DL_PrivateKeyImpl@VDL_GroupParameters_DSA@CryptoPP@@@CryptoPP@@UAEPAXI@Z 0041cd0f f i dlltest.obj
 0001:0001bd3a       ??0?$DL_KeyImpl@VPKCS8PrivateKey@CryptoPP@@VDL_GroupParameters_DSA@2@VOID@2@@CryptoPP@@QAE@XZ 0041cd3a f i dlltest.obj
 0001:0001bda8       ??1?$DL_KeyImpl@VPKCS8PrivateKey@CryptoPP@@VDL_GroupParameters_DSA@2@VOID@2@@CryptoPP@@UAE@XZ 0041cda8 f i dlltest.obj
 0001:0001bde1       ??_E?$DL_KeyImpl@VX509PublicKey@CryptoPP@@VDL_GroupParameters_DSA@2@VOID@2@@CryptoPP@@UAEPAXI@Z 0041cde1 f i dlltest.obj
 0001:0001bde1       ??_G?$DL_KeyImpl@VX509PublicKey@CryptoPP@@VDL_GroupParameters_DSA@2@VOID@2@@CryptoPP@@UAEPAXI@Z 0041cde1 f i dlltest.obj
 0001:0001be05       ??0DL_GroupParameters_DSA@CryptoPP@@QAE@XZ 0041ce05 f i dlltest.obj
 0001:0001be72       ??1?$DL_ObjectImplBase@V?$DL_SignerBase@VInteger@CryptoPP@@@CryptoPP@@U?$DL_SignatureSchemeOptions@UDSA@CryptoPP@@UDL_Keys_DSA@2@V?$DL_Algorithm_GDSA@VInteger@CryptoPP@@@2@VDL_SignatureMessageEncodingMethod_DSA@2@VSHA1@2@@2@V?$DL_PrivateKey_WithSignaturePairwiseConsistencyTest@V?$DL_PrivateKey_GFP@VDL_GroupParameters_DSA@CryptoPP@@@CryptoPP@@UDSA@2@@2@@CryptoPP@@UAE@XZ 0041ce72 f i dlltest.obj
 0001:0001be98       ??1?$DL_ObjectImplBase@V?$DL_VerifierBase@VInteger@CryptoPP@@@CryptoPP@@U?$DL_SignatureSchemeOptions@UDSA@CryptoPP@@UDL_Keys_DSA@2@V?$DL_Algorithm_GDSA@VInteger@CryptoPP@@@2@VDL_SignatureMessageEncodingMethod_DSA@2@VSHA1@2@@2@V?$DL_PublicKey_GFP@VDL_GroupParameters_DSA@CryptoPP@@@2@@CryptoPP@@UAE@XZ 0041ce98 f i dlltest.obj
 0001:0001bebe       ??1BlockOrientedCipherModeBase@CryptoPP@@UAE@XZ 0041cebe f i dlltest.obj
 0001:0001bef7       ??1Base@DES_EDE3@CryptoPP@@UAE@XZ 0041cef7 f i dlltest.obj
 0001:0001bf42       ??_E?$DL_KeyImpl@VPKCS8PrivateKey@CryptoPP@@VDL_GroupParameters_DSA@2@VOID@2@@CryptoPP@@UAEPAXI@Z 0041cf42 f i dlltest.obj
 0001:0001bf42       ??_G?$DL_KeyImpl@VPKCS8PrivateKey@CryptoPP@@VDL_GroupParameters_DSA@2@VOID@2@@CryptoPP@@UAEPAXI@Z 0041cf42 f i dlltest.obj
 0001:0001bf69       ??_GDL_GroupParameters_DSA@CryptoPP@@UAEPAXI@Z 0041cf69 f i dlltest.obj
 0001:0001bf69       ??_EDL_GroupParameters_GFP_DefaultSafePrime@CryptoPP@@UAEPAXI@Z 0041cf69 f i dlltest.obj
 0001:0001bf69       ??_GDL_GroupParameters_GFP_DefaultSafePrime@CryptoPP@@UAEPAXI@Z 0041cf69 f i dlltest.obj
 0001:0001bf69       ??_GDL_GroupParameters_GFP@CryptoPP@@UAEPAXI@Z 0041cf69 f i dlltest.obj
 0001:0001bf69       ??_EDL_GroupParameters_GFP@CryptoPP@@UAEPAXI@Z 0041cf69 f i dlltest.obj
 0001:0001bf69       ??_EDL_GroupParameters_DSA@CryptoPP@@UAEPAXI@Z 0041cf69 f i dlltest.obj
 0001:0001bf8d       ??0DL_GroupParameters_GFP@CryptoPP@@QAE@XZ 0041cf8d f i dlltest.obj
 0001:0001bffa       ??1DL_GroupParameters_GFP@CryptoPP@@UAE@XZ 0041cffa f i dlltest.obj
 0001:0001bffa       ??1DL_GroupParameters_DSA@CryptoPP@@UAE@XZ 0041cffa f i dlltest.obj
 0001:0001bffa       ??1DL_GroupParameters_GFP_DefaultSafePrime@CryptoPP@@UAE@XZ 0041cffa f i dlltest.obj
 0001:0001bfff       ??1RawDES@CryptoPP@@QAE@XZ 0041cfff f i dlltest.obj
 0001:0001c004       ??0?$DL_GroupParametersImpl@VModExpPrecomputation@CryptoPP@@V?$DL_FixedBasePrecomputationImpl@VInteger@CryptoPP@@@2@VDL_GroupParameters_IntegerBased@2@@CryptoPP@@QAE@XZ 0041d004 f i dlltest.obj
 0001:0001c08b       ??1?$DL_GroupParametersImpl@VModExpPrecomputation@CryptoPP@@V?$DL_FixedBasePrecomputationImpl@VInteger@CryptoPP@@@2@VDL_GroupParameters_IntegerBased@2@@CryptoPP@@UAE@XZ 0041d08b f i dlltest.obj
 0001:0001c0cf       ??_G?$DL_GroupParametersImpl@VModExpPrecomputation@CryptoPP@@V?$DL_FixedBasePrecomputationImpl@VInteger@CryptoPP@@@2@VDL_GroupParameters_IntegerBased@2@@CryptoPP@@UAEPAXI@Z 0041d0cf f i dlltest.obj
 0001:0001c0cf       ??_E?$DL_GroupParametersImpl@VModExpPrecomputation@CryptoPP@@V?$DL_FixedBasePrecomputationImpl@VInteger@CryptoPP@@@2@VDL_GroupParameters_IntegerBased@2@@CryptoPP@@UAEPAXI@Z 0041d0cf f i dlltest.obj
 0001:0001c0f3       ??0DL_GroupParameters_IntegerBased@CryptoPP@@QAE@XZ 0041d0f3 f i dlltest.obj
 0001:0001c14d       ??1DL_GroupParameters_IntegerBased@CryptoPP@@UAE@XZ 0041d14d f i dlltest.obj
 0001:0001c17e       ??1ModExpPrecomputation@CryptoPP@@QAE@XZ 0041d17e f i dlltest.obj
 0001:0001c186       ?AlgorithmName@?$AlgorithmImpl@V?$SimpleKeyingInterfaceImpl@V?$TwoBases@VBlockCipher@CryptoPP@@URijndael_Info@2@@CryptoPP@@V12@@CryptoPP@@V12@@CryptoPP@@UBE?AV?$basic_string@DU?$char_traits@D@std@@V?$allocator@D@2@@std@@XZ 0041d186 f i dlltest.obj
 0001:0001c1be       ??1?$SecBlock@IV?$FixedSizeAllocatorWithCleanup@I$0DM@V?$NullAllocator@I@CryptoPP@@$00@CryptoPP@@@CryptoPP@@QAE@XZ 0041d1be f i dlltest.obj
 0001:0001c1de       ??1?$SecBlock@IV?$FixedSizeAllocatorWithCleanup@I$0CA@V?$NullAllocator@I@CryptoPP@@$0A@@CryptoPP@@@CryptoPP@@QAE@XZ 0041d1de f i dlltest.obj
 0001:0001c1fe       ??0?$DL_FixedBasePrecomputationImpl@VInteger@CryptoPP@@@CryptoPP@@QAE@XZ 0041d1fe f i dlltest.obj
 0001:0001c254       ?IsInitialized@?$DL_FixedBasePrecomputationImpl@VInteger@CryptoPP@@@CryptoPP@@UBE_NXZ 0041d254 f i dlltest.obj
 0001:0001c274       ?GetBase@?$DL_FixedBasePrecomputationImpl@VInteger@CryptoPP@@@CryptoPP@@UBEABVInteger@2@ABV?$DL_GroupPrecomputation@VInteger@CryptoPP@@@2@@Z 0041d274 f i dlltest.obj
 0001:0001c28d       ??1?$vector@VInteger@CryptoPP@@V?$allocator@VInteger@CryptoPP@@@std@@@std@@QAE@XZ 0041d28d f i dlltest.obj
 0001:0001c2c2       ??0?$DL_GroupParameters@VInteger@CryptoPP@@@CryptoPP@@QAE@XZ 0041d2c2 f i dlltest.obj
 0001:0001c2e0       ?GetSubgroupGenerator@?$DL_GroupParameters@UEC2NPoint@CryptoPP@@@CryptoPP@@UBEABUEC2NPoint@2@XZ 0041d2e0 f i dlltest.obj
 0001:0001c2e0       ?GetSubgroupGenerator@?$DL_GroupParameters@VInteger@CryptoPP@@@CryptoPP@@UBEABVInteger@2@XZ 0041d2e0 f i dlltest.obj
 0001:0001c2e0       ?GetSubgroupGenerator@?$DL_GroupParameters@UECPPoint@CryptoPP@@@CryptoPP@@UBEABUECPPoint@2@XZ 0041d2e0 f i dlltest.obj
 0001:0001c2ff       ?ExponentiateBase@?$DL_GroupParameters@VInteger@CryptoPP@@@CryptoPP@@UBE?AVInteger@2@ABV32@@Z 0041d2ff f i dlltest.obj
 0001:0001c2ff       ?ExponentiateBase@?$DL_GroupParameters@UECPPoint@CryptoPP@@@CryptoPP@@UBE?AUECPPoint@2@ABVInteger@2@@Z 0041d2ff f i dlltest.obj
 0001:0001c2ff       ?ExponentiateBase@?$DL_GroupParameters@UEC2NPoint@CryptoPP@@@CryptoPP@@UBE?AUEC2NPoint@2@ABVInteger@2@@Z 0041d2ff f i dlltest.obj
 0001:0001c332       ?ExponentiateElement@?$DL_GroupParameters@VInteger@CryptoPP@@@CryptoPP@@UBE?AVInteger@2@ABV32@0@Z 0041d332 f i dlltest.obj
 0001:0001c398       ?GetCofactor@?$DL_GroupParameters@VInteger@CryptoPP@@@CryptoPP@@UBE?AVInteger@2@XZ 0041d398 f i dlltest.obj
 0001:0001c3fb       ?GetModulus@?$DL_GroupParameters_IntegerBasedImpl@VModExpPrecomputation@CryptoPP@@V?$DL_FixedBasePrecomputationImpl@VInteger@CryptoPP@@@2@@CryptoPP@@UBEABVInteger@2@XZ 0041d3fb f i dlltest.obj
 0001:0001c402       ?SetModulusAndSubgroupGenerator@?$DL_GroupParameters_IntegerBasedImpl@VModExpPrecomputation@CryptoPP@@V?$DL_FixedBasePrecomputationImpl@VInteger@CryptoPP@@@2@@CryptoPP@@UAEXABVInteger@2@0@Z 0041d402 f i dlltest.obj
 0001:0001c436       ?BERDecodePublicKey@?$DL_PublicKey_GFP@VDL_GroupParameters_DSA@CryptoPP@@@CryptoPP@@UAEXAAVBufferedTransformation@2@_NI@Z 0041d436 f i dlltest.obj
 0001:0001c47d       ?DEREncodePublicKey@?$DL_PublicKey_GFP@VDL_GroupParameters_LUC@CryptoPP@@@CryptoPP@@UBEXAAVBufferedTransformation@2@@Z 0041d47d f i dlltest.obj
 0001:0001c47d       ?DEREncodePublicKey@?$DL_PublicKey_GFP@VDL_GroupParameters_GFP_DefaultSafePrime@CryptoPP@@@CryptoPP@@UBEXAAVBufferedTransformation@2@@Z 0041d47d f i dlltest.obj
 0001:0001c47d       ?DEREncodePublicKey@?$DL_PublicKey_GFP@VDL_GroupParameters_DSA@CryptoPP@@@CryptoPP@@UBEXAAVBufferedTransformation@2@@Z 0041d47d f i dlltest.obj
 0001:0001c47d       ?DEREncodePublicKey@?$DL_PublicKey_GFP@VDL_GroupParameters_LUC_DefaultSafePrime@CryptoPP@@@CryptoPP@@UBEXAAVBufferedTransformation@2@@Z 0041d47d f i dlltest.obj
 0001:0001c47d       ?DEREncodePublicKey@?$DL_PublicKey_GFP@VDL_GroupParameters_GFP@CryptoPP@@@CryptoPP@@UBEXAAVBufferedTransformation@2@@Z 0041d47d f i dlltest.obj
 0001:0001c494       ?Validate@?$DL_PublicKeyImpl@VDL_GroupParameters_DSA@CryptoPP@@@CryptoPP@@UBE_NAAVRandomNumberGenerator@2@I@Z 0041d494 f i dlltest.obj
 0001:0001c494       ?Validate@?$DL_PublicKeyImpl@VDL_GroupParameters_GFP@CryptoPP@@@CryptoPP@@UBE_NAAVRandomNumberGenerator@2@I@Z 0041d494 f i dlltest.obj
 0001:0001c494       ?Validate@?$DL_PublicKeyImpl@VDL_GroupParameters_GFP_DefaultSafePrime@CryptoPP@@@CryptoPP@@UBE_NAAVRandomNumberGenerator@2@I@Z 0041d494 f i dlltest.obj
 0001:0001c4f5       ?GetVoidValue@?$DL_PublicKeyImpl@VDL_GroupParameters_DSA@CryptoPP@@@CryptoPP@@UBE_NPBDABVtype_info@@PAX@Z 0041d4f5 f i dlltest.obj
 0001:0001c532       ?AssignFrom@?$DL_PublicKeyImpl@VDL_GroupParameters_DSA@CryptoPP@@@CryptoPP@@UAEXABVNameValuePairs@2@@Z 0041d532 f i dlltest.obj
 0001:0001c54e       ?Precompute@?$DL_PublicKeyImpl@VDL_GroupParameters_GFP_DefaultSafePrime@CryptoPP@@@CryptoPP@@UAEXI@Z 0041d54e f i dlltest.obj
 0001:0001c54e       ?Precompute@?$DL_PublicKeyImpl@VDL_GroupParameters_DSA@CryptoPP@@@CryptoPP@@UAEXI@Z 0041d54e f i dlltest.obj
 0001:0001c54e       ?Precompute@?$DL_PublicKeyImpl@VDL_GroupParameters_GFP@CryptoPP@@@CryptoPP@@UAEXI@Z 0041d54e f i dlltest.obj
 0001:0001c5b8       ?GetPublicElement@?$DL_PublicKey@UEC2NPoint@CryptoPP@@@CryptoPP@@UBEABUEC2NPoint@2@XZ 0041d5b8 f i dlltest.obj
 0001:0001c5b8       ?GetPublicElement@?$DL_PublicKey@UECPPoint@CryptoPP@@@CryptoPP@@UBEABUECPPoint@2@XZ 0041d5b8 f i dlltest.obj
 0001:0001c5b8       ?GetPublicElement@?$DL_PublicKey@VInteger@CryptoPP@@@CryptoPP@@UBEABVInteger@2@XZ 0041d5b8 f i dlltest.obj
 0001:0001c5df       ?Validate@?$DL_PrivateKeyImpl@VDL_GroupParameters_DSA@CryptoPP@@@CryptoPP@@UBE_NAAVRandomNumberGenerator@2@I@Z 0041d5df f i dlltest.obj
 0001:0001c6af       ?GetVoidValue@?$DL_PrivateKeyImpl@VDL_GroupParameters_DSA@CryptoPP@@@CryptoPP@@UBE_NPBDABVtype_info@@PAX@Z 0041d6af f i dlltest.obj
 0001:0001c6ec       ?AssignFrom@?$DL_PrivateKeyImpl@VDL_GroupParameters_DSA@CryptoPP@@@CryptoPP@@UAEXABVNameValuePairs@2@@Z 0041d6ec f i dlltest.obj
 0001:0001c708       ?GenerateRandom@?$DL_PrivateKeyImpl@VDL_GroupParameters_DSA@CryptoPP@@@CryptoPP@@UAEXAAVRandomNumberGenerator@2@ABVNameValuePairs@2@@Z 0041d708 f i dlltest.obj
 0001:0001c7ac       ?SetPrivateExponent@?$DL_PrivateKeyImpl@VDL_GroupParameters_DSA@CryptoPP@@@CryptoPP@@UAEXABVInteger@2@@Z 0041d7ac f i dlltest.obj
 0001:0001c7ac       ?SetPrivateExponent@?$DL_PrivateKeyImpl@VDL_GroupParameters_GFP@CryptoPP@@@CryptoPP@@UAEXABVInteger@2@@Z 0041d7ac f i dlltest.obj
 0001:0001c7ac       ?SetPrivateExponent@?$DL_PrivateKeyImpl@VDL_GroupParameters_GFP_DefaultSafePrime@CryptoPP@@@CryptoPP@@UAEXABVInteger@2@@Z 0041d7ac f i dlltest.obj
 0001:0001c7be       ?GenerateRandom@?$DL_PrivateKey_WithSignaturePairwiseConsistencyTest@V?$DL_PrivateKey_GFP@VDL_GroupParameters_DSA@CryptoPP@@@CryptoPP@@UDSA@2@@CryptoPP@@UAEXAAVRandomNumberGenerator@2@ABVNameValuePairs@2@@Z 0041d7be f i dlltest.obj
 0001:0001c86a       ??1CipherModeBase@CryptoPP@@UAE@XZ 0041d86a f i dlltest.obj
 0001:0001c890       ?ResizeBuffers@BlockOrientedCipherModeBase@CryptoPP@@MAEXXZ 0041d890 f i dlltest.obj
 0001:0001c8a5       ?ResizeBuffers@CipherModeBase@CryptoPP@@MAEXXZ 0041d8a5 f i dlltest.obj
 0001:0001c8bf       ?New@?$SecBlock@EV?$AllocatorWithCleanup@E$00@CryptoPP@@@CryptoPP@@QAEXI@Z 0041d8bf f i dlltest.obj
 0001:0001c8bf       ?New@?$SecBlock@EV?$AllocatorWithCleanup@E$0A@@CryptoPP@@@CryptoPP@@QAEXI@Z 0041d8bf f i dlltest.obj
 0001:0001c8e6       ??0?$AutoSeededX917RNG@VRijndael@CryptoPP@@@CryptoPP@@QAE@_N0@Z 0041d8e6 f i dlltest.obj
 0001:0001c932       ?IncorporateEntropy@?$AutoSeededX917RNG@VRijndael@CryptoPP@@@CryptoPP@@UAEXPBEI@Z 0041d932 f i dlltest.obj
 0001:0001c944       ?GenerateIntoBufferedTransformation@?$AutoSeededX917RNG@VRijndael@CryptoPP@@@CryptoPP@@UAEXAAVBufferedTransformation@2@ABV?$basic_string@DU?$char_traits@D@std@@V?$allocator@D@2@@std@@_K@Z 0041d944 f i dlltest.obj
 0001:0001c95f       ?Clone@?$ClonableImpl@V?$BlockCipherFinal@$0A@VEnc@Rijndael@CryptoPP@@@CryptoPP@@VEnc@Rijndael@2@@CryptoPP@@UBEPAVClonable@2@XZ 0041d95f f i dlltest.obj
 0001:0001c9b8       ??0?$CipherModeFinalTemplate_CipherHolder@V?$BlockCipherFinal@$0A@VBase@DES_EDE3@CryptoPP@@@CryptoPP@@V?$ConcretePolicyHolder@VEmpty@CryptoPP@@V?$CFB_RequireFullDataBlocks@V?$CFB_EncryptionTemplate@V?$AbstractPolicyHolder@VCFB_CipherAbstractPolicy@CryptoPP@@VCFB_ModePolicy@2@@CryptoPP@@@CryptoPP@@@2@VCFB_CipherAbstractPolicy@2@@2@@CryptoPP@@QAE@XZ 0041d9b8 f i dlltest.obj
 0001:0001ca1e       ??1?$AlgorithmImpl@V?$ConcretePolicyHolder@VEmpty@CryptoPP@@V?$CFB_RequireFullDataBlocks@V?$CFB_DecryptionTemplate@V?$AbstractPolicyHolder@VCFB_CipherAbstractPolicy@CryptoPP@@VCFB_ModePolicy@2@@CryptoPP@@@CryptoPP@@@2@VCFB_CipherAbstractPolicy@2@@CryptoPP@@V?$CipherModeFinalTemplate_CipherHolder@V?$BlockCipherFinal@$0A@VBase@DES_EDE3@CryptoPP@@@CryptoPP@@V?$ConcretePolicyHolder@VEmpty@CryptoPP@@V?$CFB_RequireFullDataBlocks@V?$CFB_DecryptionTemplate@V?$AbstractPolicyHolder@VCFB_CipherAbstractPolicy@CryptoPP@@VCFB_ModePolicy@2@@CryptoPP@@@CryptoPP@@@2@VCFB_CipherAbstractPolicy@2@@2@@2@@CryptoPP@@UAE@XZ 0041da1e f i dlltest.obj
 0001:0001ca1e       ??1?$AlgorithmImpl@V?$ConcretePolicyHolder@VEmpty@CryptoPP@@V?$CFB_RequireFullDataBlocks@V?$CFB_EncryptionTemplate@V?$AbstractPolicyHolder@VCFB_CipherAbstractPolicy@CryptoPP@@VCFB_ModePolicy@2@@CryptoPP@@@CryptoPP@@@2@VCFB_CipherAbstractPolicy@2@@CryptoPP@@V?$CipherModeFinalTemplate_CipherHolder@V?$BlockCipherFinal@$0A@VBase@DES_EDE3@CryptoPP@@@CryptoPP@@V?$ConcretePolicyHolder@VEmpty@CryptoPP@@V?$CFB_RequireFullDataBlocks@V?$CFB_EncryptionTemplate@V?$AbstractPolicyHolder@VCFB_CipherAbstractPolicy@CryptoPP@@VCFB_ModePolicy@2@@CryptoPP@@@CryptoPP@@@2@VCFB_CipherAbstractPolicy@2@@2@@2@@CryptoPP@@UAE@XZ 0041da1e f i dlltest.obj
 0001:0001ca23       ?GetAlignment@?$ModePolicyCommonTemplate@VCFB_CipherAbstractPolicy@CryptoPP@@@CryptoPP@@EBEIXZ 0041da23 f i dlltest.obj
 0001:0001ca23       ?GetAlignment@CTR_ModePolicy@CryptoPP@@MBEIXZ 0041da23 f i dlltest.obj
 0001:0001ca23       ?GetAlignment@?$ModePolicyCommonTemplate@UAdditiveCipherAbstractPolicy@CryptoPP@@@CryptoPP@@EBEIXZ 0041da23 f i dlltest.obj
 0001:0001ca2f       ?OptimalBlockSize@?$CFB_CipherTemplate@V?$AbstractPolicyHolder@VCFB_CipherAbstractPolicy@CryptoPP@@VCFB_ModePolicy@2@@CryptoPP@@@CryptoPP@@UBEIXZ 0041da2f f i dlltest.obj
 0001:0001ca3f       ?Seek@StreamTransformation@CryptoPP@@UAEX_K@Z 0041da3f f i dlltest.obj
 0001:0001ca9b       ?AlgorithmName@?$AlgorithmImpl@V?$SimpleKeyingInterfaceImpl@V?$TwoBases@VBlockCipher@CryptoPP@@UDES_EDE3_Info@2@@CryptoPP@@V12@@CryptoPP@@V12@@CryptoPP@@UBE?AV?$basic_string@DU?$char_traits@D@std@@V?$allocator@D@2@@std@@XZ 0041da9b f i dlltest.obj
 0001:0001cad3       ?GetAlgorithm@AuthenticatedSymmetricCipher@CryptoPP@@MBEABVAlgorithm@2@XZ 0041dad3 f i dlltest.obj
 0001:0001cad3       ?GetAlgorithm@SymmetricCipher@CryptoPP@@MBEABVAlgorithm@2@XZ 0041dad3 f i dlltest.obj
 0001:0001cad3       ?GetAlgorithm@BlockCipher@CryptoPP@@MBEABVAlgorithm@2@XZ 0041dad3 f i dlltest.obj
 0001:0001cad3       ?GetAlgorithm@MessageAuthenticationCode@CryptoPP@@MBEABVAlgorithm@2@XZ 0041dad3 f i dlltest.obj
 0001:0001cadf       ?MinKeyLength@CipherModeBase@CryptoPP@@UBEIXZ 0041dadf f i dlltest.obj
 0001:0001cae7       ?MaxKeyLength@CipherModeBase@CryptoPP@@UBEIXZ 0041dae7 f i dlltest.obj
 0001:0001caef       ?DefaultKeyLength@CipherModeBase@CryptoPP@@UBEIXZ 0041daef f i dlltest.obj
 0001:0001caf7       ?GetValidKeyLength@CipherModeBase@CryptoPP@@UBEII@Z 0041daf7 f i dlltest.obj
 0001:0001cb06       ?IsValidKeyLength@CipherModeBase@CryptoPP@@UBE_NI@Z 0041db06 f i dlltest.obj
 0001:0001cb15       ?GetBytesPerIteration@CFB_ModePolicy@CryptoPP@@MBEIXZ 0041db15 f i dlltest.obj
 0001:0001cb15       ?IVSize@CipherModeBase@CryptoPP@@UBEIXZ 0041db15 f i dlltest.obj
 0001:0001cb19       ?GetRegisterBegin@CFB_ModePolicy@CryptoPP@@MAEPAEXZ 0041db19 f i dlltest.obj
 0001:0001cb23       ?CanIterate@CFB_ModePolicy@CryptoPP@@MBE_NXZ 0041db23 f i dlltest.obj
 0001:0001cb2f       ?Clone@?$ClonableImpl@V?$BlockCipherFinal@$0A@VBase@DES_EDE3@CryptoPP@@@CryptoPP@@VBase@DES_EDE3@2@@CryptoPP@@UBEPAVClonable@2@XZ 0041db2f f i dlltest.obj
 0001:0001cb88       ?AlgorithmName@?$AlgorithmImpl@V?$ConcretePolicyHolder@VEmpty@CryptoPP@@V?$CFB_RequireFullDataBlocks@V?$CFB_EncryptionTemplate@V?$AbstractPolicyHolder@VCFB_CipherAbstractPolicy@CryptoPP@@VCFB_ModePolicy@2@@CryptoPP@@@CryptoPP@@@2@VCFB_CipherAbstractPolicy@2@@CryptoPP@@V?$CipherModeFinalTemplate_CipherHolder@V?$BlockCipherFinal@$0A@VBase@DES_EDE3@CryptoPP@@@CryptoPP@@V?$ConcretePolicyHolder@VEmpty@CryptoPP@@V?$CFB_RequireFullDataBlocks@V?$CFB_EncryptionTemplate@V?$AbstractPolicyHolder@VCFB_CipherAbstractPolicy@CryptoPP@@VCFB_ModePolicy@2@@CryptoPP@@@CryptoPP@@@2@VCFB_CipherAbstractPolicy@2@@2@@2@@CryptoPP@@UBE?AV?$basic_string@DU?$char_traits@D@std@@V?$allocator@D@2@@std@@XZ 0041db88 f i dlltest.obj
 0001:0001cba0       ??0?$CipherModeFinalTemplate_CipherHolder@V?$BlockCipherFinal@$0A@VBase@DES_EDE3@CryptoPP@@@CryptoPP@@V?$ConcretePolicyHolder@VEmpty@CryptoPP@@V?$CFB_RequireFullDataBlocks@V?$CFB_DecryptionTemplate@V?$AbstractPolicyHolder@VCFB_CipherAbstractPolicy@CryptoPP@@VCFB_ModePolicy@2@@CryptoPP@@@CryptoPP@@@2@VCFB_CipherAbstractPolicy@2@@2@@CryptoPP@@QAE@XZ 0041dba0 f i dlltest.obj
 0001:0001cc06       ?MandatoryBlockSize@?$CFB_RequireFullDataBlocks@V?$CFB_DecryptionTemplate@V?$AbstractPolicyHolder@VCFB_CipherAbstractPolicy@CryptoPP@@VCFB_ModePolicy@2@@CryptoPP@@@CryptoPP@@@CryptoPP@@UBEIXZ 0041dc06 f i dlltest.obj
 0001:0001cc06       ?MandatoryBlockSize@?$CFB_RequireFullDataBlocks@V?$CFB_EncryptionTemplate@V?$AbstractPolicyHolder@VCFB_CipherAbstractPolicy@CryptoPP@@VCFB_ModePolicy@2@@CryptoPP@@@CryptoPP@@@CryptoPP@@UBEIXZ 0041dc06 f i dlltest.obj
 0001:0001cc0b       ?AlgorithmName@?$AlgorithmImpl@V?$ConcretePolicyHolder@VEmpty@CryptoPP@@V?$CFB_RequireFullDataBlocks@V?$CFB_DecryptionTemplate@V?$AbstractPolicyHolder@VCFB_CipherAbstractPolicy@CryptoPP@@VCFB_ModePolicy@2@@CryptoPP@@@CryptoPP@@@2@VCFB_CipherAbstractPolicy@2@@CryptoPP@@V?$CipherModeFinalTemplate_CipherHolder@V?$BlockCipherFinal@$0A@VBase@DES_EDE3@CryptoPP@@@CryptoPP@@V?$ConcretePolicyHolder@VEmpty@CryptoPP@@V?$CFB_RequireFullDataBlocks@V?$CFB_DecryptionTemplate@V?$AbstractPolicyHolder@VCFB_CipherAbstractPolicy@CryptoPP@@VCFB_ModePolicy@2@@CryptoPP@@@CryptoPP@@@2@VCFB_CipherAbstractPolicy@2@@2@@2@@CryptoPP@@UBE?AV?$basic_string@DU?$char_traits@D@std@@V?$allocator@D@2@@std@@XZ 0041dc0b f i dlltest.obj
 0001:0001cc23       ?AccessPolicy@?$ConcretePolicyHolder@VEmpty@CryptoPP@@V?$CFB_EncryptionTemplate@V?$AbstractPolicyHolder@VCFB_CipherAbstractPolicy@CryptoPP@@VCFB_ModePolicy@2@@CryptoPP@@@2@VCFB_CipherAbstractPolicy@2@@CryptoPP@@MAEAAVCFB_CipherAbstractPolicy@2@XZ 0041dc23 f i dlltest.obj
 0001:0001cc23       ?AccessPolicy@?$ConcretePolicyHolder@VEmpty@CryptoPP@@V?$AdditiveCipherTemplate@V?$AbstractPolicyHolder@UAdditiveCipherAbstractPolicy@CryptoPP@@VCTR_ModePolicy@2@@CryptoPP@@@2@UAdditiveCipherAbstractPolicy@2@@CryptoPP@@MAEAAUAdditiveCipherAbstractPolicy@2@XZ 0041dc23 f i dlltest.obj
 0001:0001cc23       ?GetPolicy@?$ConcretePolicyHolder@VEmpty@CryptoPP@@V?$CFB_RequireFullDataBlocks@V?$CFB_DecryptionTemplate@V?$AbstractPolicyHolder@VCFB_CipherAbstractPolicy@CryptoPP@@VCFB_ModePolicy@2@@CryptoPP@@@CryptoPP@@@2@VCFB_CipherAbstractPolicy@2@@CryptoPP@@MBEABVCFB_CipherAbstractPolicy@2@XZ 0041dc23 f i dlltest.obj
 0001:0001cc23       ?GetPolicy@?$ConcretePolicyHolder@VEmpty@CryptoPP@@V?$AdditiveCipherTemplate@V?$AbstractPolicyHolder@UAdditiveCipherAbstractPolicy@CryptoPP@@VCTR_ModePolicy@2@@CryptoPP@@@2@UAdditiveCipherAbstractPolicy@2@@CryptoPP@@MBEABUAdditiveCipherAbstractPolicy@2@XZ 0041dc23 f i dlltest.obj
 0001:0001cc23       ?GetPolicy@?$ConcretePolicyHolder@VEmpty@CryptoPP@@V?$CFB_EncryptionTemplate@V?$AbstractPolicyHolder@VCFB_CipherAbstractPolicy@CryptoPP@@VCFB_ModePolicy@2@@CryptoPP@@@2@VCFB_CipherAbstractPolicy@2@@CryptoPP@@MBEABVCFB_CipherAbstractPolicy@2@XZ 0041dc23 f i dlltest.obj
 0001:0001cc23       ?GetPolicy@?$ConcretePolicyHolder@VEmpty@CryptoPP@@V?$AdditiveCipherTemplate@V?$AbstractPolicyHolder@UAdditiveCipherAbstractPolicy@CryptoPP@@VOFB_ModePolicy@2@@CryptoPP@@@2@UAdditiveCipherAbstractPolicy@2@@CryptoPP@@MBEABUAdditiveCipherAbstractPolicy@2@XZ 0041dc23 f i dlltest.obj
 0001:0001cc23       ?AccessPolicy@?$ConcretePolicyHolder@VEmpty@CryptoPP@@V?$CFB_RequireFullDataBlocks@V?$CFB_DecryptionTemplate@V?$AbstractPolicyHolder@VCFB_CipherAbstractPolicy@CryptoPP@@VCFB_ModePolicy@2@@CryptoPP@@@CryptoPP@@@2@VCFB_CipherAbstractPolicy@2@@CryptoPP@@MAEAAVCFB_CipherAbstractPolicy@2@XZ 0041dc23 f i dlltest.obj
 0001:0001cc23       ?GetPolicy@?$ConcretePolicyHolder@VEmpty@CryptoPP@@V?$CFB_DecryptionTemplate@V?$AbstractPolicyHolder@VCFB_CipherAbstractPolicy@CryptoPP@@VCFB_ModePolicy@2@@CryptoPP@@@2@VCFB_CipherAbstractPolicy@2@@CryptoPP@@MBEABVCFB_CipherAbstractPolicy@2@XZ 0041dc23 f i dlltest.obj
 0001:0001cc23       ?AccessPolicy@?$ConcretePolicyHolder@VEmpty@CryptoPP@@V?$CFB_DecryptionTemplate@V?$AbstractPolicyHolder@VCFB_CipherAbstractPolicy@CryptoPP@@VCFB_ModePolicy@2@@CryptoPP@@@2@VCFB_CipherAbstractPolicy@2@@CryptoPP@@MAEAAVCFB_CipherAbstractPolicy@2@XZ 0041dc23 f i dlltest.obj
 0001:0001cc23       ?GetPolicy@?$ConcretePolicyHolder@VEmpty@CryptoPP@@V?$CFB_RequireFullDataBlocks@V?$CFB_EncryptionTemplate@V?$AbstractPolicyHolder@VCFB_CipherAbstractPolicy@CryptoPP@@VCFB_ModePolicy@2@@CryptoPP@@@CryptoPP@@@2@VCFB_CipherAbstractPolicy@2@@CryptoPP@@MBEABVCFB_CipherAbstractPolicy@2@XZ 0041dc23 f i dlltest.obj
 0001:0001cc23       ?AccessPolicy@?$ConcretePolicyHolder@VEmpty@CryptoPP@@V?$AdditiveCipherTemplate@V?$AbstractPolicyHolder@UAdditiveCipherAbstractPolicy@CryptoPP@@VOFB_ModePolicy@2@@CryptoPP@@@2@UAdditiveCipherAbstractPolicy@2@@CryptoPP@@MAEAAUAdditiveCipherAbstractPolicy@2@XZ 0041dc23 f i dlltest.obj
 0001:0001cc23       ?AccessPolicy@?$ConcretePolicyHolder@VEmpty@CryptoPP@@V?$CFB_RequireFullDataBlocks@V?$CFB_EncryptionTemplate@V?$AbstractPolicyHolder@VCFB_CipherAbstractPolicy@CryptoPP@@VCFB_ModePolicy@2@@CryptoPP@@@CryptoPP@@@2@VCFB_CipherAbstractPolicy@2@@CryptoPP@@MAEAAVCFB_CipherAbstractPolicy@2@XZ 0041dc23 f i dlltest.obj
 0001:0001cc2f       ??0?$PK_FinalTemplate@V?$DL_SignerImpl@U?$DL_SignatureSchemeOptions@UDSA@CryptoPP@@UDL_Keys_DSA@2@V?$DL_Algorithm_GDSA@VInteger@CryptoPP@@@2@VDL_SignatureMessageEncodingMethod_DSA@2@VSHA1@2@@CryptoPP@@@CryptoPP@@@CryptoPP@@QAE@ABVCryptoMaterial@1@@Z 0041dc2f f i dlltest.obj
 0001:0001cc82       ?NewSignatureAccumulator@?$DL_SignerImpl@U?$DL_SignatureSchemeOptions@UDSA@CryptoPP@@UDL_Keys_DSA@2@V?$DL_Algorithm_GDSA@VInteger@CryptoPP@@@2@VDL_SignatureMessageEncodingMethod_DSA@2@VSHA1@2@@CryptoPP@@@CryptoPP@@UBEPAVPK_MessageAccumulator@2@AAVRandomNumberGenerator@2@@Z 0041dc82 f i dlltest.obj
 0001:0001ccd7       ?GetSignatureAlgorithm@?$DL_ObjectImpl@V?$DL_SignerBase@VInteger@CryptoPP@@@CryptoPP@@U?$DL_SignatureSchemeOptions@V?$DL_SS@UDL_SignatureKeys_GFP@CryptoPP@@V?$DL_Algorithm_GDSA@VInteger@CryptoPP@@@2@VDL_SignatureMessageEncodingMethod_DSA@2@VSHA1@2@H@CryptoPP@@UDL_SignatureKeys_GFP@2@V?$DL_Algorithm_GDSA@VInteger@CryptoPP@@@2@VDL_SignatureMessageEncodingMethod_DSA@2@VSHA1@2@@2@V?$DL_PrivateKey_GFP@VDL_GroupParameters_GFP@CryptoPP@@@2@@CryptoPP@@MBEABV?$DL_ElgamalLikeSignatureAlgorithm@VInteger@CryptoPP@@@2@XZ 0041dcd7 f i dlltest.obj
 0001:0001ccd7       ?GetSignatureAlgorithm@?$DL_ObjectImpl@V?$DL_VerifierBase@VInteger@CryptoPP@@@CryptoPP@@U?$DL_SignatureSchemeOptions@V?$DL_SS@UDL_SignatureKeys_GFP@CryptoPP@@V?$DL_Algorithm_GDSA@VInteger@CryptoPP@@@2@VDL_SignatureMessageEncodingMethod_DSA@2@VSHA1@2@H@CryptoPP@@UDL_SignatureKeys_GFP@2@V?$DL_Algorithm_GDSA@VInteger@CryptoPP@@@2@VDL_SignatureMessageEncodingMethod_DSA@2@VSHA1@2@@2@V?$DL_PublicKey_GFP@VDL_GroupParameters_GFP@CryptoPP@@@2@@CryptoPP@@MBEABV?$DL_ElgamalLikeSignatureAlgorithm@VInteger@CryptoPP@@@2@XZ 0041dcd7 f i dlltest.obj
 0001:0001ccd7       ?GetSignatureAlgorithm@?$DL_ObjectImpl@V?$DL_VerifierBase@VInteger@CryptoPP@@@CryptoPP@@U?$DL_SignatureSchemeOptions@UDSA@CryptoPP@@UDL_Keys_DSA@2@V?$DL_Algorithm_GDSA@VInteger@CryptoPP@@@2@VDL_SignatureMessageEncodingMethod_DSA@2@VSHA1@2@@2@V?$DL_PublicKey_GFP@VDL_GroupParameters_DSA@CryptoPP@@@2@@CryptoPP@@MBEABV?$DL_ElgamalLikeSignatureAlgorithm@VInteger@CryptoPP@@@2@XZ 0041dcd7 f i dlltest.obj
 0001:0001ccd7       ?GetSignatureAlgorithm@?$DL_ObjectImpl@V?$DL_SignerBase@VInteger@CryptoPP@@@CryptoPP@@U?$DL_SignatureSchemeOptions@UDSA@CryptoPP@@UDL_Keys_DSA@2@V?$DL_Algorithm_GDSA@VInteger@CryptoPP@@@2@VDL_SignatureMessageEncodingMethod_DSA@2@VSHA1@2@@2@V?$DL_PrivateKey_WithSignaturePairwiseConsistencyTest@V?$DL_PrivateKey_GFP@VDL_GroupParameters_DSA@CryptoPP@@@CryptoPP@@UDSA@2@@2@@CryptoPP@@MBEABV?$DL_ElgamalLikeSignatureAlgorithm@VInteger@CryptoPP@@@2@XZ 0041dcd7 f i dlltest.obj
 0001:0001cced       ?AlgorithmName@?$AlgorithmImpl@V?$DL_SignerBase@VInteger@CryptoPP@@@CryptoPP@@UDSA@2@@CryptoPP@@UBE?AV?$basic_string@DU?$char_traits@D@std@@V?$allocator@D@2@@std@@XZ 0041dced f i dlltest.obj
 0001:0001cced       ?AlgorithmName@?$AlgorithmImpl@V?$DL_VerifierBase@VInteger@CryptoPP@@@CryptoPP@@UDSA@2@@CryptoPP@@UBE?AV?$basic_string@DU?$char_traits@D@std@@V?$allocator@D@2@@std@@XZ 0041dced f i dlltest.obj
 0001:0001cd25       ?SignAndRestart@?$DL_SignerBase@VInteger@CryptoPP@@@CryptoPP@@UBEIAAVRandomNumberGenerator@2@AAVPK_MessageAccumulator@2@PAE_N@Z 0041dd25 f i dlltest.obj
 0001:0001cfda       ?RecoverablePartFirst@?$DL_SignatureSchemeBase@VPK_Signer@CryptoPP@@V?$DL_PrivateKey@UEC2NPoint@CryptoPP@@@2@@CryptoPP@@UBE_NXZ 0041dfda f i dlltest.obj
 0001:0001cfda       ?RecoverablePartFirst@?$DL_SignatureSchemeBase@VPK_Signer@CryptoPP@@V?$DL_PrivateKey@UECPPoint@CryptoPP@@@2@@CryptoPP@@UBE_NXZ 0041dfda f i dlltest.obj
 0001:0001cfda       ?RecoverablePartFirst@?$DL_SignatureSchemeBase@VPK_Signer@CryptoPP@@V?$DL_PrivateKey@VInteger@CryptoPP@@@2@@CryptoPP@@UBE_NXZ 0041dfda f i dlltest.obj
 0001:0001cfe6       ??0?$PK_FinalTemplate@V?$DL_VerifierImpl@U?$DL_SignatureSchemeOptions@UDSA@CryptoPP@@UDL_Keys_DSA@2@V?$DL_Algorithm_GDSA@VInteger@CryptoPP@@@2@VDL_SignatureMessageEncodingMethod_DSA@2@VSHA1@2@@CryptoPP@@@CryptoPP@@@CryptoPP@@QAE@ABVCryptoMaterial@1@@Z 0041dfe6 f i dlltest.obj
 0001:0001d02a       ??0?$CipherModeFinalTemplate_CipherHolder@V?$BlockCipherFinal@$0A@VBase@DES_EDE3@CryptoPP@@@CryptoPP@@VECB_OneWay@2@@CryptoPP@@QAE@XZ 0041e02a f i dlltest.obj
 0001:0001d097       ?OptimalDataAlignment@CipherModeBase@CryptoPP@@UBEIXZ 0041e097 f i dlltest.obj
 0001:0001d0a3       ??0CipherModeBase@CryptoPP@@IAE@XZ 0041e0a3 f i dlltest.obj
 0001:0001d0e6       ?SetFeedbackSize@CipherModeBase@CryptoPP@@MAEXI@Z 0041e0e6 f i dlltest.obj
 0001:0001d15e       ?length@pcharNode@@UBEHXZ  0041e15e f i dlltest.obj
 0001:0001d15e       ?GetAutoSignalPropagation@?$AutoSignaling@V?$InputRejecting@VBufferedTransformation@CryptoPP@@@CryptoPP@@@CryptoPP@@UBEHXZ 0041e15e f i dlltest.obj
 0001:0001d15e       ?length@DNameStatusNode@@UBEHXZ 0041e15e f i dlltest.obj
 0001:0001d15e       ?MandatoryBlockSize@BlockOrientedCipherModeBase@CryptoPP@@UBEIXZ 0041e15e f i dlltest.obj
 0001:0001d162       ?IsForwardTransformation@BlockOrientedCipherModeBase@CryptoPP@@UBE_NXZ 0041e162 f i dlltest.obj
 0001:0001d16e       ?Resynchronize@BlockOrientedCipherModeBase@CryptoPP@@UAEXPBEH@Z 0041e16e f i dlltest.obj
 0001:0001d193       ?SetKey@ECB_OneWay@CryptoPP@@UAEXPBEIABVNameValuePairs@2@@Z 0041e193 f i dlltest.obj
 0001:0001d1b5       ?OptimalBlockSize@ECB_OneWay@CryptoPP@@UBEIXZ 0041e1b5 f i dlltest.obj
 0001:0001d1c9       ?AlgorithmName@?$AlgorithmImpl@VECB_OneWay@CryptoPP@@V?$CipherModeFinalTemplate_CipherHolder@V?$BlockCipherFinal@$0A@VBase@DES_EDE3@CryptoPP@@@CryptoPP@@VECB_OneWay@2@@2@@CryptoPP@@UBE?AV?$basic_string@DU?$char_traits@D@std@@V?$allocator@D@2@@std@@XZ 0041e1c9 f i dlltest.obj
 0001:0001d1e1       ?ConvertIn@ModExpPrecomputation@CryptoPP@@UBE?AVInteger@2@ABV32@@Z 0041e1e1 f i dlltest.obj
 0001:0001d1fe       ?ConvertOut@ModExpPrecomputation@CryptoPP@@UBE?AVInteger@2@ABV32@@Z 0041e1fe f i dlltest.obj
 0001:0001d21b       ?GetGroup@ModExpPrecomputation@CryptoPP@@UBEABV?$AbstractGroup@VInteger@CryptoPP@@@2@XZ 0041e21b f i dlltest.obj
 0001:0001d223       ?DEREncodeElement@DL_GroupPrecomputation_LUC@CryptoPP@@UBEXAAVBufferedTransformation@2@ABVInteger@2@@Z 0041e223 f i dlltest.obj
 0001:0001d223       ?DEREncodeElement@ModExpPrecomputation@CryptoPP@@UBEXAAVBufferedTransformation@2@ABVInteger@2@@Z 0041e223 f i dlltest.obj
 0001:0001d233       ?SetModulus@ModExpPrecomputation@CryptoPP@@QAEXABVInteger@2@@Z 0041e233 f i dlltest.obj
 0001:0001d289       ??1CFB_ModePolicy@CryptoPP@@UAE@XZ 0041e289 f i dlltest.obj
 0001:0001d2c2       ??_E?$AutoSeededX917RNG@VRijndael@CryptoPP@@@CryptoPP@@UAEPAXI@Z 0041e2c2 f i dlltest.obj
 0001:0001d2c2       ??_G?$AutoSeededX917RNG@VRijndael@CryptoPP@@@CryptoPP@@UAEPAXI@Z 0041e2c2 f i dlltest.obj
 0001:0001d2de       ??_E?$CipherModeFinalTemplate_CipherHolder@V?$BlockCipherFinal@$0A@VBase@DES_EDE3@CryptoPP@@@CryptoPP@@V?$ConcretePolicyHolder@VEmpty@CryptoPP@@V?$CFB_RequireFullDataBlocks@V?$CFB_EncryptionTemplate@V?$AbstractPolicyHolder@VCFB_CipherAbstractPolicy@CryptoPP@@VCFB_ModePolicy@2@@CryptoPP@@@CryptoPP@@@2@VCFB_CipherAbstractPolicy@2@@2@@CryptoPP@@UAEPAXI@Z 0041e2de f i dlltest.obj
 0001:0001d2de       ??_G?$CipherModeFinalTemplate_CipherHolder@V?$BlockCipherFinal@$0A@VBase@DES_EDE3@CryptoPP@@@CryptoPP@@V?$ConcretePolicyHolder@VEmpty@CryptoPP@@V?$CFB_RequireFullDataBlocks@V?$CFB_EncryptionTemplate@V?$AbstractPolicyHolder@VCFB_CipherAbstractPolicy@CryptoPP@@VCFB_ModePolicy@2@@CryptoPP@@@CryptoPP@@@2@VCFB_CipherAbstractPolicy@2@@2@@CryptoPP@@UAEPAXI@Z 0041e2de f i dlltest.obj
 0001:0001d2fa       ?GetGroupOrder@DL_GroupParameters_IntegerBased@CryptoPP@@UBE?AVInteger@2@XZ 0041e2fa f i dlltest.obj
 0001:0001d3b9       ??_G?$CipherModeFinalTemplate_CipherHolder@V?$BlockCipherFinal@$0A@VBase@DES_EDE3@CryptoPP@@@CryptoPP@@V?$ConcretePolicyHolder@VEmpty@CryptoPP@@V?$CFB_RequireFullDataBlocks@V?$CFB_DecryptionTemplate@V?$AbstractPolicyHolder@VCFB_CipherAbstractPolicy@CryptoPP@@VCFB_ModePolicy@2@@CryptoPP@@@CryptoPP@@@2@VCFB_CipherAbstractPolicy@2@@2@@CryptoPP@@UAEPAXI@Z 0041e3b9 f i dlltest.obj
 0001:0001d3b9       ??_E?$CipherModeFinalTemplate_CipherHolder@V?$BlockCipherFinal@$0A@VBase@DES_EDE3@CryptoPP@@@CryptoPP@@V?$ConcretePolicyHolder@VEmpty@CryptoPP@@V?$CFB_RequireFullDataBlocks@V?$CFB_DecryptionTemplate@V?$AbstractPolicyHolder@VCFB_CipherAbstractPolicy@CryptoPP@@VCFB_ModePolicy@2@@CryptoPP@@@CryptoPP@@@2@VCFB_CipherAbstractPolicy@2@@2@@CryptoPP@@UAEPAXI@Z 0041e3b9 f i dlltest.obj
 0001:0001d3d5       ?FastSubgroupCheckAvailable@DL_GroupParameters_IntegerBased@CryptoPP@@UBE_NXZ 0041e3d5 f i dlltest.obj
 0001:0001d441       ?EncodeElement@DL_GroupParameters_IntegerBased@CryptoPP@@UBEX_NABVInteger@2@PAE@Z 0041e441 f i dlltest.obj
 0001:0001d464       ?GetEncodedElementSize@DL_GroupParameters_IntegerBased@CryptoPP@@UBEI_N@Z 0041e464 f i dlltest.obj
 0001:0001d477       ??0?$DL_VerifierImpl@U?$DL_SignatureSchemeOptions@UDSA@CryptoPP@@UDL_Keys_DSA@2@V?$DL_Algorithm_GDSA@VInteger@CryptoPP@@@2@VDL_SignatureMessageEncodingMethod_DSA@2@VSHA1@2@@CryptoPP@@@CryptoPP@@QAE@XZ 0041e477 f i dlltest.obj
 0001:0001d49e       ?NewVerificationAccumulator@?$DL_VerifierImpl@U?$DL_SignatureSchemeOptions@UDSA@CryptoPP@@UDL_Keys_DSA@2@V?$DL_Algorithm_GDSA@VInteger@CryptoPP@@@2@VDL_SignatureMessageEncodingMethod_DSA@2@VSHA1@2@@CryptoPP@@@CryptoPP@@UBEPAVPK_MessageAccumulator@2@XZ 0041e49e f i dlltest.obj
 0001:0001d4d3       ?VerifyAndRestart@?$DL_VerifierBase@VInteger@CryptoPP@@@CryptoPP@@UBE_NAAVPK_MessageAccumulator@2@@Z 0041e4d3 f i dlltest.obj
 0001:0001d61b       ?RecoverAndRestart@?$DL_VerifierBase@VInteger@CryptoPP@@@CryptoPP@@UBE?AUDecodingResult@2@PAEAAVPK_MessageAccumulator@2@@Z 0041e61b f i dlltest.obj
 0001:0001d80e       ?AllowNonrecoverablePart@?$DL_SignatureSchemeBase@VPK_Verifier@CryptoPP@@V?$DL_PublicKey@UEC2NPoint@CryptoPP@@@2@@CryptoPP@@UBE_NXZ 0041e80e f i dlltest.obj
 0001:0001d80e       ?AllowNonrecoverablePart@?$DL_SignatureSchemeBase@VPK_Verifier@CryptoPP@@V?$DL_PublicKey@VInteger@CryptoPP@@@2@@CryptoPP@@UBE_NXZ 0041e80e f i dlltest.obj
 0001:0001d80e       ?AllowNonrecoverablePart@?$DL_SignatureSchemeBase@VPK_Verifier@CryptoPP@@V?$DL_PublicKey@UECPPoint@CryptoPP@@@2@@CryptoPP@@UBE_NXZ 0041e80e f i dlltest.obj
 0001:0001d81a       ?RecoverablePartFirst@?$DL_SignatureSchemeBase@VPK_Verifier@CryptoPP@@V?$DL_PublicKey@UECPPoint@CryptoPP@@@2@@CryptoPP@@UBE_NXZ 0041e81a f i dlltest.obj
 0001:0001d81a       ?RecoverablePartFirst@?$DL_SignatureSchemeBase@VPK_Verifier@CryptoPP@@V?$DL_PublicKey@VInteger@CryptoPP@@@2@@CryptoPP@@UBE_NXZ 0041e81a f i dlltest.obj
 0001:0001d81a       ?RecoverablePartFirst@?$DL_SignatureSchemeBase@VPK_Verifier@CryptoPP@@V?$DL_PublicKey@UEC2NPoint@CryptoPP@@@2@@CryptoPP@@UBE_NXZ 0041e81a f i dlltest.obj
 0001:0001d826       ?IsIdentity@DL_GroupParameters_GFP@CryptoPP@@UBE_NABVInteger@2@@Z 0041e826 f i dlltest.obj
 0001:0001d83d       ??_E?$CipherModeFinalTemplate_CipherHolder@V?$BlockCipherFinal@$0A@VBase@DES_EDE3@CryptoPP@@@CryptoPP@@VECB_OneWay@2@@CryptoPP@@UAEPAXI@Z 0041e83d f i dlltest.obj
 0001:0001d83d       ??_G?$CipherModeFinalTemplate_CipherHolder@V?$BlockCipherFinal@$0A@VBase@DES_EDE3@CryptoPP@@@CryptoPP@@VECB_OneWay@2@@CryptoPP@@UAEPAXI@Z 0041e83d f i dlltest.obj
 0001:0001d859       ??1?$ModePolicyCommonTemplate@VCFB_CipherAbstractPolicy@CryptoPP@@@CryptoPP@@UAE@XZ 0041e859 f i dlltest.obj
 0001:0001d87f       ??0?$ConcretePolicyHolder@VEmpty@CryptoPP@@V?$CFB_RequireFullDataBlocks@V?$CFB_EncryptionTemplate@V?$AbstractPolicyHolder@VCFB_CipherAbstractPolicy@CryptoPP@@VCFB_ModePolicy@2@@CryptoPP@@@CryptoPP@@@2@VCFB_CipherAbstractPolicy@2@@CryptoPP@@QAE@XZ 0041e87f f i dlltest.obj
 0001:0001d89f       ??0?$ConcretePolicyHolder@VEmpty@CryptoPP@@V?$CFB_RequireFullDataBlocks@V?$CFB_DecryptionTemplate@V?$AbstractPolicyHolder@VCFB_CipherAbstractPolicy@CryptoPP@@VCFB_ModePolicy@2@@CryptoPP@@@CryptoPP@@@2@VCFB_CipherAbstractPolicy@2@@CryptoPP@@QAE@XZ 0041e89f f i dlltest.obj
 0001:0001d8bf       ??_G?$DL_SignerImpl@U?$DL_SignatureSchemeOptions@UDSA@CryptoPP@@UDL_Keys_DSA@2@V?$DL_Algorithm_GDSA@VInteger@CryptoPP@@@2@VDL_SignatureMessageEncodingMethod_DSA@2@VSHA1@2@@CryptoPP@@@CryptoPP@@UAEPAXI@Z 0041e8bf f i dlltest.obj
 0001:0001d8bf       ??_E?$DL_SignerImpl@U?$DL_SignatureSchemeOptions@UDSA@CryptoPP@@UDL_Keys_DSA@2@V?$DL_Algorithm_GDSA@VInteger@CryptoPP@@@2@VDL_SignatureMessageEncodingMethod_DSA@2@VSHA1@2@@CryptoPP@@@CryptoPP@@UAEPAXI@Z 0041e8bf f i dlltest.obj
 0001:0001d8db       ??_E?$DL_VerifierImpl@U?$DL_SignatureSchemeOptions@UDSA@CryptoPP@@UDL_Keys_DSA@2@V?$DL_Algorithm_GDSA@VInteger@CryptoPP@@@2@VDL_SignatureMessageEncodingMethod_DSA@2@VSHA1@2@@CryptoPP@@@CryptoPP@@UAEPAXI@Z 0041e8db f i dlltest.obj
 0001:0001d8db       ??_G?$DL_VerifierImpl@U?$DL_SignatureSchemeOptions@UDSA@CryptoPP@@UDL_Keys_DSA@2@V?$DL_Algorithm_GDSA@VInteger@CryptoPP@@@2@VDL_SignatureMessageEncodingMethod_DSA@2@VSHA1@2@@CryptoPP@@@CryptoPP@@UAEPAXI@Z 0041e8db f i dlltest.obj
 0001:0001d8f7       ??0Base@Rijndael@CryptoPP@@QAE@XZ 0041e8f7 f i dlltest.obj
 0001:0001d936       ??_E?$ConcretePolicyHolder@VEmpty@CryptoPP@@V?$CFB_RequireFullDataBlocks@V?$CFB_EncryptionTemplate@V?$AbstractPolicyHolder@VCFB_CipherAbstractPolicy@CryptoPP@@VCFB_ModePolicy@2@@CryptoPP@@@CryptoPP@@@2@VCFB_CipherAbstractPolicy@2@@CryptoPP@@UAEPAXI@Z 0041e936 f i dlltest.obj
 0001:0001d936       ??_G?$ConcretePolicyHolder@VEmpty@CryptoPP@@V?$CFB_RequireFullDataBlocks@V?$CFB_EncryptionTemplate@V?$AbstractPolicyHolder@VCFB_CipherAbstractPolicy@CryptoPP@@VCFB_ModePolicy@2@@CryptoPP@@@CryptoPP@@@2@VCFB_CipherAbstractPolicy@2@@CryptoPP@@UAEPAXI@Z 0041e936 f i dlltest.obj
 0001:0001d952       ??1?$ConcretePolicyHolder@VEmpty@CryptoPP@@V?$CFB_RequireFullDataBlocks@V?$CFB_EncryptionTemplate@V?$AbstractPolicyHolder@VCFB_CipherAbstractPolicy@CryptoPP@@VCFB_ModePolicy@2@@CryptoPP@@@CryptoPP@@@2@VCFB_CipherAbstractPolicy@2@@CryptoPP@@UAE@XZ 0041e952 f i dlltest.obj
 0001:0001d987       ??0?$CFB_RequireFullDataBlocks@V?$CFB_EncryptionTemplate@V?$AbstractPolicyHolder@VCFB_CipherAbstractPolicy@CryptoPP@@VCFB_ModePolicy@2@@CryptoPP@@@CryptoPP@@@CryptoPP@@QAE@XZ 0041e987 f i dlltest.obj
 0001:0001d9ce       ??0Base@DES_EDE3@CryptoPP@@QAE@ABV012@@Z 0041e9ce f i dlltest.obj
 0001:0001da47       ??_E?$ConcretePolicyHolder@VEmpty@CryptoPP@@V?$CFB_RequireFullDataBlocks@V?$CFB_DecryptionTemplate@V?$AbstractPolicyHolder@VCFB_CipherAbstractPolicy@CryptoPP@@VCFB_ModePolicy@2@@CryptoPP@@@CryptoPP@@@2@VCFB_CipherAbstractPolicy@2@@CryptoPP@@UAEPAXI@Z 0041ea47 f i dlltest.obj
 0001:0001da47       ??_G?$ConcretePolicyHolder@VEmpty@CryptoPP@@V?$CFB_RequireFullDataBlocks@V?$CFB_DecryptionTemplate@V?$AbstractPolicyHolder@VCFB_CipherAbstractPolicy@CryptoPP@@VCFB_ModePolicy@2@@CryptoPP@@@CryptoPP@@@2@VCFB_CipherAbstractPolicy@2@@CryptoPP@@UAEPAXI@Z 0041ea47 f i dlltest.obj
 0001:0001da63       ??1?$ConcretePolicyHolder@VEmpty@CryptoPP@@V?$CFB_RequireFullDataBlocks@V?$CFB_DecryptionTemplate@V?$AbstractPolicyHolder@VCFB_CipherAbstractPolicy@CryptoPP@@VCFB_ModePolicy@2@@CryptoPP@@@CryptoPP@@@2@VCFB_CipherAbstractPolicy@2@@CryptoPP@@UAE@XZ 0041ea63 f i dlltest.obj
 0001:0001da98       ??0?$CFB_RequireFullDataBlocks@V?$CFB_DecryptionTemplate@V?$AbstractPolicyHolder@VCFB_CipherAbstractPolicy@CryptoPP@@VCFB_ModePolicy@2@@CryptoPP@@@CryptoPP@@@CryptoPP@@QAE@XZ 0041ea98 f i dlltest.obj
 0001:0001dadf       ??0?$DL_ObjectImplBase@V?$DL_SignerBase@VInteger@CryptoPP@@@CryptoPP@@U?$DL_SignatureSchemeOptions@UDSA@CryptoPP@@UDL_Keys_DSA@2@V?$DL_Algorithm_GDSA@VInteger@CryptoPP@@@2@VDL_SignatureMessageEncodingMethod_DSA@2@VSHA1@2@@2@V?$DL_PrivateKey_WithSignaturePairwiseConsistencyTest@V?$DL_PrivateKey_GFP@VDL_GroupParameters_DSA@CryptoPP@@@CryptoPP@@UDSA@2@@2@@CryptoPP@@QAE@XZ 0041eadf f i dlltest.obj
 0001:0001db1e       ??0?$DL_ObjectImplBase@V?$DL_VerifierBase@VInteger@CryptoPP@@@CryptoPP@@U?$DL_SignatureSchemeOptions@UDSA@CryptoPP@@UDL_Keys_DSA@2@V?$DL_Algorithm_GDSA@VInteger@CryptoPP@@@2@VDL_SignatureMessageEncodingMethod_DSA@2@VSHA1@2@@2@V?$DL_PublicKey_GFP@VDL_GroupParameters_DSA@CryptoPP@@@2@@CryptoPP@@QAE@XZ 0041eb1e f i dlltest.obj
 0001:0001dba2       ??0Base@Rijndael@CryptoPP@@QAE@ABV012@@Z 0041eba2 f i dlltest.obj
 0001:0001dbfe       ??_G?$CFB_RequireFullDataBlocks@V?$CFB_EncryptionTemplate@V?$AbstractPolicyHolder@VCFB_CipherAbstractPolicy@CryptoPP@@VCFB_ModePolicy@2@@CryptoPP@@@CryptoPP@@@CryptoPP@@UAEPAXI@Z 0041ebfe f i dlltest.obj
 0001:0001dbfe       ??_E?$CFB_RequireFullDataBlocks@V?$CFB_EncryptionTemplate@V?$AbstractPolicyHolder@VCFB_CipherAbstractPolicy@CryptoPP@@VCFB_ModePolicy@2@@CryptoPP@@@CryptoPP@@@CryptoPP@@UAEPAXI@Z 0041ebfe f i dlltest.obj
 0001:0001dc1a       ??1?$CFB_RequireFullDataBlocks@V?$CFB_EncryptionTemplate@V?$AbstractPolicyHolder@VCFB_CipherAbstractPolicy@CryptoPP@@VCFB_ModePolicy@2@@CryptoPP@@@CryptoPP@@@CryptoPP@@UAE@XZ 0041ec1a f i dlltest.obj
 0001:0001dc4f       ??_E?$CFB_RequireFullDataBlocks@V?$CFB_DecryptionTemplate@V?$AbstractPolicyHolder@VCFB_CipherAbstractPolicy@CryptoPP@@VCFB_ModePolicy@2@@CryptoPP@@@CryptoPP@@@CryptoPP@@UAEPAXI@Z 0041ec4f f i dlltest.obj
 0001:0001dc4f       ??_G?$CFB_RequireFullDataBlocks@V?$CFB_DecryptionTemplate@V?$AbstractPolicyHolder@VCFB_CipherAbstractPolicy@CryptoPP@@VCFB_ModePolicy@2@@CryptoPP@@@CryptoPP@@@CryptoPP@@UAEPAXI@Z 0041ec4f f i dlltest.obj
 0001:0001dc6b       ??1?$CFB_RequireFullDataBlocks@V?$CFB_DecryptionTemplate@V?$AbstractPolicyHolder@VCFB_CipherAbstractPolicy@CryptoPP@@VCFB_ModePolicy@2@@CryptoPP@@@CryptoPP@@@CryptoPP@@UAE@XZ 0041ec6b f i dlltest.obj
 0001:0001dca0       ??0BlockCipher@CryptoPP@@QAE@ABV01@@Z 0041eca0 f i dlltest.obj
 0001:0001dcba       ??0?$SecBlock@IV?$FixedSizeAllocatorWithCleanup@I$0DM@V?$NullAllocator@I@CryptoPP@@$00@CryptoPP@@@CryptoPP@@QAE@ABV01@@Z 0041ecba f i dlltest.obj
 0001:0001dd0e       ??0?$SecBlock@IV?$FixedSizeAllocatorWithCleanup@I$0CA@V?$NullAllocator@I@CryptoPP@@$0A@@CryptoPP@@@CryptoPP@@QAE@ABV01@@Z 0041ed0e f i dlltest.obj
 0001:0001dd62       ?StaticAlgorithmName@?$CipherModeFinalTemplate_CipherHolder@V?$BlockCipherFinal@$0A@VBase@DES_EDE3@CryptoPP@@@CryptoPP@@V?$ConcretePolicyHolder@VEmpty@CryptoPP@@V?$CFB_RequireFullDataBlocks@V?$CFB_EncryptionTemplate@V?$AbstractPolicyHolder@VCFB_CipherAbstractPolicy@CryptoPP@@VCFB_ModePolicy@2@@CryptoPP@@@CryptoPP@@@2@VCFB_CipherAbstractPolicy@2@@2@@CryptoPP@@SA?AV?$basic_string@DU?$char_traits@D@std@@V?$allocator@D@2@@std@@XZ 0041ed62 f i dlltest.obj
 0001:0001ddc9       ?StaticAlgorithmName@?$CipherModeFinalTemplate_CipherHolder@V?$BlockCipherFinal@$0A@VBase@DES_EDE3@CryptoPP@@@CryptoPP@@V?$ConcretePolicyHolder@VEmpty@CryptoPP@@V?$CFB_RequireFullDataBlocks@V?$CFB_DecryptionTemplate@V?$AbstractPolicyHolder@VCFB_CipherAbstractPolicy@CryptoPP@@VCFB_ModePolicy@2@@CryptoPP@@@CryptoPP@@@2@VCFB_CipherAbstractPolicy@2@@2@@CryptoPP@@SA?AV?$basic_string@DU?$char_traits@D@std@@V?$allocator@D@2@@std@@XZ 0041edc9 f i dlltest.obj
 0001:0001de30       ?MessageRepresentativeBitLength@?$DL_SignatureSchemeBase@VPK_Signer@CryptoPP@@V?$DL_PrivateKey@UEC2NPoint@CryptoPP@@@2@@CryptoPP@@IBEIXZ 0041ee30 f i dlltest.obj
 0001:0001de30       ?MessageRepresentativeBitLength@?$DL_SignatureSchemeBase@VPK_Signer@CryptoPP@@V?$DL_PrivateKey@UECPPoint@CryptoPP@@@2@@CryptoPP@@IBEIXZ 0041ee30 f i dlltest.obj
 0001:0001de30       ?MessageRepresentativeBitLength@?$DL_SignatureSchemeBase@VPK_Verifier@CryptoPP@@V?$DL_PublicKey@UECPPoint@CryptoPP@@@2@@CryptoPP@@IBEIXZ 0041ee30 f i dlltest.obj
 0001:0001de30       ?MessageRepresentativeBitLength@?$DL_SignatureSchemeBase@VPK_Verifier@CryptoPP@@V?$DL_PublicKey@VInteger@CryptoPP@@@2@@CryptoPP@@IBEIXZ 0041ee30 f i dlltest.obj
 0001:0001de30       ?MessageRepresentativeBitLength@?$DL_SignatureSchemeBase@VPK_Signer@CryptoPP@@V?$DL_PrivateKey@VInteger@CryptoPP@@@2@@CryptoPP@@IBEIXZ 0041ee30 f i dlltest.obj
 0001:0001de30       ?MessageRepresentativeBitLength@?$DL_SignatureSchemeBase@VPK_Verifier@CryptoPP@@V?$DL_PublicKey@UEC2NPoint@CryptoPP@@@2@@CryptoPP@@IBEIXZ 0041ee30 f i dlltest.obj
 0001:0001de4d       ??0?$PK_FinalTemplate@V?$DL_VerifierImpl@U?$DL_SignatureSchemeOptions@UDSA@CryptoPP@@UDL_Keys_DSA@2@V?$DL_Algorithm_GDSA@VInteger@CryptoPP@@@2@VDL_SignatureMessageEncodingMethod_DSA@2@VSHA1@2@@CryptoPP@@@CryptoPP@@@CryptoPP@@QAE@ABVAsymmetricAlgorithm@1@@Z 0041ee4d f i dlltest.obj
 0001:0001de9f       ?StaticAlgorithmName@?$CipherModeFinalTemplate_CipherHolder@V?$BlockCipherFinal@$0A@VBase@DES_EDE3@CryptoPP@@@CryptoPP@@VECB_OneWay@2@@CryptoPP@@SA?AV?$basic_string@DU?$char_traits@D@std@@V?$allocator@D@2@@std@@XZ 0041ee9f f i dlltest.obj
 0001:0001df06       ?Assignable@?$GetValueHelperClass@V?$DL_PublicKeyImpl@VDL_GroupParameters_DSA@CryptoPP@@@CryptoPP@@V?$DL_PublicKey@VInteger@CryptoPP@@@2@@CryptoPP@@QAEAAV12@XZ 0041ef06 f i dlltest.obj
 0001:0001dfb5       ?Assignable@?$GetValueHelperClass@V?$DL_PrivateKeyImpl@VDL_GroupParameters_DSA@CryptoPP@@@CryptoPP@@V?$DL_PrivateKey@VInteger@CryptoPP@@@2@@CryptoPP@@QAEAAV12@XZ 0041efb5 f i dlltest.obj
 0001:0001e064       ??4?$DL_FixedBasePrecomputationImpl@VInteger@CryptoPP@@@CryptoPP@@QAEAAV01@ABV01@@Z 0041f064 f i dlltest.obj
 0001:0001e09d       ??4?$vector@VInteger@CryptoPP@@V?$allocator@VInteger@CryptoPP@@@std@@@std@@QAEAAV01@ABV01@@Z 0041f09d f i dlltest.obj
 0001:0001e279       ??0Base@DES_EDE3@CryptoPP@@QAE@XZ 0041f279 f i dlltest.obj
 0001:0001e2d8       ??4?$DL_KeyImpl@VX509PublicKey@CryptoPP@@VDL_GroupParameters_DSA@2@VOID@2@@CryptoPP@@QAEAAV01@ABV01@@Z 0041f2d8 f i dlltest.obj
 0001:0001e2d8       ??4?$DL_KeyImpl@VX509PublicKey@CryptoPP@@VDL_GroupParameters_GFP_DefaultSafePrime@2@VOID@2@@CryptoPP@@QAEAAV01@ABV01@@Z 0041f2d8 f i dlltest.obj
 0001:0001e2f9       ??4?$DL_KeyImpl@VPKCS8PrivateKey@CryptoPP@@VDL_GroupParameters_GFP_DefaultSafePrime@2@VOID@2@@CryptoPP@@QAEAAV01@ABV01@@Z 0041f2f9 f i dlltest.obj
 0001:0001e2f9       ??4?$DL_KeyImpl@VPKCS8PrivateKey@CryptoPP@@VDL_GroupParameters_DSA@2@VOID@2@@CryptoPP@@QAEAAV01@ABV01@@Z 0041f2f9 f i dlltest.obj
 0001:0001e31a       ??4DL_GroupParameters_GFP_DefaultSafePrime@CryptoPP@@QAEAAV01@ABV01@@Z 0041f31a f i dlltest.obj
 0001:0001e31a       ??4DL_GroupParameters_DSA@CryptoPP@@QAEAAV01@ABV01@@Z 0041f31a f i dlltest.obj
 0001:0001e32c       ??4DL_GroupParameters_GFP@CryptoPP@@QAEAAV01@ABV01@@Z 0041f32c f i dlltest.obj
 0001:0001e33e       ??4?$DL_GroupParameters_IntegerBasedImpl@VModExpPrecomputation@CryptoPP@@V?$DL_FixedBasePrecomputationImpl@VInteger@CryptoPP@@@2@@CryptoPP@@QAEAAV01@ABV01@@Z 0041f33e f i dlltest.obj
 0001:0001e350       ??4?$DL_GroupParametersImpl@VModExpPrecomputation@CryptoPP@@V?$DL_FixedBasePrecomputationImpl@VInteger@CryptoPP@@@2@VDL_GroupParameters_IntegerBased@2@@CryptoPP@@QAEAAV01@ABV01@@Z 0041f350 f i dlltest.obj
 0001:0001e37d       ??4DL_GroupParameters_IntegerBased@CryptoPP@@QAEAAV01@ABV01@@Z 0041f37d f i dlltest.obj
 0001:0001e39e       ??4?$ASN1CryptoMaterial@V?$DL_GroupParameters@VInteger@CryptoPP@@@CryptoPP@@@CryptoPP@@QAEAAV01@ABV01@@Z 0041f39e f i dlltest.obj
 0001:0001e3bf       ??0?$SecBlock@IV?$FixedSizeAllocatorWithCleanup@I$0DM@V?$NullAllocator@I@CryptoPP@@$00@CryptoPP@@@CryptoPP@@QAE@I@Z 0041f3bf f i dlltest.obj
 0001:0001e3ef       ?StaticAlgorithmName@?$AlgorithmImpl@V?$SimpleKeyingInterfaceImpl@V?$TwoBases@VBlockCipher@CryptoPP@@UDES_EDE3_Info@2@@CryptoPP@@V12@@CryptoPP@@V12@@CryptoPP@@SA?AV?$basic_string@DU?$char_traits@D@std@@V?$allocator@D@2@@std@@XZ 0041f3ef f i dlltest.obj
 0001:0001e425       ??0?$SecBlock@IV?$FixedSizeAllocatorWithCleanup@I$0CA@V?$NullAllocator@I@CryptoPP@@$0A@@CryptoPP@@@CryptoPP@@QAE@I@Z 0041f425 f i dlltest.obj
 0001:0001e455       ??1?$member_ptr@VRandomNumberGenerator@CryptoPP@@@CryptoPP@@QAE@XZ 0041f455 f i dlltest.obj
 0001:0001e455       ??1?$member_ptr@VBlockCipher@CryptoPP@@@CryptoPP@@QAE@XZ 0041f455 f i dlltest.obj
 0001:0001e455       ??1?$member_ptr@VECP@CryptoPP@@@CryptoPP@@QAE@XZ 0041f455 f i dlltest.obj
 0001:0001e455       ??1?$member_ptr@VHashTransformation@CryptoPP@@@CryptoPP@@QAE@XZ 0041f455 f i dlltest.obj
 0001:0001e455       ??1?$member_ptr@V?$SymmetricCipherFinal@VARC4_Base@Weak1@CryptoPP@@V123@@CryptoPP@@@CryptoPP@@QAE@XZ 0041f455 f i dlltest.obj
 0001:0001e455       ??1?$member_ptr@VBufferedTransformation@CryptoPP@@@CryptoPP@@QAE@XZ 0041f455 f i dlltest.obj
 0001:0001e455       ??1?$member_ptr@V?$HMAC@VSHA1@CryptoPP@@@CryptoPP@@@CryptoPP@@QAE@XZ 0041f455 f i dlltest.obj
 0001:0001e455       ??1?$member_ptr@VSymmetricCipher@CryptoPP@@@CryptoPP@@QAE@XZ 0041f455 f i dlltest.obj
 0001:0001e455       ??1?$member_ptr@VHashFilter@CryptoPP@@@CryptoPP@@QAE@XZ 0041f455 f i dlltest.obj
 0001:0001e455       ??1?$member_ptr@VAlgorithmParametersBase@CryptoPP@@@CryptoPP@@QAE@XZ 0041f455 f i dlltest.obj
 0001:0001e455       ??1?$member_ptr@VMontgomeryRepresentation@CryptoPP@@@CryptoPP@@QAE@XZ 0041f455 f i dlltest.obj
 0001:0001e455       ??1?$member_ptr@V?$BlockCipherFinal@$0A@VBase@DES@CryptoPP@@@CryptoPP@@@CryptoPP@@QAE@XZ 0041f455 f i dlltest.obj
 0001:0001e455       ??1?$member_ptr@VFileSource@CryptoPP@@@CryptoPP@@QAE@XZ 0041f455 f i dlltest.obj
 0001:0001e455       ??1?$member_ptr@VGF2NP@CryptoPP@@@CryptoPP@@QAE@XZ 0041f455 f i dlltest.obj
 0001:0001e455       ??1?$member_ptr@VFileSink@CryptoPP@@@CryptoPP@@QAE@XZ 0041f455 f i dlltest.obj
 0001:0001e455       ??1?$member_ptr@VAuthenticatedSymmetricCipher@CryptoPP@@@CryptoPP@@QAE@XZ 0041f455 f i dlltest.obj
 0001:0001e455       ??1?$member_ptr@VMessageAuthenticationCode@CryptoPP@@@CryptoPP@@QAE@XZ 0041f455 f i dlltest.obj
 0001:0001e455       ??1?$member_ptr@VPK_MessageAccumulator@CryptoPP@@@CryptoPP@@QAE@XZ 0041f455 f i dlltest.obj
 0001:0001e462       ??4?$value_ptr@VMontgomeryRepresentation@CryptoPP@@@CryptoPP@@QAEAAV01@ABV01@@Z 0041f462 f i dlltest.obj
 0001:0001e4c1       ??0MontgomeryRepresentation@CryptoPP@@QAE@ABV01@@Z 0041f4c1 f i dlltest.obj
 0001:0001e514       ??0ModularArithmetic@CryptoPP@@QAE@ABV01@@Z 0041f514 f i dlltest.obj
 0001:0001e576       ?Equal@MultiplicativeGroupT@?$AbstractRing@VInteger@CryptoPP@@@CryptoPP@@UBE_NABVInteger@3@0@Z 0041f576 f i dlltest.obj
 0001:0001e589       ?Identity@MultiplicativeGroupT@?$AbstractRing@VInteger@CryptoPP@@@CryptoPP@@UBEABVInteger@3@XZ 0041f589 f i dlltest.obj
 0001:0001e591       ?Add@MultiplicativeGroupT@?$AbstractRing@VInteger@CryptoPP@@@CryptoPP@@UBEABVInteger@3@ABV43@0@Z 0041f591 f i dlltest.obj
 0001:0001e5a4       ?Accumulate@MultiplicativeGroupT@?$AbstractRing@VInteger@CryptoPP@@@CryptoPP@@UBEAAVInteger@3@AAV43@ABV43@@Z 0041f5a4 f i dlltest.obj
 0001:0001e5c1       ?Inverse@MultiplicativeGroupT@?$AbstractRing@VInteger@CryptoPP@@@CryptoPP@@UBEABVInteger@3@ABV43@@Z 0041f5c1 f i dlltest.obj
 0001:0001e5d0       ?Subtract@MultiplicativeGroupT@?$AbstractRing@VInteger@CryptoPP@@@CryptoPP@@UBEABVInteger@3@ABV43@0@Z 0041f5d0 f i dlltest.obj
 0001:0001e5e3       ?Reduce@MultiplicativeGroupT@?$AbstractRing@VInteger@CryptoPP@@@CryptoPP@@UBEAAVInteger@3@AAV43@ABV43@@Z 0041f5e3 f i dlltest.obj
 0001:0001e600       ?Double@MultiplicativeGroupT@?$AbstractRing@VInteger@CryptoPP@@@CryptoPP@@UBEABVInteger@3@ABV43@@Z 0041f600 f i dlltest.obj
 0001:0001e60f       ?ScalarMultiply@MultiplicativeGroupT@?$AbstractRing@VInteger@CryptoPP@@@CryptoPP@@UBE?AVInteger@3@ABV43@0@Z 0041f60f f i dlltest.obj
 0001:0001e62f       ?CascadeScalarMultiply@MultiplicativeGroupT@?$AbstractRing@VInteger@CryptoPP@@@CryptoPP@@UBE?AVInteger@3@ABV43@000@Z 0041f62f f i dlltest.obj
 0001:0001e655       ?SimultaneousMultiply@MultiplicativeGroupT@?$AbstractRing@VInteger@CryptoPP@@@CryptoPP@@UBEXPAVInteger@3@ABV43@PBV43@I@Z 0041f655 f i dlltest.obj
 0001:0001e670       ?Clone@ModularArithmetic@CryptoPP@@UBEPAV12@XZ 0041f670 f i dlltest.obj
 0001:0001e6a7       ?ConvertIn@ModularArithmetic@CryptoPP@@UBE?AVInteger@2@ABV32@@Z 0041f6a7 f i dlltest.obj
 0001:0001e6c8       ?Equal@ModularArithmetic@CryptoPP@@UBE_NABVInteger@2@0@Z 0041f6c8 f i dlltest.obj
 0001:0001e6dd       ?Identity@ModularArithmetic@CryptoPP@@UBEABVInteger@2@XZ 0041f6dd f i dlltest.obj
 0001:0001e6e2       ?Double@ModularArithmetic@CryptoPP@@UBEABVInteger@2@ABV32@@Z 0041f6e2 f i dlltest.obj
 0001:0001e6f2       ?MultiplicativeIdentity@ModularArithmetic@CryptoPP@@UBEABVInteger@2@XZ 0041f6f2 f i dlltest.obj
 0001:0001e6f7       ?Multiply@ModularArithmetic@CryptoPP@@UBEABVInteger@2@ABV32@0@Z 0041f6f7 f i dlltest.obj
 0001:0001e766       ?Square@ModularArithmetic@CryptoPP@@UBEABVInteger@2@ABV32@@Z 0041f766 f i dlltest.obj
 0001:0001e7d2       ?Squared@Integer@CryptoPP@@QBE?AV12@XZ 0041f7d2 f i dlltest.obj
 0001:0001e7ea       ?IsUnit@ModularArithmetic@CryptoPP@@UBE_NABVInteger@2@@Z 0041f7ea f i dlltest.obj
 0001:0001e838       ?MultiplicativeInverse@ModularArithmetic@CryptoPP@@UBEABVInteger@2@ABV32@@Z 0041f838 f i dlltest.obj
 0001:0001e887       ?Divide@ModularArithmetic@CryptoPP@@UBEABVInteger@2@ABV32@0@Z 0041f887 f i dlltest.obj
 0001:0001e8a3       ??_GModularArithmetic@CryptoPP@@UAEPAXI@Z 0041f8a3 f i dlltest.obj
 0001:0001e8a3       ??_EModularArithmetic@CryptoPP@@UAEPAXI@Z 0041f8a3 f i dlltest.obj
 0001:0001e8bf       ??1ModularArithmetic@CryptoPP@@UAE@XZ 0041f8bf f i dlltest.obj
 0001:0001e918       ?Clone@MontgomeryRepresentation@CryptoPP@@UBEPAVModularArithmetic@2@XZ 0041f918 f i dlltest.obj
 0001:0001e94f       ?ConvertIn@MontgomeryRepresentation@CryptoPP@@UBE?AVInteger@2@ABV32@@Z 0041f94f f i dlltest.obj
 0001:0001e9b2       ??6Integer@CryptoPP@@QBE?AV01@I@Z 0041f9b2 f i dlltest.obj
 0001:0001ea0a       ?MultiplicativeIdentity@MontgomeryRepresentation@CryptoPP@@UBEABVInteger@2@XZ 0041fa0a f i dlltest.obj
 0001:0001ea78       ?CascadeExponentiate@MontgomeryRepresentation@CryptoPP@@UBE?AVInteger@2@ABV32@000@Z 0041fa78 f i dlltest.obj
 0001:0001ea9b       ?SimultaneousExponentiate@MontgomeryRepresentation@CryptoPP@@UBEXPAVInteger@2@ABV32@PBV32@I@Z 0041fa9b f i dlltest.obj
 0001:0001eab3       ??_EMontgomeryRepresentation@CryptoPP@@UAEPAXI@Z 0041fab3 f i dlltest.obj
 0001:0001eab3       ??_GMontgomeryRepresentation@CryptoPP@@UAEPAXI@Z 0041fab3 f i dlltest.obj
 0001:0001eacf       ??1MontgomeryRepresentation@CryptoPP@@UAE@XZ 0041facf f i dlltest.obj
 0001:0001eb1a       ?CheckSize@?$AllocatorBase@I@CryptoPP@@KAXI@Z 0041fb1a f i dlltest.obj
 0001:0001eb8b       ?GetThisObject@NameValuePairs@CryptoPP@@QBE_NAAVDL_GroupParameters_DSA@2@@Z 0041fb8b f i dlltest.obj
 0001:0001ec2b       ?Ref@?$Singleton@V?$DL_Algorithm_GDSA@VInteger@CryptoPP@@@CryptoPP@@U?$NewObject@V?$DL_Algorithm_GDSA@VInteger@CryptoPP@@@CryptoPP@@@2@$0A@@CryptoPP@@QBAABV?$DL_Algorithm_GDSA@VInteger@CryptoPP@@@2@ZZ 0041fc2b f i dlltest.obj
 0001:0001ec7c       ?_Construct@std@@YAXPAVInteger@CryptoPP@@ABV23@@Z 0041fc7c f i dlltest.obj
 0001:0001eca9       ?s_pObject@?1??Ref@?$Singleton@V?$DL_Algorithm_GDSA@VInteger@CryptoPP@@@CryptoPP@@U?$NewObject@V?$DL_Algorithm_GDSA@VInteger@CryptoPP@@@CryptoPP@@@2@$0A@@CryptoPP@@QBAABV?$DL_Algorithm_GDSA@VInteger@CryptoPP@@@2@ZZ@$AV?$simple_ptr@V?$DL_Algorithm_GDSA@VInteger@CryptoPP@@@CryptoPP@@@2@C 0041fca9 f i dlltest.obj
 0001:0001ecbd       ??0?$GetValueHelperClass@V?$DL_PublicKeyImpl@VDL_GroupParameters_DSA@CryptoPP@@@CryptoPP@@V?$DL_PublicKey@VInteger@CryptoPP@@@2@@CryptoPP@@QAE@PBV?$DL_PublicKeyImpl@VDL_GroupParameters_DSA@CryptoPP@@@1@PBDABVtype_info@@PAXPBVNameValuePairs@1@@Z 0041fcbd f i dlltest.obj
 0001:0001ee3f       ??0?$AssignFromHelperClass@V?$DL_PublicKeyImpl@VDL_GroupParameters_DSA@CryptoPP@@@CryptoPP@@V?$DL_PublicKey@VInteger@CryptoPP@@@2@@CryptoPP@@QAE@PAV?$DL_PublicKeyImpl@VDL_GroupParameters_DSA@CryptoPP@@@1@ABVNameValuePairs@1@@Z 0041fe3f f i dlltest.obj
 0001:0001ee8a       ??0?$GetValueHelperClass@V?$DL_PrivateKeyImpl@VDL_GroupParameters_DSA@CryptoPP@@@CryptoPP@@V?$DL_PrivateKey@VInteger@CryptoPP@@@2@@CryptoPP@@QAE@PBV?$DL_PrivateKeyImpl@VDL_GroupParameters_DSA@CryptoPP@@@1@PBDABVtype_info@@PAXPBVNameValuePairs@1@@Z 0041fe8a f i dlltest.obj
 0001:0001f00c       ??0?$AssignFromHelperClass@V?$DL_PrivateKeyImpl@VDL_GroupParameters_DSA@CryptoPP@@@CryptoPP@@V?$DL_PrivateKey@VInteger@CryptoPP@@@2@@CryptoPP@@QAE@PAV?$DL_PrivateKeyImpl@VDL_GroupParameters_DSA@CryptoPP@@@1@ABVNameValuePairs@1@@Z 0042000c f i dlltest.obj
 0001:0001f057       ??R?$NewObject@V?$DL_Algorithm_GDSA@VInteger@CryptoPP@@@CryptoPP@@@CryptoPP@@QBEPAV?$DL_Algorithm_GDSA@VInteger@CryptoPP@@@1@XZ 00420057 f i dlltest.obj
 0001:0001f06d       ?Sign@?$DL_Algorithm_GDSA@VInteger@CryptoPP@@@CryptoPP@@UBEXABV?$DL_GroupParameters@VInteger@CryptoPP@@@2@ABVInteger@2@11AAV42@2@Z 0042006d f i dlltest.obj
 0001:0001f13e       ?Verify@?$DL_Algorithm_GDSA@VInteger@CryptoPP@@@CryptoPP@@UBE_NABV?$DL_GroupParameters@VInteger@CryptoPP@@@2@ABV?$DL_PublicKey@VInteger@CryptoPP@@@2@ABVInteger@2@22@Z 0042013e f i dlltest.obj
 0001:0001f32e       ?RecoverPresignature@?$DL_ElgamalLikeSignatureAlgorithm@VInteger@CryptoPP@@@CryptoPP@@UBE?AVInteger@2@ABV?$DL_GroupParameters@VInteger@CryptoPP@@@2@ABV?$DL_PublicKey@VInteger@CryptoPP@@@2@ABV32@2@Z 0042032e f i dlltest.obj
 0001:0001f38a       ?GetVoidValue@?$DL_PublicKey@VInteger@CryptoPP@@@CryptoPP@@QBE_NPBDABVtype_info@@PAX@Z 0042038a f i dlltest.obj
 0001:0001f3de       ?GetVoidValue@?$DL_PrivateKey@VInteger@CryptoPP@@@CryptoPP@@QBE_NPBDABVtype_info@@PAX@Z 004203de f i dlltest.obj
 0001:0001f432       ?AssignFrom@?$DL_PrivateKey@VInteger@CryptoPP@@@CryptoPP@@QAEXABVNameValuePairs@2@@Z 00420432 f i dlltest.obj
 0001:0001f47f       ?AssignFrom@?$DL_PublicKey@VInteger@CryptoPP@@@CryptoPP@@QAEXABVNameValuePairs@2@@Z 0042047f f i dlltest.obj
 0001:0001f4ed       ?GetThisObject@NameValuePairs@CryptoPP@@QBE_NAAV?$DL_PublicKeyImpl@VDL_GroupParameters_DSA@CryptoPP@@@2@@Z 004204ed f i dlltest.obj
 0001:0001f58d       ?GetThisObject@NameValuePairs@CryptoPP@@QBE_NAAV?$DL_PrivateKeyImpl@VDL_GroupParameters_DSA@CryptoPP@@@2@@Z 0042058d f i dlltest.obj
 0001:0001f62d       ??R?$GetValueHelperClass@V?$DL_PrivateKey@UEC2NPoint@CryptoPP@@@CryptoPP@@V12@@CryptoPP@@QAEAAV01@PBDP8?$DL_PrivateKey@UEC2NPoint@CryptoPP@@@1@BEABVInteger@1@XZ@Z 0042062d f i dlltest.obj
 0001:0001f62d       ??R?$GetValueHelperClass@V?$DL_PrivateKey@UECPPoint@CryptoPP@@@CryptoPP@@V12@@CryptoPP@@QAEAAV01@PBDP8?$DL_PrivateKey@UECPPoint@CryptoPP@@@1@BEABVInteger@1@XZ@Z 0042062d f i dlltest.obj
 0001:0001f62d       ??R?$GetValueHelperClass@V?$DL_PrivateKey@VInteger@CryptoPP@@@CryptoPP@@V12@@CryptoPP@@QAEAAV01@PBDP8?$DL_PrivateKey@VInteger@CryptoPP@@@1@BEABVInteger@1@XZ@Z 0042062d f i dlltest.obj
 0001:0001f62d       ??R?$GetValueHelperClass@V?$DL_PublicKey@VInteger@CryptoPP@@@CryptoPP@@V12@@CryptoPP@@QAEAAV01@PBDP8?$DL_PublicKey@VInteger@CryptoPP@@@1@BEABVInteger@1@XZ@Z 0042062d f i dlltest.obj
 0001:0001f6ab       ??R?$AssignFromHelperClass@V?$DL_PrivateKey@VInteger@CryptoPP@@@CryptoPP@@V12@@CryptoPP@@QAEAAV01@PBDP8?$DL_PrivateKey@VInteger@CryptoPP@@@1@AEXABVInteger@1@@Z@Z 004206ab f i dlltest.obj
 0001:0001f7dc       ?MakePublicKey@?$DL_PrivateKey@VInteger@CryptoPP@@@CryptoPP@@QBEXAAV?$DL_PublicKey@VInteger@CryptoPP@@@2@@Z 004207dc f i dlltest.obj
 0001:0001f86b       ??0?$GetValueHelperClass@V?$DL_PublicKey@VInteger@CryptoPP@@@CryptoPP@@V12@@CryptoPP@@QAE@PBV?$DL_PublicKey@VInteger@CryptoPP@@@1@PBDABVtype_info@@PAXPBVNameValuePairs@1@@Z 0042086b f i dlltest.obj
 0001:0001f9ed       ??0?$GetValueHelperClass@V?$DL_PrivateKey@VInteger@CryptoPP@@@CryptoPP@@V12@@CryptoPP@@QAE@PBV?$DL_PrivateKey@VInteger@CryptoPP@@@1@PBDABVtype_info@@PAXPBVNameValuePairs@1@@Z 004209ed f i dlltest.obj
 0001:0001fb6f       ??0?$AssignFromHelperClass@V?$DL_PrivateKey@VInteger@CryptoPP@@@CryptoPP@@V12@@CryptoPP@@QAE@PAV?$DL_PrivateKey@VInteger@CryptoPP@@@1@ABVNameValuePairs@1@@Z 00420b6f f i dlltest.obj
 0001:0001fbba       ?GetThisPointer@NameValuePairs@CryptoPP@@QBE_NAAPAV?$DL_PrivateKey@VInteger@CryptoPP@@@2@@Z 00420bba f i dlltest.obj
 0001:0001fc5a       ??R?$AssignFromHelperClass@V?$DL_PublicKey@VInteger@CryptoPP@@@CryptoPP@@V12@@CryptoPP@@QAEAAV01@PBDP8?$DL_PublicKey@VInteger@CryptoPP@@@1@AEXABVInteger@1@@Z@Z 00420c5a f i dlltest.obj
 0001:0001fd6f       ?GetThisObject@NameValuePairs@CryptoPP@@QBE_NAAV?$DL_PrivateKey@VInteger@CryptoPP@@@2@@Z 00420d6f f i dlltest.obj
 0001:0001fe0f       ??0?$AssignFromHelperClass@V?$DL_PublicKey@VInteger@CryptoPP@@@CryptoPP@@V12@@CryptoPP@@QAE@PAV?$DL_PublicKey@VInteger@CryptoPP@@@1@ABVNameValuePairs@1@@Z 00420e0f f i dlltest.obj
 0001:0001fe5a       ?GetThisObject@NameValuePairs@CryptoPP@@QBE_NAAV?$DL_PublicKey@VInteger@CryptoPP@@@2@@Z 00420e5a f i dlltest.obj
 0001:0001fefa       ??_E?$CFB_RequireFullDataBlocks@V?$CFB_EncryptionTemplate@V?$AbstractPolicyHolder@VCFB_CipherAbstractPolicy@CryptoPP@@VCFB_ModePolicy@2@@CryptoPP@@@CryptoPP@@@CryptoPP@@W3AEPAXI@Z 00420efa f i dlltest.obj
 0001:0001ff02       ??_E?$CFB_RequireFullDataBlocks@V?$CFB_EncryptionTemplate@V?$AbstractPolicyHolder@VCFB_CipherAbstractPolicy@CryptoPP@@VCFB_ModePolicy@2@@CryptoPP@@@CryptoPP@@@CryptoPP@@WBI@AEPAXI@Z 00420f02 f i dlltest.obj
 0001:0001ff0a       ??_E?$DL_PublicKey_GFP@VDL_GroupParameters_DSA@CryptoPP@@@CryptoPP@@WLM@AEPAXI@Z 00420f0a f i dlltest.obj
 0001:0001ff15       ?Save@?$ASN1CryptoMaterial@VPrivateKey@CryptoPP@@@CryptoPP@@WLA@BEXAAVBufferedTransformation@2@@Z 00420f15 f i dlltest.obj
 0001:0001ff20       ?Load@?$ASN1CryptoMaterial@VPrivateKey@CryptoPP@@@CryptoPP@@WLA@AEXAAVBufferedTransformation@2@@Z 00420f20 f i dlltest.obj
 0001:0001ff2b       ??_E?$DL_PrivateKey_GFP@VDL_GroupParameters_DSA@CryptoPP@@@CryptoPP@@WLM@AEPAXI@Z 00420f2b f i dlltest.obj
 0001:0001ff2b       ??_E?$DL_PrivateKey_WithSignaturePairwiseConsistencyTest@V?$DL_PrivateKey_GFP@VDL_GroupParameters_DSA@CryptoPP@@@CryptoPP@@UDSA@2@@CryptoPP@@WLM@AEPAXI@Z 00420f2b f i dlltest.obj
 0001:0001ff36       ?AssignFrom@?$DL_GroupParameters_IntegerBasedImpl@VModExpPrecomputation@CryptoPP@@V?$DL_FixedBasePrecomputationImpl@VInteger@CryptoPP@@@2@@CryptoPP@@$4PPPPPPPM@A@AEXABVNameValuePairs@2@@Z 00420f36 f i dlltest.obj
 0001:0001ff3e       ?AssignFrom@?$DL_GroupParameters_IntegerBasedImpl@VModExpPrecomputation@CryptoPP@@V?$DL_FixedBasePrecomputationImpl@VInteger@CryptoPP@@@2@@CryptoPP@@UAEXABVNameValuePairs@2@@Z 00420f3e f i dlltest.obj
 0001:0001ff57       ??0?$AssignFromHelperClass@V?$DL_GroupParameters_IntegerBasedImpl@VModExpPrecomputation@CryptoPP@@V?$DL_FixedBasePrecomputationImpl@VInteger@CryptoPP@@@2@@CryptoPP@@VDL_GroupParameters_IntegerBased@2@@CryptoPP@@QAE@PAV?$DL_GroupParameters_IntegerBasedImpl@VModExpPrecomputation@CryptoPP@@V?$DL_FixedBasePrecomputationImpl@VInteger@CryptoPP@@@2@@1@ABVNameValuePairs@1@@Z 00420f57 f i dlltest.obj
 0001:0001ffa3       ?GetThisObject@NameValuePairs@CryptoPP@@QBE_NAAV?$DL_GroupParameters_IntegerBasedImpl@VModExpPrecomputation@CryptoPP@@V?$DL_FixedBasePrecomputationImpl@VInteger@CryptoPP@@@2@@2@@Z 00420fa3 f i dlltest.obj
 0001:00020043       ?Validate@?$DL_GroupParameters@VInteger@CryptoPP@@@CryptoPP@@$4PPPPPPPM@FM@BE_NAAVRandomNumberGenerator@2@I@Z 00421043 f i dlltest.obj
 0001:0002004e       ?Save@?$ASN1CryptoMaterial@V?$DL_GroupParameters@VInteger@CryptoPP@@@CryptoPP@@@CryptoPP@@$4PPPPPPPM@FM@BEXAAVBufferedTransformation@2@@Z 0042104e f i dlltest.obj
 0001:00020059       ?Save@?$ASN1CryptoMaterial@V?$DL_GroupParameters@VInteger@CryptoPP@@@CryptoPP@@@CryptoPP@@UBEXAAVBufferedTransformation@2@@Z 00421059 f i dlltest.obj
 0001:00020069       ?Load@?$ASN1CryptoMaterial@V?$DL_GroupParameters@VInteger@CryptoPP@@@CryptoPP@@@CryptoPP@@$4PPPPPPPM@FM@AEXAAVBufferedTransformation@2@@Z 00421069 f i dlltest.obj
 0001:00020074       ?Load@?$ASN1CryptoMaterial@V?$DL_GroupParameters@VInteger@CryptoPP@@@CryptoPP@@@CryptoPP@@UAEXAAVBufferedTransformation@2@@Z 00421074 f i dlltest.obj
 0001:00020084       ?SupportsPrecomputation@?$DL_GroupParameters@VInteger@CryptoPP@@@CryptoPP@@$4PPPPPPPM@FM@BE_NXZ 00421084 f i dlltest.obj
 0001:0002008f       ?Precompute@?$DL_GroupParameters@VInteger@CryptoPP@@@CryptoPP@@$4PPPPPPPM@FM@AEXI@Z 0042108f f i dlltest.obj
 0001:0002009a       ?LoadPrecomputation@?$DL_GroupParameters@VInteger@CryptoPP@@@CryptoPP@@$4PPPPPPPM@FM@AEXAAVBufferedTransformation@2@@Z 0042109a f i dlltest.obj
 0001:000200a5       ?SavePrecomputation@?$DL_GroupParameters@VInteger@CryptoPP@@@CryptoPP@@$4PPPPPPPM@FM@BEXAAVBufferedTransformation@2@@Z 004210a5 f i dlltest.obj
 0001:000200b0       ?SavePrecomputation@?$DL_GroupParameters@UEC2NPoint@CryptoPP@@@CryptoPP@@UBEXAAVBufferedTransformation@2@@Z 004210b0 f i dlltest.obj
 0001:000200b0       ?SavePrecomputation@?$DL_GroupParameters@VInteger@CryptoPP@@@CryptoPP@@UBEXAAVBufferedTransformation@2@@Z 004210b0 f i dlltest.obj
 0001:000200b0       ?SavePrecomputation@?$DL_GroupParameters@UECPPoint@CryptoPP@@@CryptoPP@@UBEXAAVBufferedTransformation@2@@Z 004210b0 f i dlltest.obj
 0001:000200d9       ??_E?$BlockCipherFinal@$0A@VEnc@Rijndael@CryptoPP@@@CryptoPP@@W3AEPAXI@Z 004210d9 f i dlltest.obj
 0001:000200d9       ??_E?$BlockCipherFinal@$00VDec@Rijndael@CryptoPP@@@CryptoPP@@W3AEPAXI@Z 004210d9 f i dlltest.obj
 0001:000200e1       ??_E?$DL_GroupParametersImpl@VModExpPrecomputation@CryptoPP@@V?$DL_FixedBasePrecomputationImpl@VInteger@CryptoPP@@@2@VDL_GroupParameters_IntegerBased@2@@CryptoPP@@$4PPPPPPPM@HA@AEPAXI@Z 004210e1 f i dlltest.obj
 0001:000200ec       ?GetVoidValue@DL_GroupParameters_IntegerBased@CryptoPP@@$4PPPPPPPM@EI@BE_NPBDABVtype_info@@PAX@Z 004210ec f i dlltest.obj
 0001:000200f7       ?AssignFrom@DL_GroupParameters_IntegerBased@CryptoPP@@$4PPPPPPPM@EI@AEXABVNameValuePairs@2@@Z 004210f7 f i dlltest.obj
 0001:00020102       ??_E?$ConcretePolicyHolder@VEmpty@CryptoPP@@V?$CFB_RequireFullDataBlocks@V?$CFB_EncryptionTemplate@V?$AbstractPolicyHolder@VCFB_CipherAbstractPolicy@CryptoPP@@VCFB_ModePolicy@2@@CryptoPP@@@CryptoPP@@@2@VCFB_CipherAbstractPolicy@2@@CryptoPP@@W3AEPAXI@Z 00421102 f i dlltest.obj
 0001:0002010a       ??_E?$ConcretePolicyHolder@VEmpty@CryptoPP@@V?$CFB_RequireFullDataBlocks@V?$CFB_EncryptionTemplate@V?$AbstractPolicyHolder@VCFB_CipherAbstractPolicy@CryptoPP@@VCFB_ModePolicy@2@@CryptoPP@@@CryptoPP@@@2@VCFB_CipherAbstractPolicy@2@@CryptoPP@@WBI@AEPAXI@Z 0042110a f i dlltest.obj
 0001:00020112       ??_E?$CipherModeFinalTemplate_CipherHolder@V?$BlockCipherFinal@$0A@VBase@DES_EDE3@CryptoPP@@@CryptoPP@@V?$ConcretePolicyHolder@VEmpty@CryptoPP@@V?$CFB_RequireFullDataBlocks@V?$CFB_EncryptionTemplate@V?$AbstractPolicyHolder@VCFB_CipherAbstractPolicy@CryptoPP@@VCFB_ModePolicy@2@@CryptoPP@@@CryptoPP@@@2@VCFB_CipherAbstractPolicy@2@@2@@CryptoPP@@W3AEPAXI@Z 00421112 f i dlltest.obj
 0001:0002011a       ??_E?$CipherModeFinalTemplate_CipherHolder@V?$BlockCipherFinal@$0A@VBase@DES_EDE3@CryptoPP@@@CryptoPP@@V?$ConcretePolicyHolder@VEmpty@CryptoPP@@V?$CFB_RequireFullDataBlocks@V?$CFB_EncryptionTemplate@V?$AbstractPolicyHolder@VCFB_CipherAbstractPolicy@CryptoPP@@VCFB_ModePolicy@2@@CryptoPP@@@CryptoPP@@@2@VCFB_CipherAbstractPolicy@2@@2@@CryptoPP@@WBI@AEPAXI@Z 0042111a f i dlltest.obj
 0001:00020122       ??_E?$DL_SignerImpl@U?$DL_SignatureSchemeOptions@UDSA@CryptoPP@@UDL_Keys_DSA@2@V?$DL_Algorithm_GDSA@VInteger@CryptoPP@@@2@VDL_SignatureMessageEncodingMethod_DSA@2@VSHA1@2@@CryptoPP@@@CryptoPP@@W3AEPAXI@Z 00421122 f i dlltest.obj
 0001:0002012a       ??_E?$DL_VerifierImpl@U?$DL_SignatureSchemeOptions@UDSA@CryptoPP@@UDL_Keys_DSA@2@V?$DL_Algorithm_GDSA@VInteger@CryptoPP@@@2@VDL_SignatureMessageEncodingMethod_DSA@2@VSHA1@2@@CryptoPP@@@CryptoPP@@W3AEPAXI@Z 0042112a f i dlltest.obj
 0001:00020132       ??_E?$CipherModeFinalTemplate_CipherHolder@V?$BlockCipherFinal@$0A@VBase@DES_EDE3@CryptoPP@@@CryptoPP@@V?$ConcretePolicyHolder@VEmpty@CryptoPP@@V?$CFB_RequireFullDataBlocks@V?$CFB_DecryptionTemplate@V?$AbstractPolicyHolder@VCFB_CipherAbstractPolicy@CryptoPP@@VCFB_ModePolicy@2@@CryptoPP@@@CryptoPP@@@2@VCFB_CipherAbstractPolicy@2@@2@@CryptoPP@@W3AEPAXI@Z 00421132 f i dlltest.obj
 0001:0002013a       ??_E?$CipherModeFinalTemplate_CipherHolder@V?$BlockCipherFinal@$0A@VBase@DES_EDE3@CryptoPP@@@CryptoPP@@V?$ConcretePolicyHolder@VEmpty@CryptoPP@@V?$CFB_RequireFullDataBlocks@V?$CFB_DecryptionTemplate@V?$AbstractPolicyHolder@VCFB_CipherAbstractPolicy@CryptoPP@@VCFB_ModePolicy@2@@CryptoPP@@@CryptoPP@@@2@VCFB_CipherAbstractPolicy@2@@2@@CryptoPP@@WBI@AEPAXI@Z 0042113a f i dlltest.obj
 0001:00020142       ??_E?$CFB_RequireFullDataBlocks@V?$CFB_DecryptionTemplate@V?$AbstractPolicyHolder@VCFB_CipherAbstractPolicy@CryptoPP@@VCFB_ModePolicy@2@@CryptoPP@@@CryptoPP@@@CryptoPP@@W3AEPAXI@Z 00421142 f i dlltest.obj
 0001:0002014a       ??_E?$CFB_RequireFullDataBlocks@V?$CFB_DecryptionTemplate@V?$AbstractPolicyHolder@VCFB_CipherAbstractPolicy@CryptoPP@@VCFB_ModePolicy@2@@CryptoPP@@@CryptoPP@@@CryptoPP@@WBI@AEPAXI@Z 0042114a f i dlltest.obj
 0001:00020152       ?GetVoidValue@DL_GroupParameters_GFP@CryptoPP@@$4PPPPPPPM@A@BE_NPBDABVtype_info@@PAX@Z 00421152 f i dlltest.obj
 0001:0002015a       ?GetVoidValue@DL_GroupParameters_GFP@CryptoPP@@UBE_NPBDABVtype_info@@PAX@Z 0042115a f i dlltest.obj
 0001:00020194       ?Assignable@?$GetValueHelperClass@VDL_GroupParameters_GFP@CryptoPP@@VDL_GroupParameters_IntegerBased@2@@CryptoPP@@QAEAAV12@XZ 00421194 f i dlltest.obj
 0001:00020243       ??0?$GetValueHelperClass@VDL_GroupParameters_GFP@CryptoPP@@VDL_GroupParameters_IntegerBased@2@@CryptoPP@@QAE@PBVDL_GroupParameters_GFP@1@PBDABVtype_info@@PAXPBVNameValuePairs@1@@Z 00421243 f i dlltest.obj
 0001:000203cb       ??_E?$DL_PrivateKeyImpl@VDL_GroupParameters_DSA@CryptoPP@@@CryptoPP@@WLM@AEPAXI@Z 004213cb f i dlltest.obj
 0001:000203d6       ??_E?$DL_PublicKeyImpl@VDL_GroupParameters_DSA@CryptoPP@@@CryptoPP@@WLM@AEPAXI@Z 004213d6 f i dlltest.obj
 0001:000203e1       ??_E?$ConcretePolicyHolder@VEmpty@CryptoPP@@V?$CFB_RequireFullDataBlocks@V?$CFB_DecryptionTemplate@V?$AbstractPolicyHolder@VCFB_CipherAbstractPolicy@CryptoPP@@VCFB_ModePolicy@2@@CryptoPP@@@CryptoPP@@@2@VCFB_CipherAbstractPolicy@2@@CryptoPP@@W3AEPAXI@Z 004213e1 f i dlltest.obj
 0001:000203e9       ??_E?$ConcretePolicyHolder@VEmpty@CryptoPP@@V?$CFB_RequireFullDataBlocks@V?$CFB_DecryptionTemplate@V?$AbstractPolicyHolder@VCFB_CipherAbstractPolicy@CryptoPP@@VCFB_ModePolicy@2@@CryptoPP@@@CryptoPP@@@2@VCFB_CipherAbstractPolicy@2@@CryptoPP@@WBI@AEPAXI@Z 004213e9 f i dlltest.obj
 0001:000203f1       ??_E?$DL_KeyImpl@VPKCS8PrivateKey@CryptoPP@@VDL_GroupParameters_DSA@2@VOID@2@@CryptoPP@@WKI@AEPAXI@Z 004213f1 f i dlltest.obj
 0001:000203fc       ?Save@?$ASN1CryptoMaterial@VPrivateKey@CryptoPP@@@CryptoPP@@WJM@BEXAAVBufferedTransformation@2@@Z 004213fc f i dlltest.obj
 0001:00020407       ?Load@?$ASN1CryptoMaterial@VPrivateKey@CryptoPP@@@CryptoPP@@WJM@AEXAAVBufferedTransformation@2@@Z 00421407 f i dlltest.obj
 0001:00020412       ??_E?$DL_KeyImpl@VX509PublicKey@CryptoPP@@VDL_GroupParameters_DSA@2@VOID@2@@CryptoPP@@WHM@AEPAXI@Z 00421412 f i dlltest.obj
 0001:0002041a       ?Save@?$ASN1CryptoMaterial@VPublicKey@CryptoPP@@@CryptoPP@@WHE@BEXAAVBufferedTransformation@2@@Z 0042141a f i dlltest.obj
 0001:00020422       ?Load@?$ASN1CryptoMaterial@VPublicKey@CryptoPP@@@CryptoPP@@WHE@AEXAAVBufferedTransformation@2@@Z 00421422 f i dlltest.obj
 0001:0002042a       ??_E?$CipherModeFinalTemplate_CipherHolder@V?$BlockCipherFinal@$0A@VBase@DES_EDE3@CryptoPP@@@CryptoPP@@VECB_OneWay@2@@CryptoPP@@W3AEPAXI@Z 0042142a f i dlltest.obj
 0001:00020432       ??_E?$BlockCipherFinal@$00VBase@DES_EDE3@CryptoPP@@@CryptoPP@@W3AEPAXI@Z 00421432 f i dlltest.obj
 0001:00020432       ??_E?$BlockCipherFinal@$0A@VBase@DES_EDE3@CryptoPP@@@CryptoPP@@W3AEPAXI@Z 00421432 f i dlltest.obj
 0001:0002043a       ??_EDL_GroupParameters_DSA@CryptoPP@@$4PPPPPPPM@HA@AEPAXI@Z 0042143a f i dlltest.obj
 0001:0002043a       ??_EDL_GroupParameters_GFP@CryptoPP@@$4PPPPPPPM@HA@AEPAXI@Z 0042143a f i dlltest.obj
 0001:0002043a       ??_EDL_GroupParameters_GFP_DefaultSafePrime@CryptoPP@@$4PPPPPPPM@HA@AEPAXI@Z 0042143a f i dlltest.obj
 0001:00020445       ?RegisterFactories@@YAXXZ  00421445 f   regtest.obj
 0001:0002095e       ??0?$RegisterDefaultFactoryFor@VSimpleKeyAgreementDomain@CryptoPP@@V?$DH_Domain@VDL_GroupParameters_GFP_DefaultSafePrime@CryptoPP@@U?$EnumToType@W4CofactorMultiplicationOption@CryptoPP@@$0A@@2@@2@$0A@@CryptoPP@@QAE@PBD@Z 0042195e f i regtest.obj
 0001:00020a5c       ??0?$RegisterDefaultFactoryFor@VHashTransformation@CryptoPP@@VCRC32@2@$0A@@CryptoPP@@QAE@PBD@Z 00421a5c f i regtest.obj
 0001:00020b72       ??0?$RegisterDefaultFactoryFor@VHashTransformation@CryptoPP@@VAdler32@2@$0A@@CryptoPP@@QAE@PBD@Z 00421b72 f i regtest.obj
 0001:00020c88       ??0?$RegisterDefaultFactoryFor@VHashTransformation@CryptoPP@@VMD5@Weak1@2@$0A@@CryptoPP@@QAE@PBD@Z 00421c88 f i regtest.obj
 0001:00020d9e       ??0?$RegisterDefaultFactoryFor@VHashTransformation@CryptoPP@@VSHA1@2@$0A@@CryptoPP@@QAE@PBD@Z 00421d9e f i regtest.obj
 0001:00020eb4       ??0?$RegisterDefaultFactoryFor@VHashTransformation@CryptoPP@@VSHA224@2@$0A@@CryptoPP@@QAE@PBD@Z 00421eb4 f i regtest.obj
 0001:00020fca       ??0?$RegisterDefaultFactoryFor@VHashTransformation@CryptoPP@@VSHA256@2@$0A@@CryptoPP@@QAE@PBD@Z 00421fca f i regtest.obj
 0001:000210e0       ??0?$RegisterDefaultFactoryFor@VHashTransformation@CryptoPP@@VSHA384@2@$0A@@CryptoPP@@QAE@PBD@Z 004220e0 f i regtest.obj
 0001:000211f6       ??0?$RegisterDefaultFactoryFor@VHashTransformation@CryptoPP@@VSHA512@2@$0A@@CryptoPP@@QAE@PBD@Z 004221f6 f i regtest.obj
 0001:0002130c       ??0?$RegisterDefaultFactoryFor@VHashTransformation@CryptoPP@@VWhirlpool@2@$0A@@CryptoPP@@QAE@PBD@Z 0042230c f i regtest.obj
 0001:00021422       ??0?$RegisterDefaultFactoryFor@VHashTransformation@CryptoPP@@VTiger@2@$0A@@CryptoPP@@QAE@PBD@Z 00422422 f i regtest.obj
 0001:00021538       ??0?$RegisterDefaultFactoryFor@VHashTransformation@CryptoPP@@VRIPEMD160@2@$0A@@CryptoPP@@QAE@PBD@Z 00422538 f i regtest.obj
 0001:0002164e       ??0?$RegisterDefaultFactoryFor@VHashTransformation@CryptoPP@@VRIPEMD320@2@$0A@@CryptoPP@@QAE@PBD@Z 0042264e f i regtest.obj
 0001:00021764       ??0?$RegisterDefaultFactoryFor@VHashTransformation@CryptoPP@@VRIPEMD128@2@$0A@@CryptoPP@@QAE@PBD@Z 00422764 f i regtest.obj
 0001:0002187a       ??0?$RegisterDefaultFactoryFor@VHashTransformation@CryptoPP@@VRIPEMD256@2@$0A@@CryptoPP@@QAE@PBD@Z 0042287a f i regtest.obj
 0001:00021990       ??0?$RegisterDefaultFactoryFor@VHashTransformation@CryptoPP@@V?$PanamaHash@U?$EnumToType@W4ByteOrder@CryptoPP@@$0A@@CryptoPP@@@Weak@2@$0A@@CryptoPP@@QAE@PBD@Z 00422990 f i regtest.obj
 0001:00021aa6       ??0?$RegisterDefaultFactoryFor@VHashTransformation@CryptoPP@@V?$PanamaHash@U?$EnumToType@W4ByteOrder@CryptoPP@@$00@CryptoPP@@@Weak@2@$0A@@CryptoPP@@QAE@PBD@Z 00422aa6 f i regtest.obj
 0001:00021bbc       ??0?$RegisterDefaultFactoryFor@VMessageAuthenticationCode@CryptoPP@@V?$HMAC@VMD5@Weak1@CryptoPP@@@2@$0A@@CryptoPP@@QAE@PBD@Z 00422bbc f i regtest.obj
 0001:00021cba       ??0?$RegisterDefaultFactoryFor@VMessageAuthenticationCode@CryptoPP@@V?$HMAC@VSHA1@CryptoPP@@@2@$0A@@CryptoPP@@QAE@PBD@Z 00422cba f i regtest.obj
 0001:00021db8       ??0?$RegisterDefaultFactoryFor@VMessageAuthenticationCode@CryptoPP@@V?$HMAC@VRIPEMD160@CryptoPP@@@2@$0A@@CryptoPP@@QAE@PBD@Z 00422db8 f i regtest.obj
 0001:00021eb6       ??0?$RegisterDefaultFactoryFor@VMessageAuthenticationCode@CryptoPP@@V?$HMAC@VSHA224@CryptoPP@@@2@$0A@@CryptoPP@@QAE@PBD@Z 00422eb6 f i regtest.obj
 0001:00021fb4       ??0?$RegisterDefaultFactoryFor@VMessageAuthenticationCode@CryptoPP@@V?$HMAC@VSHA256@CryptoPP@@@2@$0A@@CryptoPP@@QAE@PBD@Z 00422fb4 f i regtest.obj
 0001:000220b2       ??0?$RegisterDefaultFactoryFor@VMessageAuthenticationCode@CryptoPP@@V?$HMAC@VSHA384@CryptoPP@@@2@$0A@@CryptoPP@@QAE@PBD@Z 004230b2 f i regtest.obj
 0001:000221b0       ??0?$RegisterDefaultFactoryFor@VMessageAuthenticationCode@CryptoPP@@V?$HMAC@VSHA512@CryptoPP@@@2@$0A@@CryptoPP@@QAE@PBD@Z 004231b0 f i regtest.obj
 0001:000222ae       ??0?$RegisterDefaultFactoryFor@VMessageAuthenticationCode@CryptoPP@@V?$MessageAuthenticationCodeFinal@VTTMAC_Base@CryptoPP@@@2@$0A@@CryptoPP@@QAE@PBD@Z 004232ae f i regtest.obj
 0001:000223ac       ??0?$RegisterDefaultFactoryFor@VMessageAuthenticationCode@CryptoPP@@V?$VMAC@VRijndael@CryptoPP@@$0IA@@2@$0A@@CryptoPP@@QAE@PBD@Z 004233ac f i regtest.obj
 0001:000224aa       ??0?$RegisterDefaultFactoryFor@VMessageAuthenticationCode@CryptoPP@@V?$VMAC@VRijndael@CryptoPP@@$0EA@@2@$0A@@CryptoPP@@QAE@PBD@Z 004234aa f i regtest.obj
 0001:000225a8       ??0?$RegisterDefaultFactoryFor@VMessageAuthenticationCode@CryptoPP@@V?$PanamaMAC@U?$EnumToType@W4ByteOrder@CryptoPP@@$0A@@CryptoPP@@@Weak@2@$0A@@CryptoPP@@QAE@PBD@Z 004235a8 f i regtest.obj
 0001:000226a6       ??0?$RegisterDefaultFactoryFor@VMessageAuthenticationCode@CryptoPP@@V?$PanamaMAC@U?$EnumToType@W4ByteOrder@CryptoPP@@$00@CryptoPP@@@Weak@2@$0A@@CryptoPP@@QAE@PBD@Z 004236a6 f i regtest.obj
 0001:000227a4       ??0?$RegisterDefaultFactoryFor@VMessageAuthenticationCode@CryptoPP@@V?$CMAC@VRijndael@CryptoPP@@@2@$0A@@CryptoPP@@QAE@PBD@Z 004237a4 f i regtest.obj
 0001:000228a2       ??0?$RegisterDefaultFactoryFor@VMessageAuthenticationCode@CryptoPP@@V?$DMAC@VRijndael@CryptoPP@@@2@$0A@@CryptoPP@@QAE@PBD@Z 004238a2 f i regtest.obj
 0001:000229a0       ??0?$RegisterDefaultFactoryFor@VMessageAuthenticationCode@CryptoPP@@V?$CMAC@VDES_EDE3@CryptoPP@@@2@$0A@@CryptoPP@@QAE@PBD@Z 004239a0 f i regtest.obj
 0001:00022a9e       ?StaticAlgorithmName@?$DH_Domain@VDL_GroupParameters_GFP_DefaultSafePrime@CryptoPP@@U?$EnumToType@W4CofactorMultiplicationOption@CryptoPP@@$0A@@2@@CryptoPP@@SA?AV?$basic_string@DU?$char_traits@D@std@@V?$allocator@D@2@@std@@XZ 00423a9e f i regtest.obj
 0001:00022ae8       ?StaticAlgorithmNamePrefix@DL_GroupParameters_IntegerBased@CryptoPP@@SA?AV?$basic_string@DU?$char_traits@D@std@@V?$allocator@D@2@@std@@XZ 00423ae8 f i regtest.obj
 0001:00022b1e       ?CreateObject@?$DefaultObjectFactory@VSimpleKeyAgreementDomain@CryptoPP@@V?$DH_Domain@VDL_GroupParameters_GFP_DefaultSafePrime@CryptoPP@@U?$EnumToType@W4CofactorMultiplicationOption@CryptoPP@@$0A@@2@@2@@CryptoPP@@UBEPAVSimpleKeyAgreementDomain@2@XZ 00423b1e f i regtest.obj
 0001:00022b50       ?CreateObject@?$DefaultObjectFactory@VHashTransformation@CryptoPP@@VCRC32@2@@CryptoPP@@UBEPAVHashTransformation@2@XZ 00423b50 f i regtest.obj
 0001:00022b82       ?CreateObject@?$DefaultObjectFactory@VHashTransformation@CryptoPP@@VAdler32@2@@CryptoPP@@UBEPAVHashTransformation@2@XZ 00423b82 f i regtest.obj
 0001:00022bd0       ?AlgorithmName@Adler32@CryptoPP@@UBE?AV?$basic_string@DU?$char_traits@D@std@@V?$allocator@D@2@@std@@XZ 00423bd0 f i regtest.obj
 0001:00022c08       ??_EAdler32@CryptoPP@@UAEPAXI@Z 00423c08 f i regtest.obj
 0001:00022c08       ??_G?$OAEP@VSHA1@CryptoPP@@VP1363_MGF1@2@@CryptoPP@@UAEPAXI@Z 00423c08 f i regtest.obj
 0001:00022c08       ??_GRandomNumberStore@CryptoPP@@UAEPAXI@Z 00423c08 f i regtest.obj
 0001:00022c08       ??_GFilterTester@@UAEPAXI@Z 00423c08 f i regtest.obj
 0001:00022c08       ??_G?$PSSR_MEM@$0A@VP1363_MGF1@CryptoPP@@$0?0$0A@$0A@@CryptoPP@@UAEPAXI@Z 00423c08 f i regtest.obj
 0001:00022c08       ??_GFixedRNG@@UAEPAXI@Z    00423c08 f i regtest.obj
 0001:00022c08       ??_EFilterTester@@UAEPAXI@Z 00423c08 f i regtest.obj
 0001:00022c08       ??_EDL_SignatureMessageEncodingMethod_DSA@CryptoPP@@UAEPAXI@Z 00423c08 f i regtest.obj
 0001:00022c08       ??_ECombinedNameValuePairs@CryptoPP@@UAEPAXI@Z 00423c08 f i regtest.obj
 0001:00022c08       ??_G?$EMSA5Pad@VP1363_MGF1@CryptoPP@@@CryptoPP@@UAEPAXI@Z 00423c08 f i regtest.obj
 0001:00022c08       ??_GOutputProxy@CryptoPP@@UAEPAXI@Z 00423c08 f i regtest.obj
 0001:00022c08       ??_EFixedRNG@@UAEPAXI@Z    00423c08 f i regtest.obj
 0001:00022c08       ??_GCombinedNameValuePairs@CryptoPP@@UAEPAXI@Z 00423c08 f i regtest.obj
 0001:00022c08       ??_GAdler32@CryptoPP@@UAEPAXI@Z 00423c08 f i regtest.obj
 0001:00022c08       ??_EDL_SignatureMessageEncodingMethod_NR@CryptoPP@@UAEPAXI@Z 00423c08 f i regtest.obj
 0001:00022c08       ??_EPKCS_EncryptionPaddingScheme@CryptoPP@@UAEPAXI@Z 00423c08 f i regtest.obj
 0001:00022c08       ??_GArraySink@CryptoPP@@UAEPAXI@Z 00423c08 f i regtest.obj
 0001:00022c08       ??_EArraySink@CryptoPP@@UAEPAXI@Z 00423c08 f i regtest.obj
 0001:00022c08       ??_ERandomNumberStore@CryptoPP@@UAEPAXI@Z 00423c08 f i regtest.obj
 0001:00022c08       ??_GMultiplicativeGroupT@?$AbstractRing@VInteger@CryptoPP@@@CryptoPP@@UAEPAXI@Z 00423c08 f i regtest.obj
 0001:00022c08       ??_E?$PSSR_MEM@$00VP1363_MGF1@CryptoPP@@$0?0$0A@$0A@@CryptoPP@@UAEPAXI@Z 00423c08 f i regtest.obj
 0001:00022c08       ??_G?$StringSinkTemplate@V?$basic_string@DU?$char_traits@D@std@@V?$allocator@D@2@@std@@@CryptoPP@@UAEPAXI@Z 00423c08 f i regtest.obj
 0001:00022c08       ??_GEMSA2Pad@CryptoPP@@UAEPAXI@Z 00423c08 f i regtest.obj
 0001:00022c08       ??_E?$StringSinkTemplate@V?$basic_string@DU?$char_traits@D@std@@V?$allocator@D@2@@std@@@CryptoPP@@UAEPAXI@Z 00423c08 f i regtest.obj
 0001:00022c08       ??_EP1363_MGF1@CryptoPP@@UAEPAXI@Z 00423c08 f i regtest.obj
 0001:00022c08       ??_EOutputProxy@CryptoPP@@UAEPAXI@Z 00423c08 f i regtest.obj
 0001:00022c08       ??_GP1363_MGF1@CryptoPP@@UAEPAXI@Z 00423c08 f i regtest.obj
 0001:00022c08       ??_GPKCS_EncryptionPaddingScheme@CryptoPP@@UAEPAXI@Z 00423c08 f i regtest.obj
 0001:00022c08       ??_GDL_SignatureMessageEncodingMethod_DSA@CryptoPP@@UAEPAXI@Z 00423c08 f i regtest.obj
 0001:00022c08       ??_GPKCS1v15_SignatureMessageEncodingMethod@CryptoPP@@UAEPAXI@Z 00423c08 f i regtest.obj
 0001:00022c08       ??_E?$OAEP@VSHA1@CryptoPP@@VP1363_MGF1@2@@CryptoPP@@UAEPAXI@Z 00423c08 f i regtest.obj
 0001:00022c08       ??_EStringStore@CryptoPP@@UAEPAXI@Z 00423c08 f i regtest.obj
 0001:00022c08       ??_E?$EMSA5Pad@VP1363_MGF1@CryptoPP@@@CryptoPP@@UAEPAXI@Z 00423c08 f i regtest.obj
 0001:00022c08       ??_GRedirector@CryptoPP@@UAEPAXI@Z 00423c08 f i regtest.obj
 0001:00022c08       ??_G?$PSSR_MEM@$00VP1363_MGF1@CryptoPP@@$0?0$0A@$0A@@CryptoPP@@UAEPAXI@Z 00423c08 f i regtest.obj
 0001:00022c08       ??_GStringStore@CryptoPP@@UAEPAXI@Z 00423c08 f i regtest.obj
 0001:00022c08       ??_EMultiplicativeGroupT@?$AbstractRing@VInteger@CryptoPP@@@CryptoPP@@UAEPAXI@Z 00423c08 f i regtest.obj
 0001:00022c08       ??_ERedirector@CryptoPP@@UAEPAXI@Z 00423c08 f i regtest.obj
 0001:00022c08       ??_EPKCS1v15_SignatureMessageEncodingMethod@CryptoPP@@UAEPAXI@Z 00423c08 f i regtest.obj
 0001:00022c08       ??_EEMSA2Pad@CryptoPP@@UAEPAXI@Z 00423c08 f i regtest.obj
 0001:00022c08       ??_E?$PSSR_MEM@$0A@VP1363_MGF1@CryptoPP@@$0?0$0A@$0A@@CryptoPP@@UAEPAXI@Z 00423c08 f i regtest.obj
 0001:00022c08       ??_GDL_SignatureMessageEncodingMethod_NR@CryptoPP@@UAEPAXI@Z 00423c08 f i regtest.obj
 0001:00022c24       ?CreateObject@?$DefaultObjectFactory@VHashTransformation@CryptoPP@@VMD5@Weak1@2@@CryptoPP@@UBEPAVHashTransformation@2@XZ 00423c24 f i regtest.obj
 0001:00022c65       ?HashEndianCorrectedBlock@?$IteratedHashWithStaticTransform@IU?$EnumToType@W4ByteOrder@CryptoPP@@$0A@@CryptoPP@@$0EA@$0BA@VMD5@Weak1@2@$0A@$0A@@CryptoPP@@MAEXPBI@Z 00423c65 f i regtest.obj
 0001:00022c79       ?Init@?$IteratedHashWithStaticTransform@IU?$EnumToType@W4ByteOrder@CryptoPP@@$0A@@CryptoPP@@$0EA@$0BA@VRIPEMD128@2@$0A@$0A@@CryptoPP@@MAEXXZ 00423c79 f i regtest.obj
 0001:00022c79       ?Init@?$IteratedHashWithStaticTransform@IU?$EnumToType@W4ByteOrder@CryptoPP@@$0A@@CryptoPP@@$0EA@$0BA@VMD5@Weak1@2@$0A@$0A@@CryptoPP@@MAEXXZ 00423c79 f i regtest.obj
 0001:00022c79       ?Init@?$IteratedHashWithStaticTransform@IU?$EnumToType@W4ByteOrder@CryptoPP@@$0A@@CryptoPP@@$0EA@$0BA@VMD4@Weak1@2@$0A@$0A@@CryptoPP@@MAEXXZ 00423c79 f i regtest.obj
 0001:00022c86       ?Clone@?$ClonableImpl@VMD5@Weak1@CryptoPP@@V?$AlgorithmImpl@V?$IteratedHash@IU?$EnumToType@W4ByteOrder@CryptoPP@@$0A@@CryptoPP@@$0EA@VHashTransformation@2@@CryptoPP@@VMD5@Weak1@2@@3@@CryptoPP@@UBEPAVClonable@2@XZ 00423c86 f i regtest.obj
 0001:00022cdc       ?AlgorithmName@?$AlgorithmImpl@V?$IteratedHash@IU?$EnumToType@W4ByteOrder@CryptoPP@@$0A@@CryptoPP@@$0EA@VHashTransformation@2@@CryptoPP@@VMD5@Weak1@2@@CryptoPP@@UBE?AV?$basic_string@DU?$char_traits@D@std@@V?$allocator@D@2@@std@@XZ 00423cdc f i regtest.obj
 0001:00022d14       ??_EMD5@Weak1@CryptoPP@@UAEPAXI@Z 00423d14 f i regtest.obj
 0001:00022d14       ??_GMD5@Weak1@CryptoPP@@UAEPAXI@Z 00423d14 f i regtest.obj
 0001:00022d30       ??1MD5@Weak1@CryptoPP@@UAE@XZ 00423d30 f i regtest.obj
 0001:00022d35       ??1?$IteratedHashWithStaticTransform@IU?$EnumToType@W4ByteOrder@CryptoPP@@$0A@@CryptoPP@@$0EA@$0BA@VMD5@Weak1@2@$0A@$0A@@CryptoPP@@UAE@XZ 00423d35 f i regtest.obj
 0001:00022d6e       ??1?$ClonableImpl@VMD5@Weak1@CryptoPP@@V?$AlgorithmImpl@V?$IteratedHash@IU?$EnumToType@W4ByteOrder@CryptoPP@@$0A@@CryptoPP@@$0EA@VHashTransformation@2@@CryptoPP@@VMD5@Weak1@2@@3@@CryptoPP@@UAE@XZ 00423d6e f i regtest.obj
 0001:00022d94       ??0?$IteratedHash@IU?$EnumToType@W4ByteOrder@CryptoPP@@$0A@@CryptoPP@@$0EA@VHashTransformation@2@@CryptoPP@@QAE@ABV01@@Z 00423d94 f i regtest.obj
 0001:00022dd5       ?CreateObject@?$DefaultObjectFactory@VHashTransformation@CryptoPP@@VSHA1@2@@CryptoPP@@UBEPAVHashTransformation@2@XZ 00423dd5 f i regtest.obj
 0001:00022e16       ?CreateObject@?$DefaultObjectFactory@VHashTransformation@CryptoPP@@VSHA224@2@@CryptoPP@@UBEPAVHashTransformation@2@XZ 00423e16 f i regtest.obj
 0001:00022e57       ?DigestSize@?$IteratedHashWithStaticTransform@IU?$EnumToType@W4ByteOrder@CryptoPP@@$00@CryptoPP@@$0EA@$0CA@VSHA224@2@$0BM@$00@CryptoPP@@UBEIXZ 00423e57 f i regtest.obj
 0001:00022e5b       ?HashEndianCorrectedBlock@?$IteratedHashWithStaticTransform@IU?$EnumToType@W4ByteOrder@CryptoPP@@$00@CryptoPP@@$0EA@$0CA@VSHA256@2@$0CA@$00@CryptoPP@@MAEXPBI@Z 00423e5b f i regtest.obj
 0001:00022e5b       ?HashEndianCorrectedBlock@?$IteratedHashWithStaticTransform@IU?$EnumToType@W4ByteOrder@CryptoPP@@$00@CryptoPP@@$0EA@$0CA@VSHA224@2@$0BM@$00@CryptoPP@@MAEXPBI@Z 00423e5b f i regtest.obj
 0001:00022e6f       ?Init@?$IteratedHashWithStaticTransform@IU?$EnumToType@W4ByteOrder@CryptoPP@@$00@CryptoPP@@$0EA@$0CA@VSHA224@2@$0BM@$00@CryptoPP@@MAEXXZ 00423e6f f i regtest.obj
 0001:00022e7c       ?Clone@?$ClonableImpl@VSHA224@CryptoPP@@V?$AlgorithmImpl@V?$IteratedHash@IU?$EnumToType@W4ByteOrder@CryptoPP@@$00@CryptoPP@@$0EA@VHashTransformation@2@@CryptoPP@@VSHA224@2@@2@@CryptoPP@@UBEPAVClonable@2@XZ 00423e7c f i regtest.obj
 0001:00022ed2       ?AlgorithmName@?$AlgorithmImpl@V?$IteratedHash@IU?$EnumToType@W4ByteOrder@CryptoPP@@$00@CryptoPP@@$0EA@VHashTransformation@2@@CryptoPP@@VSHA224@2@@CryptoPP@@UBE?AV?$basic_string@DU?$char_traits@D@std@@V?$allocator@D@2@@std@@XZ 00423ed2 f i regtest.obj
 0001:00022f0a       ??_GSHA224@CryptoPP@@UAEPAXI@Z 00423f0a f i regtest.obj
 0001:00022f0a       ??_ESHA224@CryptoPP@@UAEPAXI@Z 00423f0a f i regtest.obj
 0001:00022f26       ??1SHA224@CryptoPP@@UAE@XZ 00423f26 f i regtest.obj
 0001:00022f2b       ??1?$IteratedHashWithStaticTransform@IU?$EnumToType@W4ByteOrder@CryptoPP@@$00@CryptoPP@@$0EA@$0CA@VSHA224@2@$0BM@$00@CryptoPP@@UAE@XZ 00423f2b f i regtest.obj
 0001:00022f64       ??1?$ClonableImpl@VSHA224@CryptoPP@@V?$AlgorithmImpl@V?$IteratedHash@IU?$EnumToType@W4ByteOrder@CryptoPP@@$00@CryptoPP@@$0EA@VHashTransformation@2@@CryptoPP@@VSHA224@2@@2@@CryptoPP@@UAE@XZ 00423f64 f i regtest.obj
 0001:00022f8a       ?CreateObject@?$DefaultObjectFactory@VHashTransformation@CryptoPP@@VSHA256@2@@CryptoPP@@UBEPAVHashTransformation@2@XZ 00423f8a f i regtest.obj
 0001:00022fcb       ?CreateObject@?$DefaultObjectFactory@VHashTransformation@CryptoPP@@VSHA384@2@@CryptoPP@@UBEPAVHashTransformation@2@XZ 00423fcb f i regtest.obj
 0001:0002300c       ?DataBuf@?$IteratedHash@_KU?$EnumToType@W4ByteOrder@CryptoPP@@$00@CryptoPP@@$0IA@VHashTransformation@2@@CryptoPP@@MAEPA_KXZ 0042400c f i regtest.obj
 0001:00023013       ?DigestSize@?$IteratedHashWithStaticTransform@_KU?$EnumToType@W4ByteOrder@CryptoPP@@$00@CryptoPP@@$0IA@$0EA@VSHA384@2@$0DA@$00@CryptoPP@@UBEIXZ 00424013 f i regtest.obj
 0001:00023017       ?HashEndianCorrectedBlock@?$IteratedHashWithStaticTransform@_KU?$EnumToType@W4ByteOrder@CryptoPP@@$00@CryptoPP@@$0IA@$0EA@VSHA512@2@$0EA@$00@CryptoPP@@MAEXPB_K@Z 00424017 f i regtest.obj
 0001:00023017       ?HashEndianCorrectedBlock@?$IteratedHashWithStaticTransform@_KU?$EnumToType@W4ByteOrder@CryptoPP@@$00@CryptoPP@@$0IA@$0EA@VSHA384@2@$0DA@$00@CryptoPP@@MAEXPB_K@Z 00424017 f i regtest.obj
 0001:0002302b       ?Init@?$IteratedHashWithStaticTransform@_KU?$EnumToType@W4ByteOrder@CryptoPP@@$00@CryptoPP@@$0IA@$0EA@VSHA384@2@$0DA@$00@CryptoPP@@MAEXXZ 0042402b f i regtest.obj
 0001:00023038       ?StateBuf@?$IteratedHashWithStaticTransform@_KU?$EnumToType@W4ByteOrder@CryptoPP@@$00@CryptoPP@@$0IA@$0EA@VSHA512@2@$0EA@$00@CryptoPP@@MAEPA_KXZ 00424038 f i regtest.obj
 0001:00023038       ?StateBuf@?$IteratedHashWithStaticTransform@_KU?$EnumToType@W4ByteOrder@CryptoPP@@$00@CryptoPP@@$0IA@$0EA@VSHA384@2@$0DA@$00@CryptoPP@@MAEPA_KXZ 00424038 f i regtest.obj
 0001:0002303f       ?Clone@?$ClonableImpl@VSHA384@CryptoPP@@V?$AlgorithmImpl@V?$IteratedHash@_KU?$EnumToType@W4ByteOrder@CryptoPP@@$00@CryptoPP@@$0IA@VHashTransformation@2@@CryptoPP@@VSHA384@2@@2@@CryptoPP@@UBEPAVClonable@2@XZ 0042403f f i regtest.obj
 0001:0002309b       ?AlgorithmName@?$AlgorithmImpl@V?$IteratedHash@_KU?$EnumToType@W4ByteOrder@CryptoPP@@$00@CryptoPP@@$0IA@VHashTransformation@2@@CryptoPP@@VSHA384@2@@CryptoPP@@UBE?AV?$basic_string@DU?$char_traits@D@std@@V?$allocator@D@2@@std@@XZ 0042409b f i regtest.obj
 0001:000230d3       ??_GSHA384@CryptoPP@@UAEPAXI@Z 004240d3 f i regtest.obj
 0001:000230d3       ??_ESHA384@CryptoPP@@UAEPAXI@Z 004240d3 f i regtest.obj
 0001:000230ef       ??1SHA384@CryptoPP@@UAE@XZ 004240ef f i regtest.obj
 0001:000230f4       ??1?$IteratedHashWithStaticTransform@_KU?$EnumToType@W4ByteOrder@CryptoPP@@$00@CryptoPP@@$0IA@$0EA@VSHA384@2@$0DA@$00@CryptoPP@@UAE@XZ 004240f4 f i regtest.obj
 0001:00023130       ??1?$ClonableImpl@VSHA384@CryptoPP@@V?$AlgorithmImpl@V?$IteratedHash@_KU?$EnumToType@W4ByteOrder@CryptoPP@@$00@CryptoPP@@$0IA@VHashTransformation@2@@CryptoPP@@VSHA384@2@@2@@CryptoPP@@UAE@XZ 00424130 f i regtest.obj
 0001:00023156       ??0?$IteratedHash@_KU?$EnumToType@W4ByteOrder@CryptoPP@@$00@CryptoPP@@$0IA@VHashTransformation@2@@CryptoPP@@QAE@ABV01@@Z 00424156 f i regtest.obj
 0001:000231a3       ??0?$SecBlock@_KV?$FixedSizeAllocatorWithCleanup@_K$0BA@V?$NullAllocator@_K@CryptoPP@@$0A@@CryptoPP@@@CryptoPP@@QAE@ABV01@@Z 004241a3 f i regtest.obj
 0001:000231a3       ??0?$SecBlock@_KV?$FixedSizeAllocatorWithCleanup@_K$0BA@V?$NullAllocator@_K@CryptoPP@@$00@CryptoPP@@@CryptoPP@@QAE@ABV01@@Z 004241a3 f i regtest.obj
 0001:000231f7       ??1?$SecBlock@_KV?$FixedSizeAllocatorWithCleanup@_K$0BA@V?$NullAllocator@_K@CryptoPP@@$0A@@CryptoPP@@@CryptoPP@@QAE@XZ 004241f7 f i regtest.obj
 0001:000231f7       ??1?$SecBlock@_KV?$FixedSizeAllocatorWithCleanup@_K$0BA@V?$NullAllocator@_K@CryptoPP@@$00@CryptoPP@@@CryptoPP@@QAE@XZ 004241f7 f i regtest.obj
 0001:00023217       ?CreateObject@?$DefaultObjectFactory@VHashTransformation@CryptoPP@@VSHA512@2@@CryptoPP@@UBEPAVHashTransformation@2@XZ 00424217 f i regtest.obj
 0001:00023258       ?DigestSize@?$IteratedHashWithStaticTransform@_KU?$EnumToType@W4ByteOrder@CryptoPP@@$00@CryptoPP@@$0EA@$0EA@VWhirlpool@2@$0A@$0A@@CryptoPP@@UBEIXZ 00424258 f i regtest.obj
 0001:00023258       ?GetIterationsToBuffer@?$AdditiveCipherConcretePolicy@I$00$0EA@UAdditiveCipherAbstractPolicy@CryptoPP@@@CryptoPP@@UBEIXZ 00424258 f i regtest.obj
 0001:00023258       ?BlockSize@?$IteratedHash@_KU?$EnumToType@W4ByteOrder@CryptoPP@@$0A@@CryptoPP@@$0EA@VHashTransformation@2@@CryptoPP@@UBEIXZ 00424258 f i regtest.obj
 0001:00023258       ?BlockSize@?$IteratedHash@_KU?$EnumToType@W4ByteOrder@CryptoPP@@$00@CryptoPP@@$0EA@VHashTransformation@2@@CryptoPP@@UBEIXZ 00424258 f i regtest.obj
 0001:00023258       ?DigestSize@?$IteratedHashWithStaticTransform@_KU?$EnumToType@W4ByteOrder@CryptoPP@@$00@CryptoPP@@$0IA@$0EA@VSHA512@2@$0EA@$00@CryptoPP@@UBEIXZ 00424258 f i regtest.obj
 0001:00023258       ?MaxKeyLength@?$SimpleKeyingInterfaceImpl@V?$TwoBases@VBlockCipher@CryptoPP@@USHACAL2_Info@2@@CryptoPP@@V12@@CryptoPP@@UBEIXZ 00424258 f i regtest.obj
 0001:00023258       ?BlockSize@?$IteratedHash@IU?$EnumToType@W4ByteOrder@CryptoPP@@$0A@@CryptoPP@@$0EA@VMessageAuthenticationCode@2@@CryptoPP@@UBEIXZ 00424258 f i regtest.obj
 0001:00023258       ?BlockSize@?$IteratedHash@IU?$EnumToType@W4ByteOrder@CryptoPP@@$0A@@CryptoPP@@$0EA@VHashTransformation@2@@CryptoPP@@UBEIXZ 00424258 f i regtest.obj
 0001:00023258       ?BlockSize@?$IteratedHash@IU?$EnumToType@W4ByteOrder@CryptoPP@@$00@CryptoPP@@$0EA@VHashTransformation@2@@CryptoPP@@UBEIXZ 00424258 f i regtest.obj
 0001:00023258       ?GetBytesPerIteration@?$AdditiveCipherConcretePolicy@I$0BA@$00UAdditiveCipherAbstractPolicy@CryptoPP@@@CryptoPP@@UBEIXZ 00424258 f i regtest.obj
 0001:0002325c       ?Init@?$IteratedHashWithStaticTransform@_KU?$EnumToType@W4ByteOrder@CryptoPP@@$00@CryptoPP@@$0IA@$0EA@VSHA512@2@$0EA@$00@CryptoPP@@MAEXXZ 0042425c f i regtest.obj
 0001:00023269       ?Clone@?$ClonableImpl@VSHA512@CryptoPP@@V?$AlgorithmImpl@V?$IteratedHash@_KU?$EnumToType@W4ByteOrder@CryptoPP@@$00@CryptoPP@@$0IA@VHashTransformation@2@@CryptoPP@@VSHA512@2@@2@@CryptoPP@@UBEPAVClonable@2@XZ 00424269 f i regtest.obj
 0001:000232c5       ?AlgorithmName@?$AlgorithmImpl@V?$IteratedHash@_KU?$EnumToType@W4ByteOrder@CryptoPP@@$00@CryptoPP@@$0IA@VHashTransformation@2@@CryptoPP@@VSHA512@2@@CryptoPP@@UBE?AV?$basic_string@DU?$char_traits@D@std@@V?$allocator@D@2@@std@@XZ 004242c5 f i regtest.obj
 0001:000232fd       ??_ESHA512@CryptoPP@@UAEPAXI@Z 004242fd f i regtest.obj
 0001:000232fd       ??_GSHA512@CryptoPP@@UAEPAXI@Z 004242fd f i regtest.obj
 0001:00023319       ??1SHA512@CryptoPP@@UAE@XZ 00424319 f i regtest.obj
 0001:0002331e       ??1?$IteratedHashWithStaticTransform@_KU?$EnumToType@W4ByteOrder@CryptoPP@@$00@CryptoPP@@$0IA@$0EA@VSHA512@2@$0EA@$00@CryptoPP@@UAE@XZ 0042431e f i regtest.obj
 0001:0002335a       ??1?$ClonableImpl@VSHA512@CryptoPP@@V?$AlgorithmImpl@V?$IteratedHash@_KU?$EnumToType@W4ByteOrder@CryptoPP@@$00@CryptoPP@@$0IA@VHashTransformation@2@@CryptoPP@@VSHA512@2@@2@@CryptoPP@@UAE@XZ 0042435a f i regtest.obj
 0001:00023380       ?CreateObject@?$DefaultObjectFactory@VHashTransformation@CryptoPP@@VWhirlpool@2@@CryptoPP@@UBEPAVHashTransformation@2@XZ 00424380 f i regtest.obj
 0001:000233c1       ?HashEndianCorrectedBlock@?$IteratedHashWithStaticTransform@_KU?$EnumToType@W4ByteOrder@CryptoPP@@$00@CryptoPP@@$0EA@$0EA@VWhirlpool@2@$0A@$0A@@CryptoPP@@MAEXPB_K@Z 004243c1 f i regtest.obj
 0001:000233d5       ?Init@?$IteratedHashWithStaticTransform@_KU?$EnumToType@W4ByteOrder@CryptoPP@@$00@CryptoPP@@$0EA@$0EA@VWhirlpool@2@$0A@$0A@@CryptoPP@@MAEXXZ 004243d5 f i regtest.obj
 0001:000233e2       ?Clone@?$ClonableImpl@VWhirlpool@CryptoPP@@V?$AlgorithmImpl@V?$IteratedHash@_KU?$EnumToType@W4ByteOrder@CryptoPP@@$00@CryptoPP@@$0EA@VHashTransformation@2@@CryptoPP@@VWhirlpool@2@@2@@CryptoPP@@UBEPAVClonable@2@XZ 004243e2 f i regtest.obj
 0001:00023438       ?AlgorithmName@?$AlgorithmImpl@V?$IteratedHash@_KU?$EnumToType@W4ByteOrder@CryptoPP@@$00@CryptoPP@@$0EA@VHashTransformation@2@@CryptoPP@@VWhirlpool@2@@CryptoPP@@UBE?AV?$basic_string@DU?$char_traits@D@std@@V?$allocator@D@2@@std@@XZ 00424438 f i regtest.obj
 0001:00023470       ?DataBuf@?$IteratedHash@_KU?$EnumToType@W4ByteOrder@CryptoPP@@$00@CryptoPP@@$0EA@VHashTransformation@2@@CryptoPP@@MAEPA_KXZ 00424470 f i regtest.obj
 0001:00023470       ?DataBuf@?$IteratedHash@_KU?$EnumToType@W4ByteOrder@CryptoPP@@$0A@@CryptoPP@@$0EA@VHashTransformation@2@@CryptoPP@@MAEPA_KXZ 00424470 f i regtest.obj
 0001:00023474       ??_EWhirlpool@CryptoPP@@UAEPAXI@Z 00424474 f i regtest.obj
 0001:00023474       ??_GWhirlpool@CryptoPP@@UAEPAXI@Z 00424474 f i regtest.obj
 0001:00023490       ??1Whirlpool@CryptoPP@@UAE@XZ 00424490 f i regtest.obj
 0001:00023495       ??1?$IteratedHashWithStaticTransform@_KU?$EnumToType@W4ByteOrder@CryptoPP@@$00@CryptoPP@@$0EA@$0EA@VWhirlpool@2@$0A@$0A@@CryptoPP@@UAE@XZ 00424495 f i regtest.obj
 0001:000234ce       ??1?$ClonableImpl@VWhirlpool@CryptoPP@@V?$AlgorithmImpl@V?$IteratedHash@_KU?$EnumToType@W4ByteOrder@CryptoPP@@$00@CryptoPP@@$0EA@VHashTransformation@2@@CryptoPP@@VWhirlpool@2@@2@@CryptoPP@@UAE@XZ 004244ce f i regtest.obj
 0001:000234f4       ??0?$IteratedHash@_KU?$EnumToType@W4ByteOrder@CryptoPP@@$00@CryptoPP@@$0EA@VHashTransformation@2@@CryptoPP@@QAE@ABV01@@Z 004244f4 f i regtest.obj
 0001:00023541       ??0?$SecBlock@_KV?$FixedSizeAllocatorWithCleanup@_K$07V?$NullAllocator@_K@CryptoPP@@$0A@@CryptoPP@@@CryptoPP@@QAE@ABV01@@Z 00424541 f i regtest.obj
 0001:0002357b       ??1?$SecBlock@_KV?$FixedSizeAllocatorWithCleanup@_K$07V?$NullAllocator@_K@CryptoPP@@$0A@@CryptoPP@@@CryptoPP@@QAE@XZ 0042457b f i regtest.obj
 0001:00023592       ?CreateObject@?$DefaultObjectFactory@VHashTransformation@CryptoPP@@VTiger@2@@CryptoPP@@UBEPAVHashTransformation@2@XZ 00424592 f i regtest.obj
 0001:000235d3       ?HashEndianCorrectedBlock@?$IteratedHashWithStaticTransform@_KU?$EnumToType@W4ByteOrder@CryptoPP@@$0A@@CryptoPP@@$0EA@$0BI@VTiger@2@$0A@$0A@@CryptoPP@@MAEXPB_K@Z 004245d3 f i regtest.obj
 0001:000235e7       ?Init@?$IteratedHashWithStaticTransform@_KU?$EnumToType@W4ByteOrder@CryptoPP@@$0A@@CryptoPP@@$0EA@$0BI@VTiger@2@$0A@$0A@@CryptoPP@@MAEXXZ 004245e7 f i regtest.obj
 0001:000235f4       ?StateBuf@?$IteratedHashWithStaticTransform@_KU?$EnumToType@W4ByteOrder@CryptoPP@@$0A@@CryptoPP@@$0EA@$0BI@VTiger@2@$0A@$0A@@CryptoPP@@MAEPA_KXZ 004245f4 f i regtest.obj
 0001:000235f4       ?StateBuf@?$IteratedHashWithStaticTransform@_KU?$EnumToType@W4ByteOrder@CryptoPP@@$00@CryptoPP@@$0EA@$0EA@VWhirlpool@2@$0A@$0A@@CryptoPP@@MAEPA_KXZ 004245f4 f i regtest.obj
 0001:000235fb       ?Clone@?$ClonableImpl@VTiger@CryptoPP@@V?$AlgorithmImpl@V?$IteratedHash@_KU?$EnumToType@W4ByteOrder@CryptoPP@@$0A@@CryptoPP@@$0EA@VHashTransformation@2@@CryptoPP@@VTiger@2@@2@@CryptoPP@@UBEPAVClonable@2@XZ 004245fb f i regtest.obj
 0001:00023651       ?AlgorithmName@?$AlgorithmImpl@V?$IteratedHash@_KU?$EnumToType@W4ByteOrder@CryptoPP@@$0A@@CryptoPP@@$0EA@VHashTransformation@2@@CryptoPP@@VTiger@2@@CryptoPP@@UBE?AV?$basic_string@DU?$char_traits@D@std@@V?$allocator@D@2@@std@@XZ 00424651 f i regtest.obj
 0001:00023689       ??_GTiger@CryptoPP@@UAEPAXI@Z 00424689 f i regtest.obj
 0001:00023689       ??_ETiger@CryptoPP@@UAEPAXI@Z 00424689 f i regtest.obj
 0001:000236a5       ??1Tiger@CryptoPP@@UAE@XZ  004246a5 f i regtest.obj
 0001:000236aa       ??1?$IteratedHashWithStaticTransform@_KU?$EnumToType@W4ByteOrder@CryptoPP@@$0A@@CryptoPP@@$0EA@$0BI@VTiger@2@$0A@$0A@@CryptoPP@@UAE@XZ 004246aa f i regtest.obj
 0001:000236e3       ??1?$ClonableImpl@VTiger@CryptoPP@@V?$AlgorithmImpl@V?$IteratedHash@_KU?$EnumToType@W4ByteOrder@CryptoPP@@$0A@@CryptoPP@@$0EA@VHashTransformation@2@@CryptoPP@@VTiger@2@@2@@CryptoPP@@UAE@XZ 004246e3 f i regtest.obj
 0001:00023709       ??0?$IteratedHash@_KU?$EnumToType@W4ByteOrder@CryptoPP@@$0A@@CryptoPP@@$0EA@VHashTransformation@2@@CryptoPP@@QAE@ABV01@@Z 00424709 f i regtest.obj
 0001:00023756       ?CreateObject@?$DefaultObjectFactory@VHashTransformation@CryptoPP@@VRIPEMD160@2@@CryptoPP@@UBEPAVHashTransformation@2@XZ 00424756 f i regtest.obj
 0001:00023797       ?HashEndianCorrectedBlock@?$IteratedHashWithStaticTransform@IU?$EnumToType@W4ByteOrder@CryptoPP@@$0A@@CryptoPP@@$0EA@$0BE@VRIPEMD160@2@$0A@$0A@@CryptoPP@@MAEXPBI@Z 00424797 f i regtest.obj
 0001:000237ab       ?StateBuf@?$IteratedHashWithStaticTransform@IU?$EnumToType@W4ByteOrder@CryptoPP@@$00@CryptoPP@@$0EA@$0BE@VSHA1@2@$0A@$0A@@CryptoPP@@MAEPAIXZ 004247ab f i regtest.obj
 0001:000237ab       ?StateBuf@?$IteratedHashWithStaticTransform@IU?$EnumToType@W4ByteOrder@CryptoPP@@$0A@@CryptoPP@@$0EA@$0CA@VRIPEMD256@2@$0A@$0A@@CryptoPP@@MAEPAIXZ 004247ab f i regtest.obj
 0001:000237ab       ?StateBuf@?$IteratedHashWithStaticTransform@IU?$EnumToType@W4ByteOrder@CryptoPP@@$0A@@CryptoPP@@$0EA@$0CI@VRIPEMD320@2@$0A@$0A@@CryptoPP@@MAEPAIXZ 004247ab f i regtest.obj
 0001:000237ab       ?StateBuf@?$IteratedHashWithStaticTransform@IU?$EnumToType@W4ByteOrder@CryptoPP@@$0A@@CryptoPP@@$0EA@$0BA@VRIPEMD128@2@$0A@$0A@@CryptoPP@@MAEPAIXZ 004247ab f i regtest.obj
 0001:000237ab       ?StateBuf@?$IteratedHashWithStaticTransform@IU?$EnumToType@W4ByteOrder@CryptoPP@@$0A@@CryptoPP@@$0EA@$0BA@VMD4@Weak1@2@$0A@$0A@@CryptoPP@@MAEPAIXZ 004247ab f i regtest.obj
 0001:000237ab       ?StateBuf@?$IteratedHashWithStaticTransform@IU?$EnumToType@W4ByteOrder@CryptoPP@@$00@CryptoPP@@$0EA@$0CA@VSHA224@2@$0BM@$00@CryptoPP@@MAEPAIXZ 004247ab f i regtest.obj
 0001:000237ab       ?StateBuf@?$IteratedHashWithStaticTransform@IU?$EnumToType@W4ByteOrder@CryptoPP@@$00@CryptoPP@@$0EA@$0CA@VSHA256@2@$0CA@$00@CryptoPP@@MAEPAIXZ 004247ab f i regtest.obj
 0001:000237ab       ?StateBuf@?$IteratedHashWithStaticTransform@IU?$EnumToType@W4ByteOrder@CryptoPP@@$0A@@CryptoPP@@$0EA@$0BE@VRIPEMD160@2@$0A@$0A@@CryptoPP@@MAEPAIXZ 004247ab f i regtest.obj
 0001:000237ab       ?StateBuf@?$IteratedHashWithStaticTransform@IU?$EnumToType@W4ByteOrder@CryptoPP@@$0A@@CryptoPP@@$0EA@$0BA@VMD5@Weak1@2@$0A@$0A@@CryptoPP@@MAEPAIXZ 004247ab f i regtest.obj
 0001:000237b2       ?Clone@?$ClonableImpl@VRIPEMD160@CryptoPP@@V?$AlgorithmImpl@V?$IteratedHash@IU?$EnumToType@W4ByteOrder@CryptoPP@@$0A@@CryptoPP@@$0EA@VHashTransformation@2@@CryptoPP@@VRIPEMD160@2@@2@@CryptoPP@@UBEPAVClonable@2@XZ 004247b2 f i regtest.obj
 0001:00023808       ?AlgorithmName@?$AlgorithmImpl@V?$IteratedHash@IU?$EnumToType@W4ByteOrder@CryptoPP@@$0A@@CryptoPP@@$0EA@VHashTransformation@2@@CryptoPP@@VRIPEMD160@2@@CryptoPP@@UBE?AV?$basic_string@DU?$char_traits@D@std@@V?$allocator@D@2@@std@@XZ 00424808 f i regtest.obj
 0001:00023840       ??_GRIPEMD160@CryptoPP@@UAEPAXI@Z 00424840 f i regtest.obj
 0001:00023840       ??_ERIPEMD160@CryptoPP@@UAEPAXI@Z 00424840 f i regtest.obj
 0001:0002385c       ??1RIPEMD160@CryptoPP@@UAE@XZ 0042485c f i regtest.obj
 0001:00023861       ??1?$IteratedHashWithStaticTransform@IU?$EnumToType@W4ByteOrder@CryptoPP@@$0A@@CryptoPP@@$0EA@$0BE@VRIPEMD160@2@$0A@$0A@@CryptoPP@@UAE@XZ 00424861 f i regtest.obj
 0001:0002389a       ??1?$ClonableImpl@VRIPEMD160@CryptoPP@@V?$AlgorithmImpl@V?$IteratedHash@IU?$EnumToType@W4ByteOrder@CryptoPP@@$0A@@CryptoPP@@$0EA@VHashTransformation@2@@CryptoPP@@VRIPEMD160@2@@2@@CryptoPP@@UAE@XZ 0042489a f i regtest.obj
 0001:000238c0       ?CreateObject@?$DefaultObjectFactory@VHashTransformation@CryptoPP@@VRIPEMD320@2@@CryptoPP@@UBEPAVHashTransformation@2@XZ 004248c0 f i regtest.obj
 0001:00023901       ?DigestSize@?$IteratedHashWithStaticTransform@IU?$EnumToType@W4ByteOrder@CryptoPP@@$0A@@CryptoPP@@$0EA@$0CI@VRIPEMD320@2@$0A@$0A@@CryptoPP@@UBEIXZ 00424901 f i regtest.obj
 0001:00023905       ?HashEndianCorrectedBlock@?$IteratedHashWithStaticTransform@IU?$EnumToType@W4ByteOrder@CryptoPP@@$0A@@CryptoPP@@$0EA@$0CI@VRIPEMD320@2@$0A@$0A@@CryptoPP@@MAEXPBI@Z 00424905 f i regtest.obj
 0001:00023919       ?Init@?$IteratedHashWithStaticTransform@IU?$EnumToType@W4ByteOrder@CryptoPP@@$0A@@CryptoPP@@$0EA@$0CI@VRIPEMD320@2@$0A@$0A@@CryptoPP@@MAEXXZ 00424919 f i regtest.obj
 0001:00023926       ?Clone@?$ClonableImpl@VRIPEMD320@CryptoPP@@V?$AlgorithmImpl@V?$IteratedHash@IU?$EnumToType@W4ByteOrder@CryptoPP@@$0A@@CryptoPP@@$0EA@VHashTransformation@2@@CryptoPP@@VRIPEMD320@2@@2@@CryptoPP@@UBEPAVClonable@2@XZ 00424926 f i regtest.obj
 0001:0002397c       ?AlgorithmName@?$AlgorithmImpl@V?$IteratedHash@IU?$EnumToType@W4ByteOrder@CryptoPP@@$0A@@CryptoPP@@$0EA@VHashTransformation@2@@CryptoPP@@VRIPEMD320@2@@CryptoPP@@UBE?AV?$basic_string@DU?$char_traits@D@std@@V?$allocator@D@2@@std@@XZ 0042497c f i regtest.obj
 0001:000239b4       ??_GRIPEMD320@CryptoPP@@UAEPAXI@Z 004249b4 f i regtest.obj
 0001:000239b4       ??_ERIPEMD320@CryptoPP@@UAEPAXI@Z 004249b4 f i regtest.obj
 0001:000239d0       ??1RIPEMD320@CryptoPP@@UAE@XZ 004249d0 f i regtest.obj
 0001:000239d5       ??1?$IteratedHashWithStaticTransform@IU?$EnumToType@W4ByteOrder@CryptoPP@@$0A@@CryptoPP@@$0EA@$0CI@VRIPEMD320@2@$0A@$0A@@CryptoPP@@UAE@XZ 004249d5 f i regtest.obj
 0001:00023a0e       ??1?$ClonableImpl@VRIPEMD320@CryptoPP@@V?$AlgorithmImpl@V?$IteratedHash@IU?$EnumToType@W4ByteOrder@CryptoPP@@$0A@@CryptoPP@@$0EA@VHashTransformation@2@@CryptoPP@@VRIPEMD320@2@@2@@CryptoPP@@UAE@XZ 00424a0e f i regtest.obj
 0001:00023a34       ?CreateObject@?$DefaultObjectFactory@VHashTransformation@CryptoPP@@VRIPEMD128@2@@CryptoPP@@UBEPAVHashTransformation@2@XZ 00424a34 f i regtest.obj
 0001:00023a75       ?HashEndianCorrectedBlock@?$IteratedHashWithStaticTransform@IU?$EnumToType@W4ByteOrder@CryptoPP@@$0A@@CryptoPP@@$0EA@$0BA@VRIPEMD128@2@$0A@$0A@@CryptoPP@@MAEXPBI@Z 00424a75 f i regtest.obj
 0001:00023a89       ?Clone@?$ClonableImpl@VRIPEMD128@CryptoPP@@V?$AlgorithmImpl@V?$IteratedHash@IU?$EnumToType@W4ByteOrder@CryptoPP@@$0A@@CryptoPP@@$0EA@VHashTransformation@2@@CryptoPP@@VRIPEMD128@2@@2@@CryptoPP@@UBEPAVClonable@2@XZ 00424a89 f i regtest.obj
 0001:00023adf       ?AlgorithmName@?$AlgorithmImpl@V?$IteratedHash@IU?$EnumToType@W4ByteOrder@CryptoPP@@$0A@@CryptoPP@@$0EA@VHashTransformation@2@@CryptoPP@@VRIPEMD128@2@@CryptoPP@@UBE?AV?$basic_string@DU?$char_traits@D@std@@V?$allocator@D@2@@std@@XZ 00424adf f i regtest.obj
 0001:00023b17       ??_ERIPEMD128@CryptoPP@@UAEPAXI@Z 00424b17 f i regtest.obj
 0001:00023b17       ??_GRIPEMD128@CryptoPP@@UAEPAXI@Z 00424b17 f i regtest.obj
 0001:00023b33       ??1RIPEMD128@CryptoPP@@UAE@XZ 00424b33 f i regtest.obj
 0001:00023b38       ??1?$IteratedHashWithStaticTransform@IU?$EnumToType@W4ByteOrder@CryptoPP@@$0A@@CryptoPP@@$0EA@$0BA@VRIPEMD128@2@$0A@$0A@@CryptoPP@@UAE@XZ 00424b38 f i regtest.obj
 0001:00023b71       ??1?$ClonableImpl@VRIPEMD128@CryptoPP@@V?$AlgorithmImpl@V?$IteratedHash@IU?$EnumToType@W4ByteOrder@CryptoPP@@$0A@@CryptoPP@@$0EA@VHashTransformation@2@@CryptoPP@@VRIPEMD128@2@@2@@CryptoPP@@UAE@XZ 00424b71 f i regtest.obj
 0001:00023b97       ?CreateObject@?$DefaultObjectFactory@VHashTransformation@CryptoPP@@VRIPEMD256@2@@CryptoPP@@UBEPAVHashTransformation@2@XZ 00424b97 f i regtest.obj
 0001:00023bd8       ?HashEndianCorrectedBlock@?$IteratedHashWithStaticTransform@IU?$EnumToType@W4ByteOrder@CryptoPP@@$0A@@CryptoPP@@$0EA@$0CA@VRIPEMD256@2@$0A@$0A@@CryptoPP@@MAEXPBI@Z 00424bd8 f i regtest.obj
 0001:00023bec       ?Init@?$IteratedHashWithStaticTransform@IU?$EnumToType@W4ByteOrder@CryptoPP@@$0A@@CryptoPP@@$0EA@$0CA@VRIPEMD256@2@$0A@$0A@@CryptoPP@@MAEXXZ 00424bec f i regtest.obj
 0001:00023bf9       ?Clone@?$ClonableImpl@VRIPEMD256@CryptoPP@@V?$AlgorithmImpl@V?$IteratedHash@IU?$EnumToType@W4ByteOrder@CryptoPP@@$0A@@CryptoPP@@$0EA@VHashTransformation@2@@CryptoPP@@VRIPEMD256@2@@2@@CryptoPP@@UBEPAVClonable@2@XZ 00424bf9 f i regtest.obj
 0001:00023c4f       ?AlgorithmName@?$AlgorithmImpl@V?$IteratedHash@IU?$EnumToType@W4ByteOrder@CryptoPP@@$0A@@CryptoPP@@$0EA@VHashTransformation@2@@CryptoPP@@VRIPEMD256@2@@CryptoPP@@UBE?AV?$basic_string@DU?$char_traits@D@std@@V?$allocator@D@2@@std@@XZ 00424c4f f i regtest.obj
 0001:00023c87       ??_ERIPEMD256@CryptoPP@@UAEPAXI@Z 00424c87 f i regtest.obj
 0001:00023c87       ??_GRIPEMD256@CryptoPP@@UAEPAXI@Z 00424c87 f i regtest.obj
 0001:00023ca3       ??1RIPEMD256@CryptoPP@@UAE@XZ 00424ca3 f i regtest.obj
 0001:00023ca8       ??1?$IteratedHashWithStaticTransform@IU?$EnumToType@W4ByteOrder@CryptoPP@@$0A@@CryptoPP@@$0EA@$0CA@VRIPEMD256@2@$0A@$0A@@CryptoPP@@UAE@XZ 00424ca8 f i regtest.obj
 0001:00023ce1       ??1?$ClonableImpl@VRIPEMD256@CryptoPP@@V?$AlgorithmImpl@V?$IteratedHash@IU?$EnumToType@W4ByteOrder@CryptoPP@@$0A@@CryptoPP@@$0EA@VHashTransformation@2@@CryptoPP@@VRIPEMD256@2@@2@@CryptoPP@@UAE@XZ 00424ce1 f i regtest.obj
 0001:00023d07       ?CreateObject@?$DefaultObjectFactory@VHashTransformation@CryptoPP@@V?$PanamaHash@U?$EnumToType@W4ByteOrder@CryptoPP@@$0A@@CryptoPP@@@Weak@2@@CryptoPP@@UBEPAVHashTransformation@2@XZ 00424d07 f i regtest.obj
 0001:00023d3c       ?CreateObject@?$DefaultObjectFactory@VHashTransformation@CryptoPP@@V?$PanamaHash@U?$EnumToType@W4ByteOrder@CryptoPP@@$00@CryptoPP@@@Weak@2@@CryptoPP@@UBEPAVHashTransformation@2@XZ 00424d3c f i regtest.obj
 0001:00023d71       ?StaticAlgorithmName@?$HMAC@VMD5@Weak1@CryptoPP@@@CryptoPP@@SA?AV?$basic_string@DU?$char_traits@D@std@@V?$allocator@D@2@@std@@XZ 00424d71 f i regtest.obj
 0001:00023df8       ?CreateObject@?$DefaultObjectFactory@VMessageAuthenticationCode@CryptoPP@@V?$HMAC@VMD5@Weak1@CryptoPP@@@2@@CryptoPP@@UBEPAVMessageAuthenticationCode@2@XZ 00424df8 f i regtest.obj
 0001:00023e2d       ?CreateObject@?$DefaultObjectFactory@VMessageAuthenticationCode@CryptoPP@@V?$HMAC@VSHA1@CryptoPP@@@2@@CryptoPP@@UBEPAVMessageAuthenticationCode@2@XZ 00424e2d f i regtest.obj
 0001:00023e62       ?StaticAlgorithmName@?$HMAC@VRIPEMD160@CryptoPP@@@CryptoPP@@SA?AV?$basic_string@DU?$char_traits@D@std@@V?$allocator@D@2@@std@@XZ 00424e62 f i regtest.obj
 0001:00023ee9       ?CreateObject@?$DefaultObjectFactory@VMessageAuthenticationCode@CryptoPP@@V?$HMAC@VRIPEMD160@CryptoPP@@@2@@CryptoPP@@UBEPAVMessageAuthenticationCode@2@XZ 00424ee9 f i regtest.obj
 0001:00023f1e       ?StaticAlgorithmName@?$HMAC@VSHA224@CryptoPP@@@CryptoPP@@SA?AV?$basic_string@DU?$char_traits@D@std@@V?$allocator@D@2@@std@@XZ 00424f1e f i regtest.obj
 0001:00023fa5       ?CreateObject@?$DefaultObjectFactory@VMessageAuthenticationCode@CryptoPP@@V?$HMAC@VSHA224@CryptoPP@@@2@@CryptoPP@@UBEPAVMessageAuthenticationCode@2@XZ 00424fa5 f i regtest.obj
 0001:00023fda       ?StaticAlgorithmName@?$HMAC@VSHA256@CryptoPP@@@CryptoPP@@SA?AV?$basic_string@DU?$char_traits@D@std@@V?$allocator@D@2@@std@@XZ 00424fda f i regtest.obj
 0001:00024061       ?CreateObject@?$DefaultObjectFactory@VMessageAuthenticationCode@CryptoPP@@V?$HMAC@VSHA256@CryptoPP@@@2@@CryptoPP@@UBEPAVMessageAuthenticationCode@2@XZ 00425061 f i regtest.obj
 0001:00024096       ?StaticAlgorithmName@?$HMAC@VSHA384@CryptoPP@@@CryptoPP@@SA?AV?$basic_string@DU?$char_traits@D@std@@V?$allocator@D@2@@std@@XZ 00425096 f i regtest.obj
 0001:0002411d       ?CreateObject@?$DefaultObjectFactory@VMessageAuthenticationCode@CryptoPP@@V?$HMAC@VSHA384@CryptoPP@@@2@@CryptoPP@@UBEPAVMessageAuthenticationCode@2@XZ 0042511d f i regtest.obj
 0001:00024152       ?StaticAlgorithmName@?$HMAC@VSHA512@CryptoPP@@@CryptoPP@@SA?AV?$basic_string@DU?$char_traits@D@std@@V?$allocator@D@2@@std@@XZ 00425152 f i regtest.obj
 0001:000241d9       ?CreateObject@?$DefaultObjectFactory@VMessageAuthenticationCode@CryptoPP@@V?$HMAC@VSHA512@CryptoPP@@@2@@CryptoPP@@UBEPAVMessageAuthenticationCode@2@XZ 004251d9 f i regtest.obj
 0001:0002420e       ?StaticAlgorithmName@?$AlgorithmImpl@V?$SimpleKeyingInterfaceImpl@VTTMAC_Base@CryptoPP@@V12@@CryptoPP@@VTTMAC_Base@2@@CryptoPP@@SA?AV?$basic_string@DU?$char_traits@D@std@@V?$allocator@D@2@@std@@XZ 0042520e f i regtest.obj
 0001:00024224       ?StaticAlgorithmName@TTMAC_Base@CryptoPP@@SA?AV?$basic_string@DU?$char_traits@D@std@@V?$allocator@D@2@@std@@XZ 00425224 f i regtest.obj
 0001:0002425a       ?CreateObject@?$DefaultObjectFactory@VMessageAuthenticationCode@CryptoPP@@V?$MessageAuthenticationCodeFinal@VTTMAC_Base@CryptoPP@@@2@@CryptoPP@@UBEPAVMessageAuthenticationCode@2@XZ 0042525a f i regtest.obj
 0001:000242a2       ?DataBuf@?$IteratedHash@IU?$EnumToType@W4ByteOrder@CryptoPP@@$0A@@CryptoPP@@$0EA@VMessageAuthenticationCode@2@@CryptoPP@@MAEPAIXZ 004252a2 f i regtest.obj
 0001:000242a6       ?HashEndianCorrectedBlock@TTMAC_Base@CryptoPP@@MAEXPBI@Z 004252a6 f i regtest.obj
 0001:000242bd       ?StateBuf@TTMAC_Base@CryptoPP@@MAEPAIXZ 004252bd f i regtest.obj
 0001:000242c4       ?Clone@?$ClonableImpl@V?$MessageAuthenticationCodeFinal@VTTMAC_Base@CryptoPP@@@CryptoPP@@V?$MessageAuthenticationCodeImpl@VTTMAC_Base@CryptoPP@@V12@@2@@CryptoPP@@UBEPAVClonable@2@XZ 004252c4 f i regtest.obj
 0001:0002431d       ?AlgorithmName@?$AlgorithmImpl@V?$SimpleKeyingInterfaceImpl@VTTMAC_Base@CryptoPP@@V12@@CryptoPP@@VTTMAC_Base@2@@CryptoPP@@UBE?AV?$basic_string@DU?$char_traits@D@std@@V?$allocator@D@2@@std@@XZ 0042531d f i regtest.obj
 0001:00024335       ?GetValidKeyLength@?$SimpleKeyingInterfaceImpl@V?$ConcretePolicyHolder@V?$SEAL_Policy@U?$EnumToType@W4ByteOrder@CryptoPP@@$0A@@CryptoPP@@@CryptoPP@@V?$AdditiveCipherTemplate@V?$AbstractPolicyHolder@UAdditiveCipherAbstractPolicy@CryptoPP@@VSymmetricCipher@2@@CryptoPP@@@2@UAdditiveCipherAbstractPolicy@2@@CryptoPP@@U?$SEAL_Info@U?$EnumToType@W4ByteOrder@CryptoPP@@$0A@@CryptoPP@@@2@@CryptoPP@@UBEII@Z 00425335 f i regtest.obj
 0001:00024335       ?GetValidKeyLength@?$SimpleKeyingInterfaceImpl@V?$ConcretePolicyHolder@V?$SEAL_Policy@U?$EnumToType@W4ByteOrder@CryptoPP@@$00@CryptoPP@@@CryptoPP@@V?$AdditiveCipherTemplate@V?$AbstractPolicyHolder@UAdditiveCipherAbstractPolicy@CryptoPP@@VSymmetricCipher@2@@CryptoPP@@@2@UAdditiveCipherAbstractPolicy@2@@CryptoPP@@U?$SEAL_Info@U?$EnumToType@W4ByteOrder@CryptoPP@@$00@CryptoPP@@@2@@CryptoPP@@UBEII@Z 00425335 f i regtest.obj
 0001:00024335       ?GetValidKeyLength@?$SimpleKeyingInterfaceImpl@VTTMAC_Base@CryptoPP@@V12@@CryptoPP@@UBEII@Z 00425335 f i regtest.obj
 0001:0002433b       ?StaticAlgorithmName@?$VMAC@VRijndael@CryptoPP@@$0IA@@CryptoPP@@SA?AV?$basic_string@DU?$char_traits@D@std@@V?$allocator@D@2@@std@@XZ 0042533b f i regtest.obj
 0001:000243ff       ?CreateObject@?$DefaultObjectFactory@VMessageAuthenticationCode@CryptoPP@@V?$VMAC@VRijndael@CryptoPP@@$0IA@@2@@CryptoPP@@UBEPAVMessageAuthenticationCode@2@XZ 004253ff f i regtest.obj
 0001:00024434       ?StaticAlgorithmName@?$VMAC@VRijndael@CryptoPP@@$0EA@@CryptoPP@@SA?AV?$basic_string@DU?$char_traits@D@std@@V?$allocator@D@2@@std@@XZ 00425434 f i regtest.obj
 0001:000244f5       ?CreateObject@?$DefaultObjectFactory@VMessageAuthenticationCode@CryptoPP@@V?$VMAC@VRijndael@CryptoPP@@$0EA@@2@@CryptoPP@@UBEPAVMessageAuthenticationCode@2@XZ 004254f5 f i regtest.obj
 0001:0002452a       ?StaticAlgorithmName@?$AlgorithmImpl@V?$SimpleKeyingInterfaceImpl@V?$ConcretePolicyHolder@V?$PanamaCipherPolicy@U?$EnumToType@W4ByteOrder@CryptoPP@@$0A@@CryptoPP@@@CryptoPP@@V?$AdditiveCipherTemplate@V?$AbstractPolicyHolder@UAdditiveCipherAbstractPolicy@CryptoPP@@VSymmetricCipher@2@@CryptoPP@@@2@UAdditiveCipherAbstractPolicy@2@@CryptoPP@@U?$PanamaCipherInfo@U?$EnumToType@W4ByteOrder@CryptoPP@@$0A@@CryptoPP@@@2@@CryptoPP@@U?$PanamaCipherInfo@U?$EnumToType@W4ByteOrder@CryptoPP@@$0A@@CryptoPP@@@2@@CryptoPP@@SA?AV?$basic_string@DU?$char_traits@D@std@@V?$allocator@D@2@@std@@XZ 0042552a f i regtest.obj
 0001:0002452a       ?StaticAlgorithmName@?$AlgorithmImpl@V?$SimpleKeyingInterfaceImpl@V?$TwoBases@VMessageAuthenticationCode@CryptoPP@@V?$VariableKeyLength@$0CA@$0A@$0HPPPPPPP@$00$03$0A@@2@@CryptoPP@@V12@@CryptoPP@@V?$PanamaHash@U?$EnumToType@W4ByteOrder@CryptoPP@@$0A@@CryptoPP@@@Weak@2@@CryptoPP@@SA?AV?$basic_string@DU?$char_traits@D@std@@V?$allocator@D@2@@std@@XZ 0042552a f i regtest.obj
 0001:00024560       ?CreateObject@?$DefaultObjectFactory@VMessageAuthenticationCode@CryptoPP@@V?$PanamaMAC@U?$EnumToType@W4ByteOrder@CryptoPP@@$0A@@CryptoPP@@@Weak@2@@CryptoPP@@UBEPAVMessageAuthenticationCode@2@XZ 00425560 f i regtest.obj
 0001:000245a8       ?UncheckedSetKey@?$HermeticHashFunctionMAC@V?$PanamaHash@U?$EnumToType@W4ByteOrder@CryptoPP@@$0A@@CryptoPP@@@Weak@CryptoPP@@V123@@CryptoPP@@UAEXPBEIABVNameValuePairs@2@@Z 004255a8 f i regtest.obj
 0001:000245a8       ?UncheckedSetKey@?$HermeticHashFunctionMAC@V?$PanamaHash@U?$EnumToType@W4ByteOrder@CryptoPP@@$00@CryptoPP@@@Weak@CryptoPP@@V123@@CryptoPP@@UAEXPBEIABVNameValuePairs@2@@Z 004255a8 f i regtest.obj
 0001:000245e1       ?TruncatedFinal@?$HermeticHashFunctionMAC@V?$PanamaHash@U?$EnumToType@W4ByteOrder@CryptoPP@@$00@CryptoPP@@@Weak@CryptoPP@@V123@@CryptoPP@@UAEXPAEI@Z 004255e1 f i regtest.obj
 0001:000245e1       ?TruncatedFinal@?$HermeticHashFunctionMAC@V?$PanamaHash@U?$EnumToType@W4ByteOrder@CryptoPP@@$0A@@CryptoPP@@@Weak@CryptoPP@@V123@@CryptoPP@@UAEXPAEI@Z 004255e1 f i regtest.obj
 0001:00024611       ?DigestSize@?$HermeticHashFunctionMAC@V?$PanamaHash@U?$EnumToType@W4ByteOrder@CryptoPP@@$0A@@CryptoPP@@@Weak@CryptoPP@@V123@@CryptoPP@@UBEIXZ 00425611 f i regtest.obj
 0001:00024611       ?DigestSize@?$HermeticHashFunctionMAC@V?$PanamaHash@U?$EnumToType@W4ByteOrder@CryptoPP@@$00@CryptoPP@@@Weak@CryptoPP@@V123@@CryptoPP@@UBEIXZ 00425611 f i regtest.obj
 0001:0002461a       ?BlockSize@?$HermeticHashFunctionMAC@V?$PanamaHash@U?$EnumToType@W4ByteOrder@CryptoPP@@$0A@@CryptoPP@@@Weak@CryptoPP@@V123@@CryptoPP@@UBEIXZ 0042561a f i regtest.obj
 0001:0002461a       ?BlockSize@?$HermeticHashFunctionMAC@V?$PanamaHash@U?$EnumToType@W4ByteOrder@CryptoPP@@$00@CryptoPP@@@Weak@CryptoPP@@V123@@CryptoPP@@UBEIXZ 0042561a f i regtest.obj
 0001:00024623       ?OptimalBlockSize@?$HermeticHashFunctionMAC@V?$PanamaHash@U?$EnumToType@W4ByteOrder@CryptoPP@@$00@CryptoPP@@@Weak@CryptoPP@@V123@@CryptoPP@@UBEIXZ 00425623 f i regtest.obj
 0001:00024623       ?OptimalBlockSize@?$HermeticHashFunctionMAC@V?$PanamaHash@U?$EnumToType@W4ByteOrder@CryptoPP@@$0A@@CryptoPP@@@Weak@CryptoPP@@V123@@CryptoPP@@UBEIXZ 00425623 f i regtest.obj
 0001:0002462c       ?OptimalDataAlignment@?$HermeticHashFunctionMAC@V?$PanamaHash@U?$EnumToType@W4ByteOrder@CryptoPP@@$0A@@CryptoPP@@@Weak@CryptoPP@@V123@@CryptoPP@@UBEIXZ 0042562c f i regtest.obj
 0001:0002462c       ?OptimalDataAlignment@?$HermeticHashFunctionMAC@V?$PanamaHash@U?$EnumToType@W4ByteOrder@CryptoPP@@$00@CryptoPP@@@Weak@CryptoPP@@V123@@CryptoPP@@UBEIXZ 0042562c f i regtest.obj
 0001:00024635       ?StaticAlgorithmName@?$AlgorithmImpl@V?$SimpleKeyingInterfaceImpl@V?$TwoBases@VMessageAuthenticationCode@CryptoPP@@V?$VariableKeyLength@$0CA@$0A@$0HPPPPPPP@$00$03$0A@@2@@CryptoPP@@V12@@CryptoPP@@V?$PanamaHash@U?$EnumToType@W4ByteOrder@CryptoPP@@$00@CryptoPP@@@Weak@2@@CryptoPP@@SA?AV?$basic_string@DU?$char_traits@D@std@@V?$allocator@D@2@@std@@XZ 00425635 f i regtest.obj
 0001:00024635       ?StaticAlgorithmName@?$AlgorithmImpl@V?$SimpleKeyingInterfaceImpl@V?$ConcretePolicyHolder@V?$PanamaCipherPolicy@U?$EnumToType@W4ByteOrder@CryptoPP@@$00@CryptoPP@@@CryptoPP@@V?$AdditiveCipherTemplate@V?$AbstractPolicyHolder@UAdditiveCipherAbstractPolicy@CryptoPP@@VSymmetricCipher@2@@CryptoPP@@@2@UAdditiveCipherAbstractPolicy@2@@CryptoPP@@U?$PanamaCipherInfo@U?$EnumToType@W4ByteOrder@CryptoPP@@$00@CryptoPP@@@2@@CryptoPP@@U?$PanamaCipherInfo@U?$EnumToType@W4ByteOrder@CryptoPP@@$00@CryptoPP@@@2@@CryptoPP@@SA?AV?$basic_string@DU?$char_traits@D@std@@V?$allocator@D@2@@std@@XZ 00425635 f i regtest.obj
 0001:0002466b       ?CreateObject@?$DefaultObjectFactory@VMessageAuthenticationCode@CryptoPP@@V?$PanamaMAC@U?$EnumToType@W4ByteOrder@CryptoPP@@$00@CryptoPP@@@Weak@2@@CryptoPP@@UBEPAVMessageAuthenticationCode@2@XZ 0042566b f i regtest.obj
 0001:000246b3       ?Restart@?$HermeticHashFunctionMAC@V?$PanamaHash@U?$EnumToType@W4ByteOrder@CryptoPP@@$00@CryptoPP@@@Weak@CryptoPP@@V123@@CryptoPP@@UAEXXZ 004256b3 f i regtest.obj
 0001:000246b3       ?Restart@?$HermeticHashFunctionMAC@V?$PanamaHash@U?$EnumToType@W4ByteOrder@CryptoPP@@$0A@@CryptoPP@@@Weak@CryptoPP@@V123@@CryptoPP@@UAEXXZ 004256b3 f i regtest.obj
 0001:000246c8       ?Update@?$HermeticHashFunctionMAC@V?$PanamaHash@U?$EnumToType@W4ByteOrder@CryptoPP@@$00@CryptoPP@@@Weak@CryptoPP@@V123@@CryptoPP@@UAEXPBEI@Z 004256c8 f i regtest.obj
 0001:000246c8       ?Update@?$HermeticHashFunctionMAC@V?$PanamaHash@U?$EnumToType@W4ByteOrder@CryptoPP@@$0A@@CryptoPP@@@Weak@CryptoPP@@V123@@CryptoPP@@UAEXPBEI@Z 004256c8 f i regtest.obj
 0001:000246f1       ?StaticAlgorithmName@?$CMAC@VRijndael@CryptoPP@@@CryptoPP@@SA?AV?$basic_string@DU?$char_traits@D@std@@V?$allocator@D@2@@std@@XZ 004256f1 f i regtest.obj
 0001:00024778       ?CreateObject@?$DefaultObjectFactory@VMessageAuthenticationCode@CryptoPP@@V?$CMAC@VRijndael@CryptoPP@@@2@@CryptoPP@@UBEPAVMessageAuthenticationCode@2@XZ 00425778 f i regtest.obj
 0001:000247ad       ?StaticAlgorithmName@?$AlgorithmImpl@V?$SimpleKeyingInterfaceImpl@V?$DMAC_Base@VRijndael@CryptoPP@@@CryptoPP@@V12@@CryptoPP@@V?$DMAC_Base@VRijndael@CryptoPP@@@2@@CryptoPP@@SA?AV?$basic_string@DU?$char_traits@D@std@@V?$allocator@D@2@@std@@XZ 004257ad f i regtest.obj
 0001:000247c3       ?CreateObject@?$DefaultObjectFactory@VMessageAuthenticationCode@CryptoPP@@V?$DMAC@VRijndael@CryptoPP@@@2@@CryptoPP@@UBEPAVMessageAuthenticationCode@2@XZ 004257c3 f i regtest.obj
 0001:000247f8       ?StaticAlgorithmName@?$CMAC@VDES_EDE3@CryptoPP@@@CryptoPP@@SA?AV?$basic_string@DU?$char_traits@D@std@@V?$allocator@D@2@@std@@XZ 004257f8 f i regtest.obj
 0001:0002487f       ?CreateObject@?$DefaultObjectFactory@VMessageAuthenticationCode@CryptoPP@@V?$CMAC@VDES_EDE3@CryptoPP@@@2@@CryptoPP@@UBEPAVMessageAuthenticationCode@2@XZ 0042587f f i regtest.obj
 0001:000248b4       ??0?$VMAC@VRijndael@CryptoPP@@$0IA@@CryptoPP@@QAE@XZ 004258b4 f i regtest.obj
 0001:000248f2       ??_9@$BCA@AE               004258f2 f i regtest.obj
 0001:000248f2       ?MaxIVLength@SimpleKeyingInterface@CryptoPP@@UBEIXZ 004258f2 f i regtest.obj
 0001:000248f2       ?OptimalBlockSize@?$IteratedHashBase@_KVMessageAuthenticationCode@CryptoPP@@@CryptoPP@@UBEIXZ 004258f2 f i regtest.obj
 0001:000248f2       ?OptimalBlockSize@?$IteratedHashBase@IVHashTransformation@CryptoPP@@@CryptoPP@@UBEIXZ 004258f2 f i regtest.obj
 0001:000248f2       ?MinIVLength@SimpleKeyingInterface@CryptoPP@@UBEIXZ 004258f2 f i regtest.obj
 0001:000248f2       ?OptimalBlockSize@?$IteratedHashBase@_KVHashTransformation@CryptoPP@@@CryptoPP@@UBEIXZ 004258f2 f i regtest.obj
 0001:000248f2       ?OptimalBlockSize@?$IteratedHashBase@IVMessageAuthenticationCode@CryptoPP@@@CryptoPP@@UBEIXZ 004258f2 f i regtest.obj
 0001:000248f7       ?AlgorithmName@VMAC_Base@CryptoPP@@UBE?AV?$basic_string@DU?$char_traits@D@std@@V?$allocator@D@2@@std@@XZ 004258f7 f i regtest.obj
 0001:000249e9       ?DigestSize@VMAC_Base@CryptoPP@@UBEIXZ 004259e9 f i regtest.obj
 0001:000249f7       ?BlockSize@VMAC_Base@CryptoPP@@UBEIXZ 004259f7 f i regtest.obj
 0001:000249fb       ?DataBuf@VMAC_Base@CryptoPP@@MAEPA_KXZ 004259fb f i regtest.obj
 0001:00024a08       ?SS2@VMAC_Base@CryptoPP@@IAEIXZ 00425a08 f i regtest.obj
 0001:00024a20       ?GetValidKeyLength@?$SimpleKeyingInterfaceImpl@VCBC_MAC_Base@CryptoPP@@V?$CBC_MAC@VRijndael@CryptoPP@@@2@@CryptoPP@@UBEII@Z 00425a20 f i regtest.obj
 0001:00024a20       ?GetValidKeyLength@?$SimpleKeyingInterfaceImpl@V?$DMAC_Base@VRijndael@CryptoPP@@@CryptoPP@@V12@@CryptoPP@@UBEII@Z 00425a20 f i regtest.obj
 0001:00024a20       ?GetValidKeyLength@?$SimpleKeyingInterfaceImpl@VCMAC_Base@CryptoPP@@V?$CMAC@VRijndael@CryptoPP@@@2@@CryptoPP@@UBEII@Z 00425a20 f i regtest.obj
 0001:00024a20       ?GetValidKeyLength@?$SimpleKeyingInterfaceImpl@VVMAC_Base@CryptoPP@@V?$SameKeyLengthAs@VRijndael@CryptoPP@@$0A@$0BA@@2@@CryptoPP@@UBEII@Z 00425a20 f i regtest.obj
 0001:00024a2d       ??0?$VMAC@VRijndael@CryptoPP@@$0EA@@CryptoPP@@QAE@XZ 00425a2d f i regtest.obj
 0001:00024a6b       ?AccessCipher@?$VMAC@VRijndael@CryptoPP@@$0IA@@CryptoPP@@EAEAAVBlockCipher@2@XZ 00425a6b f i regtest.obj
 0001:00024a6b       ?AccessCipher@?$VMAC@VRijndael@CryptoPP@@$0EA@@CryptoPP@@EAEAAVBlockCipher@2@XZ 00425a6b f i regtest.obj
 0001:00024a6f       ??_G?$MessageAuthenticationCodeFinal@VTTMAC_Base@CryptoPP@@@CryptoPP@@UAEPAXI@Z 00425a6f f i regtest.obj
 0001:00024a6f       ??_E?$MessageAuthenticationCodeFinal@VTTMAC_Base@CryptoPP@@@CryptoPP@@UAEPAXI@Z 00425a6f f i regtest.obj
 0001:00024a8b       ??_E?$VMAC@VRijndael@CryptoPP@@$0IA@@CryptoPP@@UAEPAXI@Z 00425a8b f i regtest.obj
 0001:00024a8b       ??_G?$VMAC@VRijndael@CryptoPP@@$0IA@@CryptoPP@@UAEPAXI@Z 00425a8b f i regtest.obj
 0001:00024aa7       ??1?$SimpleKeyingInterfaceImpl@VVMAC_Base@CryptoPP@@V?$SameKeyLengthAs@VRijndael@CryptoPP@@$0A@$0BA@@2@@CryptoPP@@UAE@XZ 00425aa7 f i regtest.obj
 0001:00024acd       ??_G?$VMAC@VRijndael@CryptoPP@@$0EA@@CryptoPP@@UAEPAXI@Z 00425acd f i regtest.obj
 0001:00024acd       ??_E?$VMAC@VRijndael@CryptoPP@@$0EA@@CryptoPP@@UAEPAXI@Z 00425acd f i regtest.obj
 0001:00024ae9       ??1?$ClonableImpl@V?$MessageAuthenticationCodeFinal@VTTMAC_Base@CryptoPP@@@CryptoPP@@V?$MessageAuthenticationCodeImpl@VTTMAC_Base@CryptoPP@@V12@@2@@CryptoPP@@UAE@XZ 00425ae9 f i regtest.obj
 0001:00024ae9       ??1?$MessageAuthenticationCodeFinal@VTTMAC_Base@CryptoPP@@@CryptoPP@@UAE@XZ 00425ae9 f i regtest.obj
 0001:00024aee       ??1?$VMAC@VRijndael@CryptoPP@@$0IA@@CryptoPP@@UAE@XZ 00425aee f i regtest.obj
 0001:00024b27       ??0VMAC_Base@CryptoPP@@QAE@XZ 00425b27 f i regtest.obj
 0001:00024b67       ?IVSize@VMAC_Base@CryptoPP@@UBEIXZ 00425b67 f i regtest.obj
 0001:00024b75       ??1?$VMAC@VRijndael@CryptoPP@@$0EA@@CryptoPP@@UAE@XZ 00425b75 f i regtest.obj
 0001:00024bae       ??_EVMAC_Base@CryptoPP@@UAEPAXI@Z 00425bae f i regtest.obj
 0001:00024bae       ??_GVMAC_Base@CryptoPP@@UAEPAXI@Z 00425bae f i regtest.obj
 0001:00024bca       ??1VMAC_Base@CryptoPP@@UAE@XZ 00425bca f i regtest.obj
 0001:00024bf0       ??0TTMAC_Base@CryptoPP@@QAE@ABV01@@Z 00425bf0 f i regtest.obj
 0001:00024c68       ??1TTMAC_Base@CryptoPP@@UAE@XZ 00425c68 f i regtest.obj
 0001:00024cb3       ??1?$IteratedHash@IU?$EnumToType@W4ByteOrder@CryptoPP@@$0A@@CryptoPP@@$0EA@VMessageAuthenticationCode@2@@CryptoPP@@UAE@XZ 00425cb3 f i regtest.obj
 0001:00024cd9       ??1?$FixedSizeSecBlock@I$09V?$FixedSizeAllocatorWithCleanup@I$09V?$NullAllocator@I@CryptoPP@@$0A@@CryptoPP@@@CryptoPP@@QAE@XZ 00425cd9 f i regtest.obj
 0001:00024cde       ??0?$IteratedHashBase@IVMessageAuthenticationCode@CryptoPP@@@CryptoPP@@QAE@ABV01@@Z 00425cde f i regtest.obj
 0001:00024cf3       ??A?$map@V?$basic_string@DU?$char_traits@D@std@@V?$allocator@D@2@@std@@PAXU?$less@V?$basic_string@DU?$char_traits@D@std@@V?$allocator@D@2@@std@@@2@V?$allocator@PAX@2@@std@@QAEAAPAXABV?$basic_string@DU?$char_traits@D@std@@V?$allocator@D@2@@1@@Z 00425cf3 f i regtest.obj
 0001:00024d63       ??0?$IteratedHashBase@_KVMessageAuthenticationCode@CryptoPP@@@CryptoPP@@QAE@XZ 00425d63 f i regtest.obj
 0001:00024da0       ??0?$IteratedHashWithStaticTransform@IU?$EnumToType@W4ByteOrder@CryptoPP@@$00@CryptoPP@@$0EA@$0CA@VSHA224@2@$0BM@$00@CryptoPP@@IAE@XZ 00425da0 f i regtest.obj
 0001:00024de3       ??0?$IteratedHashWithStaticTransform@_KU?$EnumToType@W4ByteOrder@CryptoPP@@$00@CryptoPP@@$0IA@$0EA@VSHA512@2@$0EA@$00@CryptoPP@@IAE@XZ 00425de3 f i regtest.obj
 0001:00024e29       ??1?$FixedSizeAlignedSecBlock@_K$0BA@$00@CryptoPP@@QAE@XZ 00425e29 f i regtest.obj
 0001:00024e2e       ??0?$IteratedHashWithStaticTransform@_KU?$EnumToType@W4ByteOrder@CryptoPP@@$00@CryptoPP@@$0IA@$0EA@VSHA384@2@$0DA@$00@CryptoPP@@IAE@XZ 00425e2e f i regtest.obj
 0001:00024e74       ??0?$DH_Domain@VDL_GroupParameters_GFP_DefaultSafePrime@CryptoPP@@U?$EnumToType@W4CofactorMultiplicationOption@CryptoPP@@$0A@@2@@CryptoPP@@QAE@XZ 00425e74 f i regtest.obj
 0001:00024eaf       ?GeneratePublicKey@?$DH_Domain@VDL_GroupParameters_GFP_DefaultSafePrime@CryptoPP@@U?$EnumToType@W4CofactorMultiplicationOption@CryptoPP@@$0A@@2@@CryptoPP@@UBEXAAVRandomNumberGenerator@2@PBEPAE@Z 00425eaf f i regtest.obj
 0001:00025025       ?AlgorithmName@?$DH_Domain@VDL_GroupParameters_GFP_DefaultSafePrime@CryptoPP@@U?$EnumToType@W4CofactorMultiplicationOption@CryptoPP@@$0A@@2@@CryptoPP@@UBE?AV?$basic_string@DU?$char_traits@D@std@@V?$allocator@D@2@@std@@XZ 00426025 f i regtest.obj
 0001:0002503d       ?AccessCryptoParameters@?$DL_SimpleKeyAgreementDomainBase@UEC2NPoint@CryptoPP@@@CryptoPP@@UAEAAVCryptoParameters@2@XZ 0042603d f i regtest.obj
 0001:0002503d       ?AccessCryptoParameters@?$DL_SimpleKeyAgreementDomainBase@UECPPoint@CryptoPP@@@CryptoPP@@UAEAAVCryptoParameters@2@XZ 0042603d f i regtest.obj
 0001:0002503d       ?AccessCryptoParameters@?$DL_SimpleKeyAgreementDomainBase@VInteger@CryptoPP@@@CryptoPP@@UAEAAVCryptoParameters@2@XZ 0042603d f i regtest.obj
 0001:00025042       ?AgreedValueLength@?$DL_SimpleKeyAgreementDomainBase@VInteger@CryptoPP@@@CryptoPP@@UBEIXZ 00426042 f i regtest.obj
 0001:00025042       ?AgreedValueLength@?$DL_SimpleKeyAgreementDomainBase@UEC2NPoint@CryptoPP@@@CryptoPP@@UBEIXZ 00426042 f i regtest.obj
 0001:00025042       ?AgreedValueLength@?$DL_SimpleKeyAgreementDomainBase@UECPPoint@CryptoPP@@@CryptoPP@@UBEIXZ 00426042 f i regtest.obj
 0001:00025051       ?PrivateKeyLength@?$DL_SimpleKeyAgreementDomainBase@UECPPoint@CryptoPP@@@CryptoPP@@UBEIXZ 00426051 f i regtest.obj
 0001:00025051       ?PrivateKeyLength@?$DL_SimpleKeyAgreementDomainBase@VInteger@CryptoPP@@@CryptoPP@@UBEIXZ 00426051 f i regtest.obj
 0001:00025051       ?PrivateKeyLength@?$DL_SimpleKeyAgreementDomainBase@UEC2NPoint@CryptoPP@@@CryptoPP@@UBEIXZ 00426051 f i regtest.obj
 0001:00025064       ?GeneratePrivateKey@?$DL_SimpleKeyAgreementDomainBase@VInteger@CryptoPP@@@CryptoPP@@UBEXAAVRandomNumberGenerator@2@PAE@Z 00426064 f i regtest.obj
 0001:000250ef       ?GeneratePublicKey@?$DL_SimpleKeyAgreementDomainBase@VInteger@CryptoPP@@@CryptoPP@@UBEXAAVRandomNumberGenerator@2@PBEPAE@Z 004260ef f i regtest.obj
 0001:0002516e       ?Agree@?$DL_SimpleKeyAgreementDomainBase@VInteger@CryptoPP@@@CryptoPP@@UBE_NPAEPBE1_N@Z 0042616e f i regtest.obj
 0001:00025238       ??0?$IteratedHashWithStaticTransform@IU?$EnumToType@W4ByteOrder@CryptoPP@@$0A@@CryptoPP@@$0EA@$0BA@VMD5@Weak1@2@$0A@$0A@@CryptoPP@@IAE@XZ 00426238 f i regtest.obj
 0001:0002527b       ??0?$IteratedHashWithStaticTransform@IU?$EnumToType@W4ByteOrder@CryptoPP@@$0A@@CryptoPP@@$0EA@$0BE@VRIPEMD160@2@$0A@$0A@@CryptoPP@@IAE@XZ 0042627b f i regtest.obj
 0001:000252be       ??0?$IteratedHashWithStaticTransform@IU?$EnumToType@W4ByteOrder@CryptoPP@@$0A@@CryptoPP@@$0EA@$0CI@VRIPEMD320@2@$0A@$0A@@CryptoPP@@IAE@XZ 004262be f i regtest.obj
 0001:00025301       ??0?$IteratedHashWithStaticTransform@IU?$EnumToType@W4ByteOrder@CryptoPP@@$0A@@CryptoPP@@$0EA@$0BA@VRIPEMD128@2@$0A@$0A@@CryptoPP@@IAE@XZ 00426301 f i regtest.obj
 0001:00025344       ??0?$IteratedHashWithStaticTransform@IU?$EnumToType@W4ByteOrder@CryptoPP@@$0A@@CryptoPP@@$0EA@$0CA@VRIPEMD256@2@$0A@$0A@@CryptoPP@@IAE@XZ 00426344 f i regtest.obj
 0001:00025387       ??0?$IteratedHashWithStaticTransform@_KU?$EnumToType@W4ByteOrder@CryptoPP@@$00@CryptoPP@@$0EA@$0EA@VWhirlpool@2@$0A@$0A@@CryptoPP@@IAE@XZ 00426387 f i regtest.obj
 0001:000253ca       ??1?$FixedSizeAlignedSecBlock@_K$07$0A@@CryptoPP@@QAE@XZ 004263ca f i regtest.obj
 0001:000253cf       ??0?$SecBlock@IV?$FixedSizeAllocatorWithCleanup@I$09V?$NullAllocator@I@CryptoPP@@$0A@@CryptoPP@@@CryptoPP@@QAE@ABV01@@Z 004263cf f i regtest.obj
 0001:00025409       ??1?$SecBlock@IV?$FixedSizeAllocatorWithCleanup@I$09V?$NullAllocator@I@CryptoPP@@$0A@@CryptoPP@@@CryptoPP@@QAE@XZ 00426409 f i regtest.obj
 0001:00025420       ??0?$SecBlock@IV?$FixedSizeAllocatorWithCleanup@I$04V?$NullAllocator@I@CryptoPP@@$0A@@CryptoPP@@@CryptoPP@@QAE@ABV01@@Z 00426420 f i regtest.obj
 0001:0002545a       ??1?$SecBlock@IV?$FixedSizeAllocatorWithCleanup@I$04V?$NullAllocator@I@CryptoPP@@$0A@@CryptoPP@@@CryptoPP@@QAE@XZ 0042645a f i regtest.obj
 0001:00025471       ??0?$IteratedHashWithStaticTransform@_KU?$EnumToType@W4ByteOrder@CryptoPP@@$0A@@CryptoPP@@$0EA@$0BI@VTiger@2@$0A@$0A@@CryptoPP@@IAE@XZ 00426471 f i regtest.obj
 0001:000254b4       ??0?$PanamaHash@U?$EnumToType@W4ByteOrder@CryptoPP@@$0A@@CryptoPP@@@Weak@CryptoPP@@QAE@XZ 004264b4 f i regtest.obj
 0001:00025501       ?HashEndianCorrectedBlock@?$PanamaHash@U?$EnumToType@W4ByteOrder@CryptoPP@@$0A@@CryptoPP@@@Weak@CryptoPP@@MAEXPBI@Z 00426501 f i regtest.obj
 0001:00025516       ?DataBuf@?$IteratedHash@IU?$EnumToType@W4ByteOrder@CryptoPP@@$0A@@CryptoPP@@$0CA@VHashTransformation@2@@CryptoPP@@MAEPAIXZ 00426516 f i regtest.obj
 0001:0002551a       ??0?$PanamaHash@U?$EnumToType@W4ByteOrder@CryptoPP@@$00@CryptoPP@@@Weak@CryptoPP@@QAE@XZ 0042651a f i regtest.obj
 0001:00025567       ?Init@?$PanamaHash@U?$EnumToType@W4ByteOrder@CryptoPP@@$00@CryptoPP@@@Weak@CryptoPP@@MAEXXZ 00426567 f i regtest.obj
 0001:00025567       ?Init@?$PanamaHash@U?$EnumToType@W4ByteOrder@CryptoPP@@$0A@@CryptoPP@@@Weak@CryptoPP@@MAEXXZ 00426567 f i regtest.obj
 0001:0002556f       ?HashEndianCorrectedBlock@?$PanamaHash@U?$EnumToType@W4ByteOrder@CryptoPP@@$00@CryptoPP@@@Weak@CryptoPP@@MAEXPBI@Z 0042656f f i regtest.obj
 0001:00025584       ??0?$HMAC@VMD5@Weak1@CryptoPP@@@CryptoPP@@QAE@XZ 00426584 f i regtest.obj
 0001:000255d9       ?AlgorithmName@?$HMAC@VMD5@Weak1@CryptoPP@@@CryptoPP@@UBE?AV?$basic_string@DU?$char_traits@D@std@@V?$allocator@D@2@@std@@XZ 004265d9 f i regtest.obj
 0001:0002567c       ?AccessHash@?$HMAC@VSHA256@CryptoPP@@@CryptoPP@@EAEAAVHashTransformation@2@XZ 0042667c f i regtest.obj
 0001:0002567c       ?AccessHash@?$HMAC@VSHA512@CryptoPP@@@CryptoPP@@EAEAAVHashTransformation@2@XZ 0042667c f i regtest.obj
 0001:0002567c       ?AccessBasePrecomputation@?$DL_GroupParameters_EC@VECP@CryptoPP@@@CryptoPP@@UAEAAV?$DL_FixedBasePrecomputation@UECPPoint@CryptoPP@@@2@XZ 0042667c f i regtest.obj
 0001:0002567c       ?AccessBasePrecomputation@?$DL_GroupParametersImpl@V?$EcPrecomputation@VECP@CryptoPP@@@CryptoPP@@V?$DL_FixedBasePrecomputationImpl@UECPPoint@CryptoPP@@@2@V?$DL_GroupParameters@UECPPoint@CryptoPP@@@2@@CryptoPP@@UAEAAV?$DL_FixedBasePrecomputation@UECPPoint@CryptoPP@@@2@XZ 0042667c f i regtest.obj
 0001:0002567c       ?AccessHash@?$HMAC@VSHA224@CryptoPP@@@CryptoPP@@EAEAAVHashTransformation@2@XZ 0042667c f i regtest.obj
 0001:0002567c       ?AccessHash@?$HMAC@VRIPEMD160@CryptoPP@@@CryptoPP@@EAEAAVHashTransformation@2@XZ 0042667c f i regtest.obj
 0001:0002567c       ?GetBasePrecomputation@?$DL_GroupParameters_EC@VECP@CryptoPP@@@CryptoPP@@UBEABV?$DL_FixedBasePrecomputation@UECPPoint@CryptoPP@@@2@XZ 0042667c f i regtest.obj
 0001:0002567c       ?GetBasePrecomputation@?$DL_GroupParametersImpl@V?$EcPrecomputation@VECP@CryptoPP@@@CryptoPP@@V?$DL_FixedBasePrecomputationImpl@UECPPoint@CryptoPP@@@2@V?$DL_GroupParameters@UECPPoint@CryptoPP@@@2@@CryptoPP@@UBEABV?$DL_FixedBasePrecomputation@UECPPoint@CryptoPP@@@2@XZ 0042667c f i regtest.obj
 0001:0002567c       ?AccessHash@?$HMAC@VMD5@Weak1@CryptoPP@@@CryptoPP@@EAEAAVHashTransformation@2@XZ 0042667c f i regtest.obj
 0001:0002567c       ?AccessHash@?$HMAC@VSHA384@CryptoPP@@@CryptoPP@@EAEAAVHashTransformation@2@XZ 0042667c f i regtest.obj
 0001:0002567c       ?AccessHash@?$HMAC@VSHA1@CryptoPP@@@CryptoPP@@EAEAAVHashTransformation@2@XZ 0042667c f i regtest.obj
 0001:00025680       ?AlgorithmName@?$AlgorithmImpl@V?$SimpleKeyingInterfaceImpl@VHMAC_Base@CryptoPP@@V?$HMAC@VMD5@Weak1@CryptoPP@@@2@@CryptoPP@@V?$HMAC@VMD5@Weak1@CryptoPP@@@2@@CryptoPP@@UBE?AV?$basic_string@DU?$char_traits@D@std@@V?$allocator@D@2@@std@@XZ 00426680 f i regtest.obj
 0001:00025698       ??0?$HMAC@VSHA1@CryptoPP@@@CryptoPP@@QAE@XZ 00426698 f i regtest.obj
 0001:000256ed       ??0?$HMAC@VRIPEMD160@CryptoPP@@@CryptoPP@@QAE@XZ 004266ed f i regtest.obj
 0001:00025742       ?AlgorithmName@?$HMAC@VRIPEMD160@CryptoPP@@@CryptoPP@@UBE?AV?$basic_string@DU?$char_traits@D@std@@V?$allocator@D@2@@std@@XZ 00426742 f i regtest.obj
 0001:000257e5       ?AlgorithmName@?$AlgorithmImpl@V?$SimpleKeyingInterfaceImpl@VHMAC_Base@CryptoPP@@V?$HMAC@VRIPEMD160@CryptoPP@@@2@@CryptoPP@@V?$HMAC@VRIPEMD160@CryptoPP@@@2@@CryptoPP@@UBE?AV?$basic_string@DU?$char_traits@D@std@@V?$allocator@D@2@@std@@XZ 004267e5 f i regtest.obj
 0001:000257fd       ??0?$HMAC@VSHA224@CryptoPP@@@CryptoPP@@QAE@XZ 004267fd f i regtest.obj
 0001:00025852       ?AlgorithmName@?$HMAC@VSHA224@CryptoPP@@@CryptoPP@@UBE?AV?$basic_string@DU?$char_traits@D@std@@V?$allocator@D@2@@std@@XZ 00426852 f i regtest.obj
 0001:000258f5       ?AlgorithmName@?$AlgorithmImpl@V?$SimpleKeyingInterfaceImpl@VHMAC_Base@CryptoPP@@V?$HMAC@VSHA224@CryptoPP@@@2@@CryptoPP@@V?$HMAC@VSHA224@CryptoPP@@@2@@CryptoPP@@UBE?AV?$basic_string@DU?$char_traits@D@std@@V?$allocator@D@2@@std@@XZ 004268f5 f i regtest.obj
 0001:0002590d       ??0?$HMAC@VSHA256@CryptoPP@@@CryptoPP@@QAE@XZ 0042690d f i regtest.obj
 0001:00025962       ?AlgorithmName@?$HMAC@VSHA256@CryptoPP@@@CryptoPP@@UBE?AV?$basic_string@DU?$char_traits@D@std@@V?$allocator@D@2@@std@@XZ 00426962 f i regtest.obj
 0001:00025a05       ?AlgorithmName@?$AlgorithmImpl@V?$SimpleKeyingInterfaceImpl@VHMAC_Base@CryptoPP@@V?$HMAC@VSHA256@CryptoPP@@@2@@CryptoPP@@V?$HMAC@VSHA256@CryptoPP@@@2@@CryptoPP@@UBE?AV?$basic_string@DU?$char_traits@D@std@@V?$allocator@D@2@@std@@XZ 00426a05 f i regtest.obj
 0001:00025a1d       ?GetValidKeyLength@?$SimpleKeyingInterfaceImpl@VHMAC_Base@CryptoPP@@V?$HMAC@VSHA384@CryptoPP@@@2@@CryptoPP@@UBEII@Z 00426a1d f i regtest.obj
 0001:00025a1d       ?GetValidKeyLength@?$SimpleKeyingInterfaceImpl@V?$TwoBases@VMessageAuthenticationCode@CryptoPP@@V?$VariableKeyLength@$0CA@$0A@$0HPPPPPPP@$00$03$0A@@2@@CryptoPP@@V12@@CryptoPP@@UBEII@Z 00426a1d f i regtest.obj
 0001:00025a1d       ?GetValidKeyLength@?$SimpleKeyingInterfaceImpl@VHMAC_Base@CryptoPP@@V?$HMAC@VSHA512@CryptoPP@@@2@@CryptoPP@@UBEII@Z 00426a1d f i regtest.obj
 0001:00025a1d       ?GetValidKeyLength@?$SimpleKeyingInterfaceImpl@VHMAC_Base@CryptoPP@@V?$HMAC@VSHA1@CryptoPP@@@2@@CryptoPP@@UBEII@Z 00426a1d f i regtest.obj
 0001:00025a1d       ?GetValidKeyLength@?$SimpleKeyingInterfaceImpl@VHMAC_Base@CryptoPP@@V?$HMAC@VRIPEMD160@CryptoPP@@@2@@CryptoPP@@UBEII@Z 00426a1d f i regtest.obj
 0001:00025a1d       ?GetValidKeyLength@?$SimpleKeyingInterfaceImpl@VHMAC_Base@CryptoPP@@V?$HMAC@VSHA256@CryptoPP@@@2@@CryptoPP@@UBEII@Z 00426a1d f i regtest.obj
 0001:00025a1d       ?GetValidKeyLength@?$SimpleKeyingInterfaceImpl@VHMAC_Base@CryptoPP@@V?$HMAC@VMD5@Weak1@CryptoPP@@@2@@CryptoPP@@UBEII@Z 00426a1d f i regtest.obj
 0001:00025a1d       ?GetValidKeyLength@?$SimpleKeyingInterfaceImpl@VHMAC_Base@CryptoPP@@V?$HMAC@VSHA224@CryptoPP@@@2@@CryptoPP@@UBEII@Z 00426a1d f i regtest.obj
 0001:00025a2f       ??0?$HMAC@VSHA384@CryptoPP@@@CryptoPP@@QAE@XZ 00426a2f f i regtest.obj
 0001:00025a84       ?AlgorithmName@?$HMAC@VSHA384@CryptoPP@@@CryptoPP@@UBE?AV?$basic_string@DU?$char_traits@D@std@@V?$allocator@D@2@@std@@XZ 00426a84 f i regtest.obj
 0001:00025b27       ?AlgorithmName@?$AlgorithmImpl@V?$SimpleKeyingInterfaceImpl@VHMAC_Base@CryptoPP@@V?$HMAC@VSHA384@CryptoPP@@@2@@CryptoPP@@V?$HMAC@VSHA384@CryptoPP@@@2@@CryptoPP@@UBE?AV?$basic_string@DU?$char_traits@D@std@@V?$allocator@D@2@@std@@XZ 00426b27 f i regtest.obj
 0001:00025b3f       ??0?$HMAC@VSHA512@CryptoPP@@@CryptoPP@@QAE@XZ 00426b3f f i regtest.obj
 0001:00025b94       ?AlgorithmName@?$HMAC@VSHA512@CryptoPP@@@CryptoPP@@UBE?AV?$basic_string@DU?$char_traits@D@std@@V?$allocator@D@2@@std@@XZ 00426b94 f i regtest.obj
 0001:00025c37       ?AlgorithmName@?$AlgorithmImpl@V?$SimpleKeyingInterfaceImpl@VHMAC_Base@CryptoPP@@V?$HMAC@VSHA512@CryptoPP@@@2@@CryptoPP@@V?$HMAC@VSHA512@CryptoPP@@@2@@CryptoPP@@UBE?AV?$basic_string@DU?$char_traits@D@std@@V?$allocator@D@2@@std@@XZ 00426c37 f i regtest.obj
 0001:00025c4f       ??0?$BlockCipherFinal@$0A@VEnc@Rijndael@CryptoPP@@@CryptoPP@@QAE@XZ 00426c4f f i regtest.obj
 0001:00025c68       ?KeyHash@?$HermeticHashFunctionMAC@V?$PanamaHash@U?$EnumToType@W4ByteOrder@CryptoPP@@$0A@@CryptoPP@@@Weak@CryptoPP@@V123@@CryptoPP@@IAEXXZ 00426c68 f i regtest.obj
 0001:00025c68       ?KeyHash@?$HermeticHashFunctionMAC@V?$PanamaHash@U?$EnumToType@W4ByteOrder@CryptoPP@@$00@CryptoPP@@@Weak@CryptoPP@@V123@@CryptoPP@@IAEXXZ 00426c68 f i regtest.obj
 0001:00025c89       ??0?$CMAC@VRijndael@CryptoPP@@@CryptoPP@@QAE@XZ 00426c89 f i regtest.obj
 0001:00025cd4       ??0CMAC_Base@CryptoPP@@QAE@XZ 00426cd4 f i regtest.obj
 0001:00025d13       ?OptimalDataAlignment@CMAC_Base@CryptoPP@@UBEIXZ 00426d13 f i regtest.obj
 0001:00025d25       ?AccessCipher@?$CMAC@VDES_EDE3@CryptoPP@@@CryptoPP@@EAEAAVBlockCipher@2@XZ 00426d25 f i regtest.obj
 0001:00025d25       ?AccessCipher@?$CMAC@VRijndael@CryptoPP@@@CryptoPP@@EAEAAVBlockCipher@2@XZ 00426d25 f i regtest.obj
 0001:00025d25       ?AccessCipher@?$CBC_MAC@VRijndael@CryptoPP@@@CryptoPP@@EAEAAVBlockCipher@2@XZ 00426d25 f i regtest.obj
 0001:00025d25       ?AccessCipher@?$CBC_MAC@VDES@CryptoPP@@@CryptoPP@@EAEAAVBlockCipher@2@XZ 00426d25 f i regtest.obj
 0001:00025d29       ?AlgorithmName@?$AlgorithmImpl@V?$SimpleKeyingInterfaceImpl@VCMAC_Base@CryptoPP@@V?$CMAC@VRijndael@CryptoPP@@@2@@CryptoPP@@V?$CMAC@VRijndael@CryptoPP@@@2@@CryptoPP@@UBE?AV?$basic_string@DU?$char_traits@D@std@@V?$allocator@D@2@@std@@XZ 00426d29 f i regtest.obj
 0001:00025d41       ??0?$DMAC@VRijndael@CryptoPP@@@CryptoPP@@QAE@XZ 00426d41 f i regtest.obj
 0001:00025d5a       ?Clone@?$ClonableImpl@V?$MessageAuthenticationCodeFinal@V?$DMAC_Base@VRijndael@CryptoPP@@@CryptoPP@@@CryptoPP@@V?$MessageAuthenticationCodeImpl@V?$DMAC_Base@VRijndael@CryptoPP@@@CryptoPP@@V12@@2@@CryptoPP@@UBEPAVClonable@2@XZ 00426d5a f i regtest.obj
 0001:00025db3       ?AlgorithmName@?$AlgorithmImpl@V?$SimpleKeyingInterfaceImpl@V?$DMAC_Base@VRijndael@CryptoPP@@@CryptoPP@@V12@@CryptoPP@@V?$DMAC_Base@VRijndael@CryptoPP@@@2@@CryptoPP@@UBE?AV?$basic_string@DU?$char_traits@D@std@@V?$allocator@D@2@@std@@XZ 00426db3 f i regtest.obj
 0001:00025dcb       ??_G?$MessageAuthenticationCodeFinal@V?$DMAC_Base@VRijndael@CryptoPP@@@CryptoPP@@@CryptoPP@@UAEPAXI@Z 00426dcb f i regtest.obj
 0001:00025dcb       ??_E?$MessageAuthenticationCodeFinal@V?$DMAC_Base@VRijndael@CryptoPP@@@CryptoPP@@@CryptoPP@@UAEPAXI@Z 00426dcb f i regtest.obj
 0001:00025dcb       ??_G?$DMAC@VRijndael@CryptoPP@@@CryptoPP@@UAEPAXI@Z 00426dcb f i regtest.obj
 0001:00025dcb       ??_E?$DMAC@VRijndael@CryptoPP@@@CryptoPP@@UAEPAXI@Z 00426dcb f i regtest.obj
 0001:00025de7       ??0?$DMAC_Base@VRijndael@CryptoPP@@@CryptoPP@@QAE@ABV01@@Z 00426de7 f i regtest.obj
 0001:00025e76       ??1?$DMAC_Base@VRijndael@CryptoPP@@@CryptoPP@@UAE@XZ 00426e76 f i regtest.obj
 0001:00025ed2       ??1CBC_MAC_Base@CryptoPP@@UAE@XZ 00426ed2 f i regtest.obj
 0001:00025ef8       ??0?$CBC_MAC@VRijndael@CryptoPP@@@CryptoPP@@QAE@ABV01@@Z 00426ef8 f i regtest.obj
 0001:00025f70       ?DigestSize@CMAC_Base@CryptoPP@@UBEIXZ 00426f70 f i regtest.obj
 0001:00025f70       ?OptimalBlockSize@CMAC_Base@CryptoPP@@UBEIXZ 00426f70 f i regtest.obj
 0001:00025f70       ?DigestSize@CBC_MAC_Base@CryptoPP@@UBEIXZ 00426f70 f i regtest.obj
 0001:00025f82       ?AlgorithmName@?$AlgorithmImpl@V?$SimpleKeyingInterfaceImpl@VCBC_MAC_Base@CryptoPP@@V?$CBC_MAC@VRijndael@CryptoPP@@@2@@CryptoPP@@V?$CBC_MAC@VRijndael@CryptoPP@@@2@@CryptoPP@@UBE?AV?$basic_string@DU?$char_traits@D@std@@V?$allocator@D@2@@std@@XZ 00426f82 f i regtest.obj
 0001:00025f9a       ??1?$CBC_MAC@VRijndael@CryptoPP@@@CryptoPP@@UAE@XZ 00426f9a f i regtest.obj
 0001:00025fd3       ??_G?$CBC_MAC@VRijndael@CryptoPP@@@CryptoPP@@UAEPAXI@Z 00426fd3 f i regtest.obj
 0001:00025fd3       ??_E?$CBC_MAC@VRijndael@CryptoPP@@@CryptoPP@@UAEPAXI@Z 00426fd3 f i regtest.obj
 0001:00025fef       ??1?$MessageAuthenticationCodeImpl@VCBC_MAC_Base@CryptoPP@@V?$CBC_MAC@VRijndael@CryptoPP@@@2@@CryptoPP@@UAE@XZ 00426fef f i regtest.obj
 0001:00026015       ??_E?$MessageAuthenticationCodeImpl@VCBC_MAC_Base@CryptoPP@@V?$CBC_MAC@VRijndael@CryptoPP@@@2@@CryptoPP@@UAEPAXI@Z 00427015 f i regtest.obj
 0001:00026015       ??_G?$MessageAuthenticationCodeImpl@VCBC_MAC_Base@CryptoPP@@V?$CBC_MAC@VRijndael@CryptoPP@@@2@@CryptoPP@@UAEPAXI@Z 00427015 f i regtest.obj
 0001:00026031       ??0CBC_MAC_Base@CryptoPP@@QAE@ABV01@@Z 00427031 f i regtest.obj
 0001:0002606e       ?StaticAlgorithmName@?$DMAC_Base@VRijndael@CryptoPP@@@CryptoPP@@SA?AV?$basic_string@DU?$char_traits@D@std@@V?$allocator@D@2@@std@@XZ 0042706e f i regtest.obj
 0001:000260f5       ?StaticAlgorithmName@?$CBC_MAC@VRijndael@CryptoPP@@@CryptoPP@@SA?AV?$basic_string@DU?$char_traits@D@std@@V?$allocator@D@2@@std@@XZ 004270f5 f i regtest.obj
 0001:0002617c       ??0?$CMAC@VDES_EDE3@CryptoPP@@@CryptoPP@@QAE@XZ 0042717c f i regtest.obj
 0001:000261d8       ?AlgorithmName@?$AlgorithmImpl@V?$SimpleKeyingInterfaceImpl@VCMAC_Base@CryptoPP@@V?$CMAC@VDES_EDE3@CryptoPP@@@2@@CryptoPP@@V?$CMAC@VDES_EDE3@CryptoPP@@@2@@CryptoPP@@UBE?AV?$basic_string@DU?$char_traits@D@std@@V?$allocator@D@2@@std@@XZ 004271d8 f i regtest.obj
 0001:000261f0       ?MinKeyLength@?$SimpleKeyingInterfaceImpl@VCMAC_Base@CryptoPP@@V?$CMAC@VDES_EDE3@CryptoPP@@@2@@CryptoPP@@UBEIXZ 004271f0 f i regtest.obj
 0001:000261f0       ?DefaultKeyLength@?$SimpleKeyingInterfaceImpl@VCMAC_Base@CryptoPP@@V?$CMAC@VDES_EDE3@CryptoPP@@@2@@CryptoPP@@UBEIXZ 004271f0 f i regtest.obj
 0001:000261f0       ?IVSize@?$SimpleKeyingInterfaceImpl@V?$ConcretePolicyHolder@VXSalsa20_Policy@CryptoPP@@V?$AdditiveCipherTemplate@V?$AbstractPolicyHolder@UAdditiveCipherAbstractPolicy@CryptoPP@@VSymmetricCipher@2@@CryptoPP@@@2@UAdditiveCipherAbstractPolicy@2@@CryptoPP@@UXSalsa20_Info@2@@CryptoPP@@UBEIXZ 004271f0 f i regtest.obj
 0001:000261f0       ?MaxKeyLength@?$SimpleKeyingInterfaceImpl@V?$TwoBases@VBlockCipher@CryptoPP@@UDES_XEX3_Info@2@@CryptoPP@@V12@@CryptoPP@@UBEIXZ 004271f0 f i regtest.obj
 0001:000261f0       ?DefaultKeyLength@?$SimpleKeyingInterfaceImpl@V?$TwoBases@VBlockCipher@CryptoPP@@UDES_EDE3_Info@2@@CryptoPP@@V12@@CryptoPP@@UBEIXZ 004271f0 f i regtest.obj
 0001:000261f0       ?DefaultKeyLength@?$SimpleKeyingInterfaceImpl@V?$TwoBases@VBlockCipher@CryptoPP@@UDES_XEX3_Info@2@@CryptoPP@@V12@@CryptoPP@@UBEIXZ 004271f0 f i regtest.obj
 0001:000261f0       ?MaxKeyLength@?$SimpleKeyingInterfaceImpl@V?$TwoBases@VBlockCipher@CryptoPP@@UDES_EDE3_Info@2@@CryptoPP@@V12@@CryptoPP@@UBEIXZ 004271f0 f i regtest.obj
 0001:000261f0       ?MinKeyLength@?$SimpleKeyingInterfaceImpl@V?$TwoBases@VBlockCipher@CryptoPP@@UDES_XEX3_Info@2@@CryptoPP@@V12@@CryptoPP@@UBEIXZ 004271f0 f i regtest.obj
 0001:000261f0       ?DigestSize@?$IteratedHashWithStaticTransform@_KU?$EnumToType@W4ByteOrder@CryptoPP@@$0A@@CryptoPP@@$0EA@$0BI@VTiger@2@$0A@$0A@@CryptoPP@@UBEIXZ 004271f0 f i regtest.obj
 0001:000261f0       ?MinKeyLength@?$SimpleKeyingInterfaceImpl@V?$TwoBases@VBlockCipher@CryptoPP@@UDES_EDE3_Info@2@@CryptoPP@@V12@@CryptoPP@@UBEIXZ 004271f0 f i regtest.obj
 0001:000261f0       ?MaxKeyLength@?$SimpleKeyingInterfaceImpl@VCMAC_Base@CryptoPP@@V?$CMAC@VDES_EDE3@CryptoPP@@@2@@CryptoPP@@UBEIXZ 004271f0 f i regtest.obj
 0001:000261f4       ?GetValidKeyLength@?$SimpleKeyingInterfaceImpl@VCMAC_Base@CryptoPP@@V?$CMAC@VDES_EDE3@CryptoPP@@@2@@CryptoPP@@UBEII@Z 004271f4 f i regtest.obj
 0001:000261f4       ?GetValidKeyLength@?$SimpleKeyingInterfaceImpl@V?$TwoBases@VBlockCipher@CryptoPP@@UDES_EDE3_Info@2@@CryptoPP@@V12@@CryptoPP@@UBEII@Z 004271f4 f i regtest.obj
 0001:000261f4       ?GetValidKeyLength@?$SimpleKeyingInterfaceImpl@V?$TwoBases@VBlockCipher@CryptoPP@@UDES_XEX3_Info@2@@CryptoPP@@V12@@CryptoPP@@UBEII@Z 004271f4 f i regtest.obj
 0001:000261fa       ?StaticGetValidKeyLength@?$SameKeyLengthAs@VRijndael@CryptoPP@@$0A@$0BA@@CryptoPP@@SAII@Z 004271fa f i regtest.obj
 0001:000261fa       ?StaticGetValidKeyLength@?$SameKeyLengthAs@VRijndael@CryptoPP@@$03$0A@@CryptoPP@@SAII@Z 004271fa f i regtest.obj
 0001:0002621b       ??_G?$DH_Domain@VDL_GroupParameters_GFP_DefaultSafePrime@CryptoPP@@U?$EnumToType@W4CofactorMultiplicationOption@CryptoPP@@$0A@@2@@CryptoPP@@UAEPAXI@Z 0042721b f i regtest.obj
 0001:0002621b       ??_E?$DH_Domain@VDL_GroupParameters_GFP_DefaultSafePrime@CryptoPP@@U?$EnumToType@W4CofactorMultiplicationOption@CryptoPP@@$0A@@2@@CryptoPP@@UAEPAXI@Z 0042721b f i regtest.obj
 0001:00026237       ??0DL_GroupParameters_GFP_DefaultSafePrime@CryptoPP@@QAE@XZ 00427237 f i regtest.obj
 0001:000262a4       ?GetDefaultSubgroupOrderSize@DL_GroupParameters_GFP_DefaultSafePrime@CryptoPP@@MBEII@Z 004272a4 f i regtest.obj
 0001:000262a4       ?GetDefaultSubgroupOrderSize@DL_GroupParameters_LUC_DefaultSafePrime@CryptoPP@@MBEII@Z 004272a4 f i regtest.obj
 0001:000262ac       ??_E?$PanamaHash@U?$EnumToType@W4ByteOrder@CryptoPP@@$0A@@CryptoPP@@@Weak@CryptoPP@@UAEPAXI@Z 004272ac f i regtest.obj
 0001:000262ac       ??_G?$PanamaHash@U?$EnumToType@W4ByteOrder@CryptoPP@@$0A@@CryptoPP@@@Weak@CryptoPP@@UAEPAXI@Z 004272ac f i regtest.obj
