 cryptopp

 Timestamp is 4f4c44c3 (Tue Feb 28 11:06:43 2012)

 Preferred load address is 42900000

 Start         Length     Name                   Class
 0001:00000000 00091160H .text                   CODE
 0001:00091160 00011362H .text$x                 CODE
 0002:00000000 0000015cH .idata$5                DATA
 0002:00000160 00009874H .rdata                  DATA
 0002:000099d8 0000a174H .rdata$r                DATA
 0002:00013b50 00017ee0H .xdata$x                DATA
 0002:0002ba30 00000028H .idata$2                DATA
 0002:0002ba58 00000014H .idata$3                DATA
 0002:0002ba6c 0000015cH .idata$4                DATA
 0002:0002bbc8 0000062eH .idata$6                DATA
 0002:0002c200 0003c8c7H .edata                  DATA
 0003:00000000 00000004H .CRT$XCA                DATA
 0003:00000004 00000180H .CRT$XCU                DATA
 0003:00000184 00000004H .CRT$XCZ                DATA
 0003:00000188 00000004H .CRT$XIA                DATA
 0003:0000018c 00000010H .CRT$XIC                DATA
 0003:0000019c 00000004H .CRT$XIY                DATA
 0003:000001a0 00000004H .CRT$XIZ                DATA
 0003:000001a4 00000004H .CRT$XPA                DATA
 0003:000001a8 00000004H .CRT$XPX                DATA
 0003:000001ac 00000004H .CRT$XPZ                DATA
 0003:000001b0 00000004H .CRT$XTA                DATA
 0003:000001b4 00000004H .CRT$XTB                DATA
 0003:000001b8 00000004H .CRT$XTZ                DATA
 0003:000001c0 00018fd4H .data                   DATA
 0003:00019198 00003cb4H .bss                    DATA
 0004:00000000 00000058H .rsrc$01                DATA
 0004:00000060 000003d8H .rsrc$02                DATA

  Address         Publics by Value              Rva+Base     Lib:Object

 0001:00000000       ?IsZero@Integer@CryptoPP@@QBE_NXZ 42901000 f i algebra.obj
 0001:00000005       ?NotZero@Integer@CryptoPP@@QBE_NXZ 42901005 f i algebra.obj
 0001:00000010       ?IsNegative@Integer@CryptoPP@@QBE_NXZ 42901010 f i algebra.obj
 0001:0000001a       ?NotNegative@Integer@CryptoPP@@QBE_NXZ 4290101a f i algebra.obj
 0001:00000024       ?IsPositive@Integer@CryptoPP@@QBE_NXZ 42901024 f i algebra.obj
 0001:0000003a       ?NotPositive@Integer@CryptoPP@@QBE_NXZ 4290103a f i algebra.obj
 0001:00000045       ?IsEven@Integer@CryptoPP@@QBE_NXZ 42901045 f i algebra.obj
 0001:00000052       ?IsOdd@Integer@CryptoPP@@QBE_NXZ 42901052 f i algebra.obj
 0001:00000061       ??XInteger@CryptoPP@@QAEAAV01@ABV01@@Z 42901061 f i algebra.obj
 0001:000000ab       ??_0Integer@CryptoPP@@QAEAAV01@ABV01@@Z 429010ab f i algebra.obj
 0001:000000f5       ??_1Integer@CryptoPP@@QAEAAV01@ABV01@@Z 429010f5 f i algebra.obj
 0001:0000013f       ??_0Integer@CryptoPP@@QAEAAV01@I@Z 4290113f f i algebra.obj
 0001:00000189       ??_1Integer@CryptoPP@@QAEAAV01@I@Z 42901189 f i algebra.obj
 0001:000001dc       ?GenerateRandom@Integer@CryptoPP@@QAEXAAVRandomNumberGenerator@2@ABVNameValuePairs@2@@Z 429011dc f i algebra.obj
 0001:0000020b       ??0RandomNumberNotFound@Integer@CryptoPP@@QAE@XZ 4290120b f i algebra.obj
 0001:0000027a       ?SetPositive@Integer@CryptoPP@@QAEXXZ 4290127a f i algebra.obj
 0001:0000027f       ?SetNegative@Integer@CryptoPP@@QAEXXZ 4290127f f i algebra.obj
 0001:00000294       ??HInteger@CryptoPP@@QBE?AV01@XZ 42901294 f i algebra.obj
 0001:000002ac       ??EInteger@CryptoPP@@QAE?AV01@H@Z 429012ac f i algebra.obj
 0001:00000308       ??FInteger@CryptoPP@@QAE?AV01@H@Z 42901308 f i algebra.obj
 0001:00000364       ??5Integer@CryptoPP@@QBE?AV01@I@Z 42901364 f i algebra.obj
 0001:000003bc       ??6Integer@CryptoPP@@QBE?AV01@I@Z 429013bc f i algebra.obj
 0001:00000414       ?Doubled@Integer@CryptoPP@@QBE?AV12@XZ 42901414 f i algebra.obj
 0001:0000042c       ?Squared@Integer@CryptoPP@@QBE?AV12@XZ 4290142c f i algebra.obj
 0001:00000444       ??1Integer@CryptoPP@@UAE@XZ 42901444 f i algebra.obj
 0001:0000046a       ??0RandomNumberNotFound@Integer@CryptoPP@@QAE@ABV012@@Z 4290146a f i algebra.obj
 0001:00000482       ??1?$basic_string@DU?$char_traits@D@std@@V?$allocator@D@2@@std@@QAE@XZ 42901482 f i algebra.obj
 0001:0000048a       ?_Tidy@?$basic_string@DU?$char_traits@D@std@@V?$allocator@D@2@@std@@AAEX_N@Z 4290148a f i algebra.obj
 0001:000004c6       ?assign@?$basic_string@DU?$char_traits@D@std@@V?$allocator@D@2@@std@@QAEAAV12@PBDI@Z 429014c6 f i algebra.obj
 0001:000004fb       ?_Grow@?$basic_string@DU?$char_traits@D@std@@V?$allocator@D@2@@std@@AAE_NI_N@Z 429014fb f i algebra.obj
 0001:00000580       ?_Copy@?$basic_string@DU?$char_traits@D@std@@V?$allocator@D@2@@std@@AAEXI@Z 42901580 f i algebra.obj
 0001:0000063d       ?SecureWipeArray@CryptoPP@@YAXPAII@Z 4290163d f i algebra.obj
 0001:000006e2       ??0Exception@CryptoPP@@QAE@W4ErrorType@01@ABV?$basic_string@DU?$char_traits@D@std@@V?$allocator@D@2@@std@@@Z 429016e2 f i algebra.obj
 0001:00000740       ?assign@?$basic_string@DU?$char_traits@D@std@@V?$allocator@D@2@@std@@QAEAAV12@ABV12@II@Z 42901740 f i algebra.obj
 0001:0000080e       ?erase@?$basic_string@DU?$char_traits@D@std@@V?$allocator@D@2@@std@@QAEAAV12@II@Z 4290180e f i algebra.obj
 0001:00000875       ?_Split@?$basic_string@DU?$char_traits@D@std@@V?$allocator@D@2@@std@@AAEXXZ 42901875 f i algebra.obj
 0001:000008a5       ??1OS_RNG_Err@CryptoPP@@UAE@XZ 429018a5 f i algebra.obj
 0001:000008a5       ??1InvalidKeyLength@CryptoPP@@UAE@XZ 429018a5 f i algebra.obj
 0001:000008a5       ??1SignatureVerificationFailed@SignatureVerificationFilter@CryptoPP@@UAE@XZ 429018a5 f i algebra.obj
 0001:000008a5       ??1OpenErr@FileStore@CryptoPP@@UAE@XZ 429018a5 f i algebra.obj
 0001:000008a5       ??1ParameterNotUsed@AlgorithmParametersBase@CryptoPP@@UAE@XZ 429018a5 f i algebra.obj
 0001:000008a5       ??1InvalidRounds@CryptoPP@@UAE@XZ 429018a5 f i algebra.obj
 0001:000008a5       ??1InputRejected@?$InputRejecting@VBufferedTransformation@CryptoPP@@@CryptoPP@@UAE@XZ 429018a5 f i algebra.obj
 0001:000008a5       ??1HashInputTooLong@CryptoPP@@UAE@XZ 429018a5 f i algebra.obj
 0001:000008a5       ??1ValueTypeMismatch@NameValuePairs@CryptoPP@@UAE@XZ 429018a5 f i algebra.obj
 0001:000008a5       ??1InvalidPlaintextLength@PK_Encryptor@CryptoPP@@UAE@XZ 429018a5 f i algebra.obj
 0001:000008a5       ??1BERDecodeErr@CryptoPP@@UAE@XZ 429018a5 f i algebra.obj
 0001:000008a5       ??1InputRejected@?$InputRejecting@VFilter@CryptoPP@@@CryptoPP@@UAE@XZ 429018a5 f i algebra.obj
 0001:000008a5       ??1CannotFlush@CryptoPP@@UAE@XZ 429018a5 f i algebra.obj
 0001:000008a5       ??1InvalidArgument@CryptoPP@@UAE@XZ 429018a5 f i algebra.obj
 0001:000008a5       ??1SelfTestFailure@CryptoPP@@UAE@XZ 429018a5 f i algebra.obj
 0001:000008a5       ??1InvalidKeyLength@PK_SignatureScheme@CryptoPP@@UAE@XZ 429018a5 f i algebra.obj
 0001:000008a5       ??1MismatchDetected@EqualityComparisonFilter@CryptoPP@@UAE@XZ 429018a5 f i algebra.obj
 0001:000008a5       ??1Err@FileStore@CryptoPP@@UAE@XZ 429018a5 f i algebra.obj
 0001:000008a5       ??1Err@FileSink@CryptoPP@@UAE@XZ 429018a5 f i algebra.obj
 0001:000008a5       ??1Exception@CryptoPP@@UAE@XZ 429018a5 f i algebra.obj
 0001:000008a5       ??1UnknownOID@CryptoPP@@UAE@XZ 429018a5 f i algebra.obj
 0001:000008a5       ??1DL_BadElement@CryptoPP@@UAE@XZ 429018a5 f i algebra.obj
 0001:000008a5       ??1HashVerificationFailed@HashVerificationFilter@CryptoPP@@UAE@XZ 429018a5 f i algebra.obj
 0001:000008a5       ??1InvalidChannelName@BufferedTransformation@CryptoPP@@UAE@XZ 429018a5 f i algebra.obj
 0001:000008a5       ??1OpenErr@FileSink@CryptoPP@@UAE@XZ 429018a5 f i algebra.obj
 0001:000008a5       ??1BlockingInputOnly@BufferedTransformation@CryptoPP@@UAE@XZ 429018a5 f i algebra.obj
 0001:000008a5       ??1NotImplemented@CryptoPP@@UAE@XZ 429018a5 f i algebra.obj
 0001:000008a5       ??1WriteErr@FileSink@CryptoPP@@UAE@XZ 429018a5 f i algebra.obj
 0001:000008a5       ??1KeyTooShort@PK_SignatureScheme@CryptoPP@@UAE@XZ 429018a5 f i algebra.obj
 0001:000008a5       ??1InvalidCiphertext@CryptoPP@@UAE@XZ 429018a5 f i algebra.obj
 0001:000008a5       ??1OpenPGPDecodeErr@Integer@CryptoPP@@UAE@XZ 429018a5 f i algebra.obj
 0001:000008a5       ??1BadState@AuthenticatedSymmetricCipher@CryptoPP@@UAE@XZ 429018a5 f i algebra.obj
 0001:000008a5       ??1DivideByZero@Integer@CryptoPP@@UAE@XZ 429018a5 f i algebra.obj
 0001:000008a5       ??1ReadErr@FileStore@CryptoPP@@UAE@XZ 429018a5 f i algebra.obj
 0001:000008a5       ??1DivideByZero@PolynomialMod2@CryptoPP@@UAE@XZ 429018a5 f i algebra.obj
 0001:000008a5       ??1NoChannelSupport@BufferedTransformation@CryptoPP@@UAE@XZ 429018a5 f i algebra.obj
 0001:000008a5       ??1InvalidMaterial@CryptoMaterial@CryptoPP@@UAE@XZ 429018a5 f i algebra.obj
 0001:000008a5       ??1InvalidDataFormat@CryptoPP@@UAE@XZ 429018a5 f i algebra.obj
 0001:000008a5       ??1RandomNumberNotFound@Integer@CryptoPP@@UAE@XZ 429018a5 f i algebra.obj
 0001:000008c1       ?what@Exception@CryptoPP@@UBEPBDXZ 429018c1 f i algebra.obj
 0001:000008ce       ??0Exception@CryptoPP@@QAE@ABV01@@Z 429018ce f i algebra.obj
 0001:00000930       ??1OS_Error@CryptoPP@@UAE@XZ 42901930 f i algebra.obj
 0001:0000095c       ??_EOS_Error@CryptoPP@@UAEPAXI@Z 4290195c f i algebra.obj
 0001:000009a7       ??_EValueTypeMismatch@NameValuePairs@CryptoPP@@UAEPAXI@Z 429019a7 f i algebra.obj
 0001:000009f2       ??_DGeneratableCryptoMaterial@CryptoPP@@QAEXXZ 429019f2 f i algebra.obj
 0001:000009fa       ??_DPublicKey@CryptoPP@@QAEXXZ 429019fa f i algebra.obj
 0001:00000a02       ??_DPrivateKey@CryptoPP@@QAEXXZ 42901a02 f i algebra.obj
 0001:00000a02       ??_DCryptoParameters@CryptoPP@@QAEXXZ 42901a02 f i algebra.obj
 0001:00000a16       ??_EInvalidKeyLength@PK_SignatureScheme@CryptoPP@@UAEPAXI@Z 42901a16 f i algebra.obj
 0001:00000a16       ??_EInvalidArgument@CryptoPP@@UAEPAXI@Z 42901a16 f i algebra.obj
 0001:00000a16       ??_EInvalidPlaintextLength@PK_Encryptor@CryptoPP@@UAEPAXI@Z 42901a16 f i algebra.obj
 0001:00000a16       ??_ESelfTestFailure@CryptoPP@@UAEPAXI@Z 42901a16 f i algebra.obj
 0001:00000a16       ??_EException@CryptoPP@@UAEPAXI@Z 42901a16 f i algebra.obj
 0001:00000a16       ??_EInvalidCiphertext@CryptoPP@@UAEPAXI@Z 42901a16 f i algebra.obj
 0001:00000a16       ??_EInvalidDataFormat@CryptoPP@@UAEPAXI@Z 42901a16 f i algebra.obj
 0001:00000a16       ??_EInvalidRounds@CryptoPP@@UAEPAXI@Z 42901a16 f i algebra.obj
 0001:00000a16       ??_EOS_RNG_Err@CryptoPP@@UAEPAXI@Z 42901a16 f i algebra.obj
 0001:00000a16       ??_EUnknownOID@CryptoPP@@UAEPAXI@Z 42901a16 f i algebra.obj
 0001:00000a16       ??_ENotImplemented@CryptoPP@@UAEPAXI@Z 42901a16 f i algebra.obj
 0001:00000a16       ??_EInvalidMaterial@CryptoMaterial@CryptoPP@@UAEPAXI@Z 42901a16 f i algebra.obj
 0001:00000a16       ??_EInvalidKeyLength@CryptoPP@@UAEPAXI@Z 42901a16 f i algebra.obj
 0001:00000a16       ??_ECannotFlush@CryptoPP@@UAEPAXI@Z 42901a16 f i algebra.obj
 0001:00000a16       ??_EBERDecodeErr@CryptoPP@@UAEPAXI@Z 42901a16 f i algebra.obj
 0001:00000a16       ??_EHashInputTooLong@CryptoPP@@UAEPAXI@Z 42901a16 f i algebra.obj
 0001:00000a16       ??_EKeyTooShort@PK_SignatureScheme@CryptoPP@@UAEPAXI@Z 42901a16 f i algebra.obj
 0001:00000a61       ??0CombinedNameValuePairs@CryptoPP@@QAE@ABVNameValuePairs@1@0@Z 42901a61 f i algparam.obj
 0001:00000a7a       ??0CombinedNameValuePairs@CryptoPP@@QAE@ABV01@@Z 42901a7a f i algparam.obj
 0001:00000a95       ??_EBitBucket@CryptoPP@@UAEPAXI@Z 42901a95 f i algparam.obj
 0001:00000a95       ??_ECombinedNameValuePairs@CryptoPP@@UAEPAXI@Z 42901a95 f i algparam.obj
 0001:00000ae0       ??0AlgorithmParametersBase@CryptoPP@@QAE@ABV01@@Z 42901ae0 f i algparam.obj
 0001:00000b43       ??0AlgorithmParametersBase@CryptoPP@@QAE@PBD_N@Z 42901b43 f i algparam.obj
 0001:00000b64       ??1AlgorithmParametersBase@CryptoPP@@UAE@XZ 42901b64 f i algparam.obj
 0001:00000bd0       ??0ParameterNotUsed@AlgorithmParametersBase@CryptoPP@@QAE@PBD@Z 42901bd0 f i algparam.obj
 0001:00000c84       ??_EAlgorithmParametersBase@CryptoPP@@UAEPAXI@Z 42901c84 f i algparam.obj
 0001:00000ccf       ??0ParameterNotUsed@AlgorithmParametersBase@CryptoPP@@QAE@ABV012@@Z 42901ccf f i algparam.obj
 0001:00000ce7       ??0?$AlgorithmParametersTemplate@_N@CryptoPP@@QAE@ABV01@@Z 42901ce7 f i algparam.obj
 0001:00000d08       ??4?$AlgorithmParametersTemplate@_N@CryptoPP@@QAEAAV01@ABV01@@Z 42901d08 f i algparam.obj
 0001:00000d17       ??0?$AlgorithmParametersTemplate@H@CryptoPP@@QAE@ABV01@@Z 42901d17 f i algparam.obj
 0001:00000d38       ??4?$AlgorithmParametersTemplate@H@CryptoPP@@QAEAAV01@ABV01@@Z 42901d38 f i algparam.obj
 0001:00000d47       ??_E?$AlgorithmParametersTemplate@H@CryptoPP@@UAEPAXI@Z 42901d47 f i algparam.obj
 0001:00000d47       ??_E?$AlgorithmParametersTemplate@_N@CryptoPP@@UAEPAXI@Z 42901d47 f i algparam.obj
 0001:00000d92       ??0?$AlgorithmParametersTemplate@VConstByteArrayParameter@CryptoPP@@@CryptoPP@@QAE@ABV01@@Z 42901d92 f i algparam.obj
 0001:00000dd5       ??4?$AlgorithmParametersTemplate@VConstByteArrayParameter@CryptoPP@@@CryptoPP@@QAEAAV01@ABV01@@Z 42901dd5 f i algparam.obj
 0001:00000dee       ??1?$AlgorithmParametersTemplate@VConstByteArrayParameter@CryptoPP@@@CryptoPP@@UAE@XZ 42901dee f i algparam.obj
 0001:00000e23       ??_E?$AlgorithmParametersTemplate@VConstByteArrayParameter@CryptoPP@@@CryptoPP@@UAEPAXI@Z 42901e23 f i algparam.obj
 0001:00000e6e       ??0ConstByteArrayParameter@CryptoPP@@QAE@ABV01@@Z 42901e6e f i algparam.obj
 0001:00000e97       ??4ConstByteArrayParameter@CryptoPP@@QAEAAV01@ABV01@@Z 42901e97 f i algparam.obj
 0001:00000ec0       ??1AlgorithmParameters@CryptoPP@@UAE@XZ 42901ec0 f i algparam.obj
 0001:00000ee6       ?GetVoidValue@CombinedNameValuePairs@CryptoPP@@UBE_NPBDABVtype_info@@PAX@Z 42901ee6 f   algparam.obj
 0001:00000f3d       ??4AlgorithmParametersBase@CryptoPP@@IAEXABV01@@Z 42901f3d f   algparam.obj
 0001:00000f40       ?GetVoidValue@AlgorithmParametersBase@CryptoPP@@QBE_NPBDABVtype_info@@PAX@Z 42901f40 f   algparam.obj
 0001:00000fe6       ??0AlgorithmParameters@CryptoPP@@QAE@XZ 42901fe6 f   algparam.obj
 0001:00000ff7       ??_EAlgorithmParameters@CryptoPP@@UAEPAXI@Z 42901ff7 f i algparam.obj
 0001:00001042       ??0AlgorithmParameters@CryptoPP@@QAE@ABV01@@Z 42902042 f   algparam.obj
 0001:00001097       ??4AlgorithmParameters@CryptoPP@@QAEAAV01@ABV01@@Z 42902097 f   algparam.obj
 0001:000010bd       ?GetVoidValue@AlgorithmParameters@CryptoPP@@UBE_NPBDABVtype_info@@PAX@Z 429020bd f   algparam.obj
 0001:000010dc       ??1?$SecBlock@DV?$AllocatorWithCleanup@D$0A@@CryptoPP@@@CryptoPP@@QAE@XZ 429020dc f i algparam.obj
 0001:000010dc       ??1?$SecBlock@EV?$AllocatorWithCleanup@E$0A@@CryptoPP@@@CryptoPP@@QAE@XZ 429020dc f i algparam.obj
 0001:000010dc       ??1?$SecBlock@EV?$AllocatorWithCleanup@E$00@CryptoPP@@@CryptoPP@@QAE@XZ 429020dc f i algparam.obj
 0001:000010f4       ?AssignValue@?$AlgorithmParametersTemplate@_N@CryptoPP@@UBEXPBDABVtype_info@@PAX@Z 429020f4 f i algparam.obj
 0001:0000114d       ?MoveInto@?$AlgorithmParametersTemplate@_N@CryptoPP@@UBEXPAX@Z 4290214d f i algparam.obj
 0001:0000118e       ?AssignValue@?$AlgorithmParametersTemplate@H@CryptoPP@@UBEXPBDABVtype_info@@PAX@Z 4290218e f i algparam.obj
 0001:000011e6       ?MoveInto@?$AlgorithmParametersTemplate@H@CryptoPP@@UBEXPAX@Z 429021e6 f i algparam.obj
 0001:00001227       ?AssignValue@?$AlgorithmParametersTemplate@VConstByteArrayParameter@CryptoPP@@@CryptoPP@@UBEXPBDABVtype_info@@PAX@Z 42902227 f i algparam.obj
 0001:00001284       ?MoveInto@?$AlgorithmParametersTemplate@VConstByteArrayParameter@CryptoPP@@@CryptoPP@@UBEXPAX@Z 42902284 f i algparam.obj
 0001:000012cf       ?allocate@?$AllocatorWithCleanup@E$0A@@CryptoPP@@QAEPAEIPBX@Z 429022cf f i algparam.obj
 0001:000012ee       ?deallocate@?$AllocatorWithCleanup@E$0A@@CryptoPP@@QAEXPAXI@Z 429022ee f i algparam.obj
 0001:0000130a       ?New@?$SecBlock@EV?$AllocatorWithCleanup@E$00@CryptoPP@@@CryptoPP@@QAEXI@Z 4290230a f i algparam.obj
 0001:0000130a       ?New@?$SecBlock@EV?$AllocatorWithCleanup@E$0A@@CryptoPP@@@CryptoPP@@QAEXI@Z 4290230a f i algparam.obj
 0001:00001331       ?append@?$basic_string@DU?$char_traits@D@std@@V?$allocator@D@2@@std@@QAEAAV12@PBDI@Z 42902331 f i algparam.obj
 0001:00001388       ?reallocate@?$AllocatorWithCleanup@E$0A@@CryptoPP@@QAEPAEPAEII_N@Z 42902388 f i algparam.obj
 0001:000013a4       ?CheckSize@?$AllocatorBase@E@CryptoPP@@KAXI@Z 429023a4 f i algparam.obj
 0001:00001412       ??Hstd@@YA?AV?$basic_string@DU?$char_traits@D@std@@V?$allocator@D@2@@0@ABV10@PBD@Z 42902412 f i algparam.obj
 0001:0000149b       ??0InvalidArgument@CryptoPP@@QAE@ABV01@@Z 4290249b f i algparam.obj
 0001:000014cf       ?ThrowIfTypeMismatch@NameValuePairs@CryptoPP@@SAXPBDABVtype_info@@1@Z 429024cf f i algparam.obj
 0001:00001540       ??0ValueTypeMismatch@NameValuePairs@CryptoPP@@QAE@ABV?$basic_string@DU?$char_traits@D@std@@V?$allocator@D@2@@std@@ABVtype_info@@1@Z 42902540 f i algparam.obj
 0001:0000164c       ??Hstd@@YA?AV?$basic_string@DU?$char_traits@D@std@@V?$allocator@D@2@@0@PBDABV10@@Z 4290264c f i algparam.obj
 0001:000016d1       ?append@?$basic_string@DU?$char_traits@D@std@@V?$allocator@D@2@@std@@QAEAAV12@ABV12@II@Z 429026d1 f i algparam.obj
 0001:00001757       ??0ValueTypeMismatch@NameValuePairs@CryptoPP@@QAE@ABV012@@Z 42902757 f i algparam.obj
 0001:00001784       ?memcpy_s@CryptoPP@@YAXPAXIPBXI@Z 42902784 f i algparam.obj
 0001:00001803       ?MaxRetrievable@ByteQueue@CryptoPP@@UBE_KXZ 42902803 f i asn.obj
 0001:00001808       ?AnyRetrievable@ByteQueue@CryptoPP@@UBE_NXZ 42902808 f i asn.obj
 0001:00001813       ??_FByteQueue@CryptoPP@@QAEXXZ 42902813 f i asn.obj
 0001:0000181b       ??0LazyPutter@CryptoPP@@QAE@AAVByteQueue@1@PBEI@Z 4290281b f i asn.obj
 0001:00001837       ??1LazyPutter@CryptoPP@@QAE@XZ 42902837 f i asn.obj
 0001:00001868       ??0LazyPutter@CryptoPP@@IAE@AAVByteQueue@1@@Z 42902868 f i asn.obj
 0001:00001873       ??1Filter@CryptoPP@@UAE@XZ 42902873 f i asn.obj
 0001:00001899       ??_FFilter@CryptoPP@@QAEXXZ 42902899 f i asn.obj
 0001:000018a1       ?HelpCreatePutSpace@FilterPutSpaceHelper@CryptoPP@@QAEPAEAAVBufferedTransformation@2@ABV?$basic_string@DU?$char_traits@D@std@@V?$allocator@D@2@@std@@IIAAI@Z 429028a1 f i asn.obj
 0001:000018eb       ?HelpCreatePutSpace@FilterPutSpaceHelper@CryptoPP@@QAEPAEAAVBufferedTransformation@2@ABV?$basic_string@DU?$char_traits@D@std@@V?$allocator@D@2@@std@@I@Z 429028eb f i asn.obj
 0001:00001925       ?HelpCreatePutSpace@FilterPutSpaceHelper@CryptoPP@@QAEPAEAAVBufferedTransformation@2@ABV?$basic_string@DU?$char_traits@D@std@@V?$allocator@D@2@@std@@II@Z 42902925 f i asn.obj
 0001:00001961       ??0FilterPutSpaceHelper@CryptoPP@@QAE@XZ 42902961 f i asn.obj
 0001:0000196f       ??0FilterPutSpaceHelper@CryptoPP@@QAE@ABU01@@Z 4290296f f i asn.obj
 0001:00001981       ??4FilterPutSpaceHelper@CryptoPP@@QAEAAU01@ABU01@@Z 42902981 f i asn.obj
 0001:00001993       ??1FilterPutSpaceHelper@CryptoPP@@QAE@XZ 42902993 f i asn.obj
 0001:00001993       ??1BlockQueue@FilterWithBufferedInput@CryptoPP@@QAE@XZ 42902993 f i asn.obj
 0001:00001998       ??0MeterFilter@CryptoPP@@QAE@PAVBufferedTransformation@1@_N@Z 42902998 f i asn.obj
 0001:000019f9       ?SetTransparent@MeterFilter@CryptoPP@@QAEX_N@Z 429029f9 f i asn.obj
 0001:00001a03       ?IsolatedInitialize@MeterFilter@CryptoPP@@UAEXABVNameValuePairs@2@@Z 42902a03 f i asn.obj
 0001:00001a0b       ?RemainingLength@BERGeneralDecoder@CryptoPP@@QBE_KXZ 42902a0b f i asn.obj
 0001:00001a0b       ?GetCurrentMessageBytes@MeterFilter@CryptoPP@@QBE_KXZ 42902a0b f i asn.obj
 0001:00001a12       ?GetTotalBytes@MeterFilter@CryptoPP@@QAE_KXZ 42902a12 f i asn.obj
 0001:00001a19       ?GetErrorCode@OS_Error@CryptoPP@@QBEHXZ 42902a19 f i asn.obj
 0001:00001a19       ?GetCurrentSeriesMessages@MeterFilter@CryptoPP@@QAEIXZ 42902a19 f i asn.obj
 0001:00001a1d       ?GetTotalMessages@MeterFilter@CryptoPP@@QAEIXZ 42902a1d f i asn.obj
 0001:00001a1d       ?KeystreamBufferBegin@?$AdditiveCipherTemplate@V?$AbstractPolicyHolder@UAdditiveCipherAbstractPolicy@CryptoPP@@VCTR_ModePolicy@2@@CryptoPP@@@CryptoPP@@IAEPAEXZ 42902a1d f i asn.obj
 0001:00001a21       ?GetOptimalNextBlockSize@?$AdditiveCipherTemplate@V?$AbstractPolicyHolder@UAdditiveCipherAbstractPolicy@CryptoPP@@VCTR_ModePolicy@2@@CryptoPP@@@CryptoPP@@QBEIXZ 42902a21 f i asn.obj
 0001:00001a21       ?GetTotalMessageSeries@MeterFilter@CryptoPP@@QAEIXZ 42902a21 f i asn.obj
 0001:00001a25       ?CreatePutSpace@MeterFilter@CryptoPP@@UAEPAEAAI@Z 42902a25 f i asn.obj
 0001:00001a3b       ?ShouldPropagateMessageEnd@MeterFilter@CryptoPP@@EBE_NXZ 42902a3b f i asn.obj
 0001:00001a3b       ?ShouldPropagateMessageSeriesEnd@MeterFilter@CryptoPP@@EBE_NXZ 42902a3b f i asn.obj
 0001:00001a3f       ??1MeterFilter@CryptoPP@@UAE@XZ 42902a3f f i asn.obj
 0001:00001a84       ??_FMeterFilter@CryptoPP@@QAEXXZ 42902a84 f i asn.obj
 0001:00001a8e       ??_EMeterFilter@CryptoPP@@UAEPAXI@Z 42902a8e f i asn.obj
 0001:00001ad9       ??1?$Bufferless@VFilter@CryptoPP@@@CryptoPP@@UAE@XZ 42902ad9 f i asn.obj
 0001:00001aff       ??0TransparentFilter@CryptoPP@@QAE@PAVBufferedTransformation@1@@Z 42902aff f i asn.obj
 0001:00001b20       ??_FTransparentFilter@CryptoPP@@QAEXXZ 42902b20 f i asn.obj
 0001:00001b28       ??_EOpaqueFilter@CryptoPP@@UAEPAXI@Z 42902b28 f i asn.obj
 0001:00001b28       ??_ETransparentFilter@CryptoPP@@UAEPAXI@Z 42902b28 f i asn.obj
 0001:00001b73       ??0OpaqueFilter@CryptoPP@@QAE@PAVBufferedTransformation@1@@Z 42902b73 f i asn.obj
 0001:00001b94       ??1TransparentFilter@CryptoPP@@UAE@XZ 42902b94 f i asn.obj
 0001:00001b94       ??1OpaqueFilter@CryptoPP@@UAE@XZ 42902b94 f i asn.obj
 0001:00001b99       ??_FOpaqueFilter@CryptoPP@@QAEXXZ 42902b99 f i asn.obj
 0001:00001ba1       ?Put2@FilterWithBufferedInput@CryptoPP@@UAEIPBEIH_N@Z 42902ba1 f i asn.obj
 0001:00001bbb       ?PutModifiable2@FilterWithBufferedInput@CryptoPP@@UAEIPAEIH_N@Z 42902bbb f i asn.obj
 0001:00001bd5       ?DidFirstPut@FilterWithBufferedInput@CryptoPP@@IAE_NXZ 42902bd5 f i asn.obj
 0001:00001bd9       ?InitializeDerivedAndReturnNewSizes@FilterWithBufferedInput@CryptoPP@@MAEXABVNameValuePairs@2@AAI11@Z 42902bd9 f i asn.obj
 0001:00001be8       ?NextPutModifiable@FilterWithBufferedInput@CryptoPP@@MAEXPAEI@Z 42902be8 f i asn.obj
 0001:00001bfb       ??1BlockCipher@CryptoPP@@UAE@XZ 42902bfb f i asn.obj
 0001:00001bfb       ??1Sink@CryptoPP@@UAE@XZ   42902bfb f i asn.obj
 0001:00001bfb       ??1?$AlgorithmImpl@V?$DL_VerifierBase@VInteger@CryptoPP@@@CryptoPP@@UDSA@2@@CryptoPP@@UAE@XZ 42902bfb f i asn.obj
 0001:00001bfb       ??1?$TF_ObjectImplBase@VTF_VerifierBase@CryptoPP@@U?$TF_SignatureSchemeOptions@V?$TF_SS@UPSS@CryptoPP@@VSHA1@2@URSA@2@H@CryptoPP@@URSA@2@V?$PSSR_MEM@$0A@VP1363_MGF1@CryptoPP@@$0?0$0A@$0A@@2@VSHA1@2@@2@VRSAFunction@2@@CryptoPP@@UAE@XZ 42902bfb f i asn.obj
 0001:00001bfb       ??1CryptoMaterial@CryptoPP@@UAE@XZ 42902bfb f i asn.obj
 0001:00001bfb       ??1AuthenticatedKeyAgreementDomain@CryptoPP@@UAE@XZ 42902bfb f i asn.obj
 0001:00001bfb       ??1?$AlgorithmImpl@V?$DL_VerifierBase@UEC2NPoint@CryptoPP@@@CryptoPP@@V?$DL_SS@U?$DL_Keys_ECDSA@VEC2N@CryptoPP@@@CryptoPP@@V?$DL_Algorithm_ECDSA@VEC2N@CryptoPP@@@2@VDL_SignatureMessageEncodingMethod_DSA@2@VSHA1@2@H@2@@CryptoPP@@UAE@XZ 42902bfb f i asn.obj
 0001:00001bfb       ??1StreamTransformation@CryptoPP@@UAE@XZ 42902bfb f i asn.obj
 0001:00001bfb       ??1?$TF_ObjectImplBase@VTF_SignerBase@CryptoPP@@U?$TF_SignatureSchemeOptions@V?$TF_SS@UPSS@CryptoPP@@VSHA1@2@URSA@2@H@CryptoPP@@URSA@2@V?$PSSR_MEM@$0A@VP1363_MGF1@CryptoPP@@$0?0$0A@$0A@@2@VSHA1@2@@2@VInvertibleRSAFunction@2@@CryptoPP@@UAE@XZ 42902bfb f i asn.obj
 0001:00001bfb       ??1PSSR_MEM_Base@CryptoPP@@UAE@XZ 42902bfb f i asn.obj
 0001:00001bfb       ??1?$CFB_DecryptionTemplate@V?$AbstractPolicyHolder@VCFB_CipherAbstractPolicy@CryptoPP@@VSymmetricCipher@2@@CryptoPP@@@CryptoPP@@UAE@XZ 42902bfb f i asn.obj
 0001:00001bfb       ??1NullStore@CryptoPP@@UAE@XZ 42902bfb f i asn.obj
 0001:00001bfb       ??1Walker@ByteQueue@CryptoPP@@UAE@XZ 42902bfb f i asn.obj
 0001:00001bfb       ??1PK_DeterministicSignatureMessageEncodingMethod@CryptoPP@@UAE@XZ 42902bfb f i asn.obj
 0001:00001bfb       ??1NameValuePairs@CryptoPP@@UAE@XZ 42902bfb f i asn.obj
 0001:00001bfb       ??1P1363_MGF1@CryptoPP@@UAE@XZ 42902bfb f i asn.obj
 0001:00001bfb       ??1DL_SignatureMessageEncodingMethod_DSA@CryptoPP@@UAE@XZ 42902bfb f i asn.obj
 0001:00001bfb       ??1PK_Encryptor@CryptoPP@@UAE@XZ 42902bfb f i asn.obj
 0001:00001bfb       ?FlushDerived@FilterWithBufferedInput@CryptoPP@@MAEXXZ 42902bfb f i asn.obj
 0001:00001bfb       ??1PK_SignatureScheme@CryptoPP@@UAE@XZ 42902bfb f i asn.obj
 0001:00001bfb       ??1PK_CryptoSystem@CryptoPP@@UAE@XZ 42902bfb f i asn.obj
 0001:00001bfb       ??1?$AutoSignaling@VBufferedTransformation@CryptoPP@@@CryptoPP@@UAE@XZ 42902bfb f i asn.obj
 0001:00001bfb       ??1ArrayXorSink@CryptoPP@@UAE@XZ 42902bfb f i asn.obj
 0001:00001bfb       ??1?$StringSinkTemplate@V?$basic_string@DU?$char_traits@D@std@@V?$allocator@D@2@@std@@@CryptoPP@@UAE@XZ 42902bfb f i asn.obj
 0001:00001bfb       ??1?$IteratedHashBase@IVHashTransformation@CryptoPP@@@CryptoPP@@UAE@XZ 42902bfb f i asn.obj
 0001:00001bfb       ??1?$Bufferless@VSink@CryptoPP@@@CryptoPP@@UAE@XZ 42902bfb f i asn.obj
 0001:00001bfb       ??1?$ASN1CryptoMaterial@V?$DL_GroupParameters@VInteger@CryptoPP@@@CryptoPP@@@CryptoPP@@UAE@XZ 42902bfb f i asn.obj
 0001:00001bfb       ??1?$BlockCipherImpl@USKIPJACK_Info@CryptoPP@@VBlockCipher@2@@CryptoPP@@UAE@XZ 42902bfb f i asn.obj
 0001:00001bfb       ??1?$Bufferless@VBufferedTransformation@CryptoPP@@@CryptoPP@@UAE@XZ 42902bfb f i asn.obj
 0001:00001bfb       ??1?$AlgorithmImpl@V?$DL_SignerBase@UECPPoint@CryptoPP@@@CryptoPP@@V?$DL_SS@U?$DL_Keys_ECDSA@VECP@CryptoPP@@@CryptoPP@@V?$DL_Algorithm_ECDSA@VECP@CryptoPP@@@2@VDL_SignatureMessageEncodingMethod_DSA@2@VSHA256@2@H@2@@CryptoPP@@UAE@XZ 42902bfb f i asn.obj
 0001:00001bfb       ??1Store@CryptoPP@@UAE@XZ  42902bfb f i asn.obj
 0001:00001bfb       ??1PK_Signer@CryptoPP@@UAE@XZ 42902bfb f i asn.obj
 0001:00001bfb       ??1OAEP_Base@CryptoPP@@UAE@XZ 42902bfb f i asn.obj
 0001:00001bfb       ?id@?$codecvt@DDH@std@@$E  42902bfb f i asn.obj
 0001:00001bfb       ?ReverseHashBufferIfNeeded@GCM_Base@CryptoPP@@IAEXXZ 42902bfb f i asn.obj
 0001:00001bfb       ??1PrivateKeyAlgorithm@CryptoPP@@UAE@XZ 42902bfb f i asn.obj
 0001:00001bfb       ??1?$DL_GroupParameters@VInteger@CryptoPP@@@CryptoPP@@UAE@XZ 42902bfb f i asn.obj
 0001:00001bfb       ??1AuthenticatedSymmetricCipher@CryptoPP@@UAE@XZ 42902bfb f i asn.obj
 0001:00001bfb       ??1BlockTransformation@CryptoPP@@UAE@XZ 42902bfb f i asn.obj
 0001:00001bfb       ??1RandomNumberGenerator@CryptoPP@@UAE@XZ 42902bfb f i asn.obj
 0001:00001bfb       ??1OutputProxy@CryptoPP@@UAE@XZ 42902bfb f i asn.obj
 0001:00001bfb       ??1?$Multichannel@VSink@CryptoPP@@@CryptoPP@@UAE@XZ 42902bfb f i asn.obj
 0001:00001bfb       ??1Redirector@CryptoPP@@UAE@XZ 42902bfb f i asn.obj
 0001:00001bfb       ??1?$DL_GroupParameters@UEC2NPoint@CryptoPP@@@CryptoPP@@UAE@XZ 42902bfb f i asn.obj
 0001:00001bfb       ??1BufferedTransformation@CryptoPP@@UAE@XZ 42902bfb f i asn.obj
 0001:00001bfb       ??1?$IteratedHashBase@_KVHashTransformation@CryptoPP@@@CryptoPP@@UAE@XZ 42902bfb f i asn.obj
 0001:00001bfb       ??1X509PublicKey@CryptoPP@@UAE@XZ 42902bfb f i asn.obj
 0001:00001bfb       ?id@?$collate@D@std@@$E    42902bfb f i asn.obj
 0001:00001bfb       ??1BitBucket@CryptoPP@@UAE@XZ 42902bfb f i asn.obj
 0001:00001bfb       ??1?$TF_ObjectImplBase@VTF_SignerBase@CryptoPP@@U?$TF_SignatureSchemeOptions@V?$TF_SS@UPKCS1v15@CryptoPP@@VSHA1@2@URSA@2@H@CryptoPP@@URSA@2@VPKCS1v15_SignatureMessageEncodingMethod@2@VSHA1@2@@2@VInvertibleRSAFunction@2@@CryptoPP@@UAE@XZ 42902bfb f i asn.obj
 0001:00001bfb       ??1?$DL_SimpleKeyAgreementDomainBase@VInteger@CryptoPP@@@CryptoPP@@UAE@XZ 42902bfb f i asn.obj
 0001:00001bfb       ??1MultiplicativeGroupT@?$AbstractRing@VPolynomialMod2@CryptoPP@@@CryptoPP@@UAE@XZ 42902bfb f i asn.obj
 0001:00001bfb       ??1TrapdoorFunctionBounds@CryptoPP@@UAE@XZ 42902bfb f i asn.obj
 0001:00001bfb       ??1?$AlgorithmImpl@V?$DL_SignerBase@UEC2NPoint@CryptoPP@@@CryptoPP@@V?$DL_SS@U?$DL_Keys_ECDSA@VEC2N@CryptoPP@@@CryptoPP@@V?$DL_Algorithm_ECDSA@VEC2N@CryptoPP@@@2@VDL_SignatureMessageEncodingMethod_DSA@2@VSHA1@2@H@2@@CryptoPP@@UAE@XZ 42902bfb f i asn.obj
 0001:00001bfb       ??1GeneratableCryptoMaterial@CryptoPP@@UAE@XZ 42902bfb f i asn.obj
 0001:00001bfb       ??1?$CFB_EncryptionTemplate@V?$AbstractPolicyHolder@VCFB_CipherAbstractPolicy@CryptoPP@@VSymmetricCipher@2@@CryptoPP@@@CryptoPP@@UAE@XZ 42902bfb f i asn.obj
 0001:00001bfb       ??1NullNameValuePairs@CryptoPP@@UAE@XZ 42902bfb f i asn.obj
 0001:00001bfb       ??1?$AbstractRing@VPolynomialMod2@CryptoPP@@@CryptoPP@@UAE@XZ 42902bfb f i asn.obj
 0001:00001bfb       ??1TrapdoorFunction@CryptoPP@@UAE@XZ 42902bfb f i asn.obj
 0001:00001bfb       ??1?$AbstractGroup@UECPPoint@CryptoPP@@@CryptoPP@@UAE@XZ 42902bfb f i asn.obj
 0001:00001bfb       ??1Algorithm@CryptoPP@@UAE@XZ 42902bfb f i asn.obj
 0001:00001bfb       ??1ArraySink@CryptoPP@@UAE@XZ 42902bfb f i asn.obj
 0001:00001bfb       ??1MultiplicativeGroupT@?$AbstractRing@VInteger@CryptoPP@@@CryptoPP@@UAE@XZ 42902bfb f i asn.obj
 0001:00001bfb       ??1RandomNumberStore@CryptoPP@@UAE@XZ 42902bfb f i asn.obj
 0001:00001bfb       ??1?$PSSR_MEM@$0A@VP1363_MGF1@CryptoPP@@$0?0$0A@$0A@@CryptoPP@@UAE@XZ 42902bfb f i asn.obj
 0001:00001bfb       ??1TF_SignerBase@CryptoPP@@UAE@XZ 42902bfb f i asn.obj
 0001:00001bfb       ??1RandomizedTrapdoorFunctionInverse@CryptoPP@@UAE@XZ 42902bfb f i asn.obj
 0001:00001bfb       ??1?$AlgorithmImpl@V?$DL_VerifierBase@UECPPoint@CryptoPP@@@CryptoPP@@V?$DL_SS@U?$DL_Keys_ECDSA@VECP@CryptoPP@@@CryptoPP@@V?$DL_Algorithm_ECDSA@VECP@CryptoPP@@@2@VDL_SignatureMessageEncodingMethod_DSA@2@VSHA256@2@H@2@@CryptoPP@@UAE@XZ 42902bfb f i asn.obj
 0001:00001bfb       ??1PK_RecoverableSignatureMessageEncodingMethod@CryptoPP@@UAE@XZ 42902bfb f i asn.obj
 0001:00001bfb       ??1CFB_CipherAbstractPolicy@CryptoPP@@UAE@XZ 42902bfb f i asn.obj
 0001:00001bfb       ??1?$AbstractGroup@VPolynomialMod2@CryptoPP@@@CryptoPP@@UAE@XZ 42902bfb f i asn.obj
 0001:00001bfb       ??1CombinedNameValuePairs@CryptoPP@@UAE@XZ 42902bfb f i asn.obj
 0001:00001bfb       ??1?$BlockCipherImpl@UDES_EDE2_Info@CryptoPP@@VBlockCipher@2@@CryptoPP@@UAE@XZ 42902bfb f i asn.obj
 0001:00001bfb       ??1TrapdoorFunctionInverse@CryptoPP@@UAE@XZ 42902bfb f i asn.obj
 0001:00001bfb       ??1?$AlgorithmImpl@V?$DL_VerifierBase@UECPPoint@CryptoPP@@@CryptoPP@@V?$DL_SS@U?$DL_Keys_ECDSA@VECP@CryptoPP@@@CryptoPP@@V?$DL_Algorithm_ECDSA@VECP@CryptoPP@@@2@VDL_SignatureMessageEncodingMethod_DSA@2@VSHA1@2@H@2@@CryptoPP@@UAE@XZ 42902bfb f i asn.obj
 0001:00001bfb       ??1CryptoParameters@CryptoPP@@UAE@XZ 42902bfb f i asn.obj
 0001:00001bfb       ??1?$InputRejecting@VBufferedTransformation@CryptoPP@@@CryptoPP@@UAE@XZ 42902bfb f i asn.obj
 0001:00001bfb       ??1KeyAgreementAlgorithm@CryptoPP@@UAE@XZ 42902bfb f i asn.obj
 0001:00001bfb       ??1ASN1Object@CryptoPP@@UAE@XZ 42902bfb f i asn.obj
 0001:00001bfb       ??1PublicKey@CryptoPP@@UAE@XZ 42902bfb f i asn.obj
 0001:00001bfb       ??1?$AbstractRing@VInteger@CryptoPP@@@CryptoPP@@UAE@XZ 42902bfb f i asn.obj
 0001:00001bfb       ??1HashTransformation@CryptoPP@@UAE@XZ 42902bfb f i asn.obj
 0001:00001bfb       ??1SymmetricCipher@CryptoPP@@UAE@XZ 42902bfb f i asn.obj
 0001:00001bfb       ??1TF_DecryptorBase@CryptoPP@@UAE@XZ 42902bfb f i asn.obj
 0001:00001bfb       ??1?$AbstractGroup@VInteger@CryptoPP@@@CryptoPP@@UAE@XZ 42902bfb f i asn.obj
 0001:00001bfb       ??1PK_Decryptor@CryptoPP@@UAE@XZ 42902bfb f i asn.obj
 0001:00001bfb       ??1?$ASN1CryptoMaterial@VPrivateKey@CryptoPP@@@CryptoPP@@UAE@XZ 42902bfb f i asn.obj
 0001:00001bfb       ??1SimpleKeyAgreementDomain@CryptoPP@@UAE@XZ 42902bfb f i asn.obj
 0001:00001bfb       ??1SimpleKeyingInterface@CryptoPP@@UAE@XZ 42902bfb f i asn.obj
 0001:00001bfb       ??1?$AbstractPolicyHolder@UAdditiveCipherAbstractPolicy@CryptoPP@@VSymmetricCipher@2@@CryptoPP@@UAE@XZ 42902bfb f i asn.obj
 0001:00001bfb       ??1?$BlockCipherImpl@URijndael_Info@CryptoPP@@VBlockCipher@2@@CryptoPP@@UAE@XZ 42902bfb f i asn.obj
 0001:00001bfb       ??1DL_SignatureMessageEncodingMethod_NR@CryptoPP@@UAE@XZ 42902bfb f i asn.obj
 0001:00001bfb       ??1?$AlgorithmImpl@V?$DL_SignerBase@UECPPoint@CryptoPP@@@CryptoPP@@V?$DL_SS@U?$DL_Keys_ECDSA@VECP@CryptoPP@@@CryptoPP@@V?$DL_Algorithm_ECDSA@VECP@CryptoPP@@@2@VDL_SignatureMessageEncodingMethod_DSA@2@VSHA1@2@H@2@@CryptoPP@@UAE@XZ 42902bfb f i asn.obj
 0001:00001bfb       ??1?$AlgorithmImpl@V?$DL_SignerBase@VInteger@CryptoPP@@@CryptoPP@@UDSA@2@@CryptoPP@@UAE@XZ 42902bfb f i asn.obj
 0001:00001bfb       ??1AdditiveCipherAbstractPolicy@CryptoPP@@UAE@XZ 42902bfb f i asn.obj
 0001:00001bfb       ??1AsymmetricAlgorithm@CryptoPP@@UAE@XZ 42902bfb f i asn.obj
 0001:00001bfb       ??1?$TF_ObjectImplBase@VTF_SignerBase@CryptoPP@@U?$TF_SignatureSchemeOptions@V?$TF_SS@UP1363_EMSA2@CryptoPP@@VSHA1@2@URSA_ISO@2@H@CryptoPP@@URSA_ISO@2@VEMSA2Pad@2@VSHA1@2@@2@VInvertibleRSAFunction_ISO@2@@CryptoPP@@UAE@XZ 42902bfb f i asn.obj
 0001:00001bfb       ??1ClassNullRNG@CryptoPP@@UAE@XZ 42902bfb f i asn.obj
 0001:00001bfb       ??1PublicKeyAlgorithm@CryptoPP@@UAE@XZ 42902bfb f i asn.obj
 0001:00001bfb       ??1PrivateKey@CryptoPP@@UAE@XZ 42902bfb f i asn.obj
 0001:00001bfb       ??1PK_MessageAccumulator@CryptoPP@@UAE@XZ 42902bfb f i asn.obj
 0001:00001bfb       ??1?$AlgorithmImpl@V?$DL_SignerBase@UEC2NPoint@CryptoPP@@@CryptoPP@@V?$DL_SS@U?$DL_Keys_ECDSA@VEC2N@CryptoPP@@@CryptoPP@@V?$DL_Algorithm_ECDSA@VEC2N@CryptoPP@@@2@VDL_SignatureMessageEncodingMethod_DSA@2@VSHA256@2@H@2@@CryptoPP@@UAE@XZ 42902bfb f i asn.obj
 0001:00001bfb       ??1?$CFB_CipherTemplate@V?$AbstractPolicyHolder@VCFB_CipherAbstractPolicy@CryptoPP@@VSymmetricCipher@2@@CryptoPP@@@CryptoPP@@UAE@XZ 42902bfb f i asn.obj
 0001:00001bfb       ??1TF_EncryptorBase@CryptoPP@@UAE@XZ 42902bfb f i asn.obj
 0001:00001bfb       ??1TF_VerifierBase@CryptoPP@@UAE@XZ 42902bfb f i asn.obj
 0001:00001bfb       ??1?$TF_ObjectImplBase@VTF_VerifierBase@CryptoPP@@U?$TF_SignatureSchemeOptions@V?$TF_SS@UP1363_EMSA2@CryptoPP@@VSHA1@2@URSA_ISO@2@H@CryptoPP@@URSA_ISO@2@VEMSA2Pad@2@VSHA1@2@@2@VRSAFunction_ISO@2@@CryptoPP@@UAE@XZ 42902bfb f i asn.obj
 0001:00001bfb       ??1StringStore@CryptoPP@@UAE@XZ 42902bfb f i asn.obj
 0001:00001bfb       ?AuthenticateLastConfidentialBlock@AuthenticatedSymmetricCipherBase@CryptoPP@@MAEXXZ 42902bfb f i asn.obj
 0001:00001bfb       ??1?$AbstractGroup@UEC2NPoint@CryptoPP@@@CryptoPP@@UAE@XZ 42902bfb f i asn.obj
 0001:00001bfb       ??3@YAXPAX0@Z              42902bfb f i asn.obj
 0001:00001bfb       ??1MessageAuthenticationCode@CryptoPP@@UAE@XZ 42902bfb f i asn.obj
 0001:00001bfb       ??1RandomizedTrapdoorFunction@CryptoPP@@UAE@XZ 42902bfb f i asn.obj
 0001:00001bfb       ??1EMSA2Pad@CryptoPP@@UAE@XZ 42902bfb f i asn.obj
 0001:00001bfb       ??1PKCS1v15_SignatureMessageEncodingMethod@CryptoPP@@UAE@XZ 42902bfb f i asn.obj
 0001:00001bfb       ?id@?$ctype@G@std@@$E      42902bfb f i asn.obj
 0001:00001bfb       ??1PK_Verifier@CryptoPP@@UAE@XZ 42902bfb f i asn.obj
 0001:00001bfb       ??1?$DL_GroupParameters@UECPPoint@CryptoPP@@@CryptoPP@@UAE@XZ 42902bfb f i asn.obj
 0001:00001bfb       ??1?$BlockCipherImpl@UDES_EDE3_Info@CryptoPP@@VBlockCipher@2@@CryptoPP@@UAE@XZ 42902bfb f i asn.obj
 0001:00001bfb       ??1Clonable@CryptoPP@@UAE@XZ 42902bfb f i asn.obj
 0001:00001bfb       ??1?$TF_ObjectImplBase@VTF_VerifierBase@CryptoPP@@U?$TF_SignatureSchemeOptions@V?$TF_SS@UPKCS1v15@CryptoPP@@VSHA1@2@URSA@2@H@CryptoPP@@URSA@2@VPKCS1v15_SignatureMessageEncodingMethod@2@VSHA1@2@@2@VRSAFunction@2@@CryptoPP@@UAE@XZ 42902bfb f i asn.obj
 0001:00001bfb       ??1?$AlgorithmImpl@V?$DL_VerifierBase@UEC2NPoint@CryptoPP@@@CryptoPP@@V?$DL_SS@U?$DL_Keys_ECDSA@VEC2N@CryptoPP@@@CryptoPP@@V?$DL_Algorithm_ECDSA@VEC2N@CryptoPP@@@2@VDL_SignatureMessageEncodingMethod_DSA@2@VSHA256@2@H@2@@CryptoPP@@UAE@XZ 42902bfb f i asn.obj
 0001:00001bfb       ??1?$OAEP@VSHA1@CryptoPP@@VP1363_MGF1@2@@CryptoPP@@UAE@XZ 42902bfb f i asn.obj
 0001:00001bfc       ?NextPutMaybeModifiable@FilterWithBufferedInput@CryptoPP@@IAEXPAEI_N@Z 42902bfc f i asn.obj
 0001:00001c1f       ??1FilterWithBufferedInput@CryptoPP@@UAE@XZ 42902c1f f i asn.obj
 0001:00001c58       ??0FilterWithInputQueue@CryptoPP@@QAE@PAVBufferedTransformation@1@@Z 42902c58 f i asn.obj
 0001:00001c9d       ?Put2@FilterWithInputQueue@CryptoPP@@UAEIPBEIH_N@Z 42902c9d f i asn.obj
 0001:00001d42       ?IsolatedInitialize@FilterWithInputQueue@CryptoPP@@MAEXABVNameValuePairs@2@@Z 42902d42 f i asn.obj
 0001:00001d4d       ??1FilterWithInputQueue@CryptoPP@@UAE@XZ 42902d4d f i asn.obj
 0001:00001d86       ??_FFilterWithInputQueue@CryptoPP@@QAEXXZ 42902d86 f i asn.obj
 0001:00001d8e       ??_EFilterWithInputQueue@CryptoPP@@UAEPAXI@Z 42902d8e f i asn.obj
 0001:00001dd9       ??0BlockingInputOnly@BufferedTransformation@CryptoPP@@QAE@ABU012@@Z 42902dd9 f i asn.obj
 0001:00001df1       ?AlgorithmName@StreamTransformationFilter@CryptoPP@@UBE?AV?$basic_string@DU?$char_traits@D@std@@V?$allocator@D@2@@std@@XZ 42902df1 f i asn.obj
 0001:00001e0b       ??1StreamTransformationFilter@CryptoPP@@UAE@XZ 42902e0b f i asn.obj
 0001:00001e59       ?AlgorithmName@HashFilter@CryptoPP@@UBE?AV?$basic_string@DU?$char_traits@D@std@@V?$allocator@D@2@@std@@XZ 42902e59 f i asn.obj
 0001:00001e73       ?CreatePutSpace@HashFilter@CryptoPP@@UAEPAEAAI@Z 42902e73 f i asn.obj
 0001:00001e82       ??1HashFilter@CryptoPP@@UAE@XZ 42902e82 f i asn.obj
 0001:00001ee2       ?AlgorithmName@HashVerificationFilter@CryptoPP@@UBE?AV?$basic_string@DU?$char_traits@D@std@@V?$allocator@D@2@@std@@XZ 42902ee2 f i asn.obj
 0001:00001efc       ?GetLastResult@HashVerificationFilter@CryptoPP@@QBE_NXZ 42902efc f i asn.obj
 0001:00001f00       ??1HashVerificationFilter@CryptoPP@@UAE@XZ 42902f00 f i asn.obj
 0001:00001f48       ??1AuthenticatedEncryptionFilter@CryptoPP@@UAE@XZ 42902f48 f i asn.obj
 0001:00001f7d       ?AlgorithmName@AuthenticatedDecryptionFilter@CryptoPP@@UBE?AV?$basic_string@DU?$char_traits@D@std@@V?$allocator@D@2@@std@@XZ 42902f7d f i asn.obj
 0001:00001f98       ?GetLastResult@AuthenticatedDecryptionFilter@CryptoPP@@QBE_NXZ 42902f98 f i asn.obj
 0001:00001f9f       ??1AuthenticatedDecryptionFilter@CryptoPP@@UAE@XZ 42902f9f f i asn.obj
 0001:00001ff9       ??0SignerFilter@CryptoPP@@QAE@AAVRandomNumberGenerator@1@ABVPK_Signer@1@PAVBufferedTransformation@1@_N@Z 42902ff9 f i asn.obj
 0001:0000206a       ?AlgorithmName@SignerFilter@CryptoPP@@UBE?AV?$basic_string@DU?$char_traits@D@std@@V?$allocator@D@2@@std@@XZ 4290306a f i asn.obj
 0001:00002088       ??1SignerFilter@CryptoPP@@UAE@XZ 42903088 f i asn.obj
 0001:000020d0       ??_ESignerFilter@CryptoPP@@UAEPAXI@Z 429030d0 f i asn.obj
 0001:0000211b       ??1?$Unflushable@VFilter@CryptoPP@@@CryptoPP@@UAE@XZ 4290311b f i asn.obj
 0001:00002141       ?AlgorithmName@SignatureVerificationFilter@CryptoPP@@UBE?AV?$basic_string@DU?$char_traits@D@std@@V?$allocator@D@2@@std@@XZ 42903141 f i asn.obj
 0001:0000215f       ?GetLastResult@SignatureVerificationFilter@CryptoPP@@QBE_NXZ 4290315f f i asn.obj
 0001:00002163       ??1SignatureVerificationFilter@CryptoPP@@UAE@XZ 42903163 f i asn.obj
 0001:000021ba       ??0Redirector@CryptoPP@@QAE@XZ 429031ba f i asn.obj
 0001:000021e0       ??0Redirector@CryptoPP@@QAE@AAVBufferedTransformation@1@W4Behavior@01@@Z 429031e0 f i asn.obj
 0001:0000220b       ?StopRedirection@Redirector@CryptoPP@@QAEXXZ 4290320b f i asn.obj
 0001:00002210       ?SetBehavior@Redirector@CryptoPP@@QAEXW4Behavior@12@@Z 42903210 f i asn.obj
 0001:0000221a       ?GetPassSignals@Redirector@CryptoPP@@QBE_NXZ 4290321a f i asn.obj
 0001:00002221       ?SetPassSignals@Redirector@CryptoPP@@QAEX_N@Z 42903221 f i asn.obj
 0001:00002235       ?GetPassWaitObjects@Redirector@CryptoPP@@QBE_NXZ 42903235 f i asn.obj
 0001:0000223e       ?SetPassWaitObjects@Redirector@CryptoPP@@QAEX_N@Z 4290323e f i asn.obj
 0001:00002252       ?CanModifyInput@Redirector@CryptoPP@@UBE_NXZ 42903252 f i asn.obj
 0001:00002262       ?CreatePutSpace@Redirector@CryptoPP@@UAEPAEAAI@Z 42903262 f i asn.obj
 0001:0000227f       ?Put2@Redirector@CryptoPP@@UAEIPBEIH_N@Z 4290327f f i asn.obj
 0001:000022af       ?Flush@Redirector@CryptoPP@@UAE_N_NH0@Z 429032af f i asn.obj
 0001:000022d6       ?MessageSeriesEnd@Redirector@CryptoPP@@UAE_NH_N@Z 429032d6 f i asn.obj
 0001:000022f9       ?ChannelCreatePutSpace@Redirector@CryptoPP@@UAEPAEABV?$basic_string@DU?$char_traits@D@std@@V?$allocator@D@2@@std@@AAI@Z 429032f9 f i asn.obj
 0001:0000231d       ?ChannelPut2@Redirector@CryptoPP@@UAEIABV?$basic_string@DU?$char_traits@D@std@@V?$allocator@D@2@@std@@PBEIH_N@Z 4290331d f i asn.obj
 0001:00002353       ?ChannelPutModifiable2@Redirector@CryptoPP@@UAEIABV?$basic_string@DU?$char_traits@D@std@@V?$allocator@D@2@@std@@PAEIH_N@Z 42903353 f i asn.obj
 0001:00002389       ?ChannelFlush@Redirector@CryptoPP@@UAE_NABV?$basic_string@DU?$char_traits@D@std@@V?$allocator@D@2@@std@@_NH1@Z 42903389 f i asn.obj
 0001:000023b7       ?ChannelMessageSeriesEnd@Redirector@CryptoPP@@UAE_NABV?$basic_string@DU?$char_traits@D@std@@V?$allocator@D@2@@std@@H_N@Z 429033b7 f i asn.obj
 0001:000023e1       ?GetMaxWaitObjectCount@Redirector@CryptoPP@@UBEIXZ 429033e1 f i asn.obj
 0001:000023ff       ?GetWaitObjects@Redirector@CryptoPP@@UAEXAAVWaitObjectContainer@2@ABVCallStack@2@@Z 429033ff f i asn.obj
 0001:00002424       ??0Redirector@CryptoPP@@QAE@ABV01@@Z 42903424 f i asn.obj
 0001:0000244c       ??4Redirector@CryptoPP@@QAEAAV01@ABV01@@Z 4290344c f i asn.obj
 0001:00002481       ??_ERedirector@CryptoPP@@UAEPAXI@Z 42903481 f i asn.obj
 0001:00002481       ??_EOutputProxy@CryptoPP@@UAEPAXI@Z 42903481 f i asn.obj
 0001:000024cc       ??0OutputProxy@CryptoPP@@QAE@AAVBufferedTransformation@1@_N@Z 429034cc f i asn.obj
 0001:000024f7       ?GetPassSignal@OutputProxy@CryptoPP@@QBE_NXZ 429034f7 f i asn.obj
 0001:000024fb       ?SetPassSignal@OutputProxy@CryptoPP@@QAEX_N@Z 429034fb f i asn.obj
 0001:00002505       ?CreatePutSpace@OutputProxy@CryptoPP@@UAEPAEAAI@Z 42903505 f i asn.obj
 0001:0000251e       ?Put2@OutputProxy@CryptoPP@@UAEIPBEIH_N@Z 4290351e f i asn.obj
 0001:0000254f       ?PutModifiable2@OutputProxy@CryptoPP@@UAEIPAEIH_N@Z 4290354f f i asn.obj
 0001:00002580       ?Initialize@OutputProxy@CryptoPP@@UAEXABVNameValuePairs@2@H@Z 42903580 f i asn.obj
 0001:000025a3       ?Flush@OutputProxy@CryptoPP@@UAE_N_NH0@Z 429035a3 f i asn.obj
 0001:000025cb       ?MessageSeriesEnd@OutputProxy@CryptoPP@@UAE_NH_N@Z 429035cb f i asn.obj
 0001:000025ef       ?ChannelCreatePutSpace@OutputProxy@CryptoPP@@UAEPAEABV?$basic_string@DU?$char_traits@D@std@@V?$allocator@D@2@@std@@AAI@Z 429035ef f i asn.obj
 0001:0000260f       ?ChannelPut2@OutputProxy@CryptoPP@@UAEIABV?$basic_string@DU?$char_traits@D@std@@V?$allocator@D@2@@std@@PBEIH_N@Z 4290360f f i asn.obj
 0001:00002646       ?ChannelPutModifiable2@OutputProxy@CryptoPP@@UAEIABV?$basic_string@DU?$char_traits@D@std@@V?$allocator@D@2@@std@@PAEIH_N@Z 42903646 f i asn.obj
 0001:0000267d       ?ChannelFlush@OutputProxy@CryptoPP@@UAE_NABV?$basic_string@DU?$char_traits@D@std@@V?$allocator@D@2@@std@@_NH1@Z 4290367d f i asn.obj
 0001:000026ac       ?ChannelMessageSeriesEnd@OutputProxy@CryptoPP@@UAE_NABV?$basic_string@DU?$char_traits@D@std@@V?$allocator@D@2@@std@@H_N@Z 429036ac f i asn.obj
 0001:000026d7       ??0OutputProxy@CryptoPP@@QAE@ABV01@@Z 429036d7 f i asn.obj
 0001:000026ff       ??1ProxyFilter@CryptoPP@@UAE@XZ 429036ff f i asn.obj
 0001:00002747       ??0SimpleProxyFilter@CryptoPP@@QAE@PAVBufferedTransformation@1@0@Z 42903747 f i asn.obj
 0001:0000276e       ?LastPut@SimpleProxyFilter@CryptoPP@@UAEXPBEI@Z 4290376e f i asn.obj
 0001:00002781       ??_EPK_EncryptorFilter@CryptoPP@@UAEPAXI@Z 42903781 f i asn.obj
 0001:00002781       ??_EPK_DecryptorFilter@CryptoPP@@UAEPAXI@Z 42903781 f i asn.obj
 0001:00002781       ??_ESimpleProxyFilter@CryptoPP@@UAEPAXI@Z 42903781 f i asn.obj
 0001:000027cc       ??0PK_EncryptorFilter@CryptoPP@@QAE@AAVRandomNumberGenerator@1@ABVPK_Encryptor@1@PAVBufferedTransformation@1@@Z 429037cc f i asn.obj
 0001:00002807       ??0PK_DecryptorFilter@CryptoPP@@QAE@AAVRandomNumberGenerator@1@ABVPK_Decryptor@1@PAVBufferedTransformation@1@@Z 42903807 f i asn.obj
 0001:00002842       ??1HexEncoder@CryptoPP@@UAE@XZ 42903842 f i asn.obj
 0001:00002842       ??1PK_EncryptorFilter@CryptoPP@@UAE@XZ 42903842 f i asn.obj
 0001:00002842       ??1PK_DecryptorFilter@CryptoPP@@UAE@XZ 42903842 f i asn.obj
 0001:00002842       ??1SimpleProxyFilter@CryptoPP@@UAE@XZ 42903842 f i asn.obj
 0001:00002847       ??0?$StringSinkTemplate@V?$basic_string@DU?$char_traits@D@std@@V?$allocator@D@2@@std@@@CryptoPP@@QAE@ABV01@@Z 42903847 f i asn.obj
 0001:00002869       ??4?$StringSinkTemplate@V?$basic_string@DU?$char_traits@D@std@@V?$allocator@D@2@@std@@@CryptoPP@@QAEAAV01@ABV01@@Z 42903869 f i asn.obj
 0001:00002898       ??_E?$StringSinkTemplate@V?$basic_string@DU?$char_traits@D@std@@V?$allocator@D@2@@std@@@CryptoPP@@UAEPAXI@Z 42903898 f i asn.obj
 0001:000028e3       ??0ArraySink@CryptoPP@@QAE@ABVNameValuePairs@1@@Z 429038e3 f i asn.obj
 0001:00002927       ??0ArraySink@CryptoPP@@QAE@PAEI@Z 42903927 f i asn.obj
 0001:0000295a       ?AvailableSize@ArraySink@CryptoPP@@QAEIXZ 4290395a f i asn.obj
 0001:00002983       ??0ArraySink@CryptoPP@@QAE@ABV01@@Z 42903983 f i asn.obj
 0001:000029b7       ??4ArraySink@CryptoPP@@QAEAAV01@ABV01@@Z 429039b7 f i asn.obj
 0001:000029f8       ??_FArraySink@CryptoPP@@QAEXXZ 429039f8 f i asn.obj
 0001:00002a04       ??_ENullStore@CryptoPP@@UAEPAXI@Z 42903a04 f i asn.obj
 0001:00002a04       ??_EArrayXorSink@CryptoPP@@UAEPAXI@Z 42903a04 f i asn.obj
 0001:00002a04       ??_EArraySink@CryptoPP@@UAEPAXI@Z 42903a04 f i asn.obj
 0001:00002a4f       ??0ArrayXorSink@CryptoPP@@QAE@PAEI@Z 42903a4f f i asn.obj
 0001:00002a82       ?CreatePutSpace@ArrayXorSink@CryptoPP@@UAEPAEAAI@Z 42903a82 f i asn.obj
 0001:00002a82       ?CreatePutSpace@BufferedTransformation@CryptoPP@@UAEPAEAAI@Z 42903a82 f i asn.obj
 0001:00002a82       ?CreateUpdateSpace@HashTransformation@CryptoPP@@UAEPAEAAI@Z 42903a82 f i asn.obj
 0001:00002a8e       ??0ArrayXorSink@CryptoPP@@QAE@ABV01@@Z 42903a8e f i asn.obj
 0001:00002ac2       ??4ArrayXorSink@CryptoPP@@QAEAAV01@ABV01@@Z 42903ac2 f i asn.obj
 0001:00002ad4       ??0RandomNumberStore@CryptoPP@@QAE@XZ 42903ad4 f i asn.obj
 0001:00002b08       ??0RandomNumberStore@CryptoPP@@QAE@AAVRandomNumberGenerator@1@_K@Z 42903b08 f i asn.obj
 0001:00002b4a       ?AnyRetrievable@RandomNumberStore@CryptoPP@@UBE_NXZ 42903b4a f i asn.obj
 0001:00002b5a       ?MaxRetrievable@RandomNumberStore@CryptoPP@@UBE_KXZ 42903b5a f i asn.obj
 0001:00002b67       ?CopyRangeTo2@RandomNumberStore@CryptoPP@@UBEIAAVBufferedTransformation@2@AA_K_KABV?$basic_string@DU?$char_traits@D@std@@V?$allocator@D@2@@std@@_N@Z 42903b67 f i asn.obj
 0001:00002bc3       ??0RandomNumberStore@CryptoPP@@QAE@ABV01@@Z 42903bc3 f i asn.obj
 0001:00002c09       ??4RandomNumberStore@CryptoPP@@QAEAAV01@ABV01@@Z 42903c09 f i asn.obj
 0001:00002c3c       ??_ERandomNumberStore@CryptoPP@@UAEPAXI@Z 42903c3c f i asn.obj
 0001:00002c87       ??0NullStore@CryptoPP@@QAE@_K@Z 42903c87 f i asn.obj
 0001:00002cba       ?TotalPutLength@ArraySink@CryptoPP@@QAE_KXZ 42903cba f i asn.obj
 0001:00002cba       ?MaxRetrievable@NullStore@CryptoPP@@UBE_KXZ 42903cba f i asn.obj
 0001:00002cc1       ??0NullStore@CryptoPP@@QAE@ABV01@@Z 42903cc1 f i asn.obj
 0001:00002cf5       ??4NullStore@CryptoPP@@QAEAAV01@ABV01@@Z 42903cf5 f i asn.obj
 0001:00002d16       ??_FNullStore@CryptoPP@@QAEXXZ 42903d16 f i asn.obj
 0001:00002d20       ??0Source@CryptoPP@@QAE@PAVBufferedTransformation@1@@Z 42903d20 f i asn.obj
 0001:00002d57       ?Pump@Source@CryptoPP@@QAE_K_K@Z 42903d57 f i asn.obj
 0001:00002d71       ?PumpMessages@Source@CryptoPP@@QAEII@Z 42903d71 f i asn.obj
 0001:00002d87       ?PumpAll@Source@CryptoPP@@QAEXXZ 42903d87 f i asn.obj
 0001:00002d92       ?SourceInitialize@Source@CryptoPP@@IAEX_NABVNameValuePairs@2@@Z 42903d92 f i asn.obj
 0001:00002db5       ??1Source@CryptoPP@@UAE@XZ 42903db5 f i asn.obj
 0001:00002ddb       ??_FSource@CryptoPP@@QAEXXZ 42903ddb f i asn.obj
 0001:00002de3       ??1?$InputRejecting@VFilter@CryptoPP@@@CryptoPP@@UAE@XZ 42903de3 f i asn.obj
 0001:00002e09       ??0StringSource@CryptoPP@@QAE@PAVBufferedTransformation@1@@Z 42903e09 f i asn.obj
 0001:00002e28       ??0StringSource@CryptoPP@@QAE@PBD_NPAVBufferedTransformation@1@@Z 42903e28 f i asn.obj
 0001:00002ec0       ??0ConstByteArrayParameter@CryptoPP@@QAE@PBD_N@Z 42903ec0 f i asn.obj
 0001:00002f11       ?Assign@ConstByteArrayParameter@CryptoPP@@QAEXPBEI_N@Z 42903f11 f i asn.obj
 0001:00002f58       ??1ConstByteArrayParameter@CryptoPP@@QAE@XZ 42903f58 f i asn.obj
 0001:00002f60       ??0StringSource@CryptoPP@@QAE@PBEI_NPAVBufferedTransformation@1@@Z 42903f60 f i asn.obj
 0001:00003007       ??0StringSource@CryptoPP@@QAE@ABV?$basic_string@DU?$char_traits@D@std@@V?$allocator@D@2@@std@@_NPAVBufferedTransformation@1@@Z 42904007 f i asn.obj
 0001:0000309f       ??1StringSource@CryptoPP@@UAE@XZ 4290409f f i asn.obj
 0001:000030c5       ??_FStringSource@CryptoPP@@QAEXXZ 429040c5 f i asn.obj
 0001:000030cd       ??_EStringSource@CryptoPP@@UAEPAXI@Z 429040cd f i asn.obj
 0001:00003118       ??1?$SourceTemplate@VStringStore@CryptoPP@@@CryptoPP@@UAE@XZ 42904118 f i asn.obj
 0001:0000313e       ??0RandomNumberSource@CryptoPP@@QAE@AAVRandomNumberGenerator@1@H_NPAVBufferedTransformation@1@@Z 4290413e f i asn.obj
 0001:000031d6       ??1RandomNumberSource@CryptoPP@@UAE@XZ 429041d6 f i asn.obj
 0001:000031fc       ??_ERandomNumberSource@CryptoPP@@UAEPAXI@Z 429041fc f i asn.obj
 0001:00003247       ??1?$SourceTemplate@VRandomNumberStore@CryptoPP@@@CryptoPP@@UAE@XZ 42904247 f i asn.obj
 0001:0000326d       ??0UnknownOID@CryptoPP@@QAE@XZ 4290426d f i asn.obj
 0001:000032e2       ??0UnknownOID@CryptoPP@@QAE@PBD@Z 429042e2 f i asn.obj
 0001:00003356       ??0UnknownOID@CryptoPP@@QAE@ABV01@@Z 42904356 f i asn.obj
 0001:0000336e       ??0OID@CryptoPP@@QAE@XZ    4290436e f i asn.obj
 0001:00003384       ??0OID@CryptoPP@@QAE@I@Z   42904384 f i asn.obj
 0001:000033a1       ??0OID@CryptoPP@@QAE@AAVBufferedTransformation@1@@Z 429043a1 f i asn.obj
 0001:000033de       ??YOID@CryptoPP@@QAEAAV01@I@Z 429043de f i asn.obj
 0001:000033f1       ??0OID@CryptoPP@@QAE@ABV01@@Z 429043f1 f i asn.obj
 0001:00003403       ??4OID@CryptoPP@@QAEAAV01@ABV01@@Z 42904403 f i asn.obj
 0001:00003415       ??1?$EcRecommendedParameters@VECP@CryptoPP@@@CryptoPP@@QAE@XZ 42904415 f i asn.obj
 0001:00003415       ??1OID@CryptoPP@@QAE@XZ    42904415 f i asn.obj
 0001:00003415       ??1?$EcRecommendedParameters@VEC2N@CryptoPP@@@CryptoPP@@QAE@XZ 42904415 f i asn.obj
 0001:0000341a       ?IsDefiniteLength@BERGeneralDecoder@CryptoPP@@QBE_NXZ 4290441a f i asn.obj
 0001:0000341e       ??0BERGeneralDecoder@CryptoPP@@QAE@ABV01@@Z 4290441e f i asn.obj
 0001:00003464       ??_EBERGeneralDecoder@CryptoPP@@UAEPAXI@Z 42904464 f i asn.obj
 0001:000034af       ??_ODERGeneralEncoder@CryptoPP@@QAEXAAV01@@Z 429044af f i asn.obj
 0001:000034bd       ??0BERSequenceDecoder@CryptoPP@@QAE@AAVBufferedTransformation@1@E@Z 429044bd f i asn.obj
 0001:000034e0       ??0BERSequenceDecoder@CryptoPP@@QAE@AAV01@E@Z 429044e0 f i asn.obj
 0001:00003503       ??_OBERSequenceDecoder@CryptoPP@@QAEXAAV01@@Z 42904503 f i asn.obj
 0001:00003511       ??_EBERSetDecoder@CryptoPP@@UAEPAXI@Z 42904511 f i asn.obj
 0001:00003511       ??_EBERSequenceDecoder@CryptoPP@@UAEPAXI@Z 42904511 f i asn.obj
 0001:0000355c       ??0DERSequenceEncoder@CryptoPP@@QAE@AAVBufferedTransformation@1@E@Z 4290455c f i asn.obj
 0001:0000355c       ??0DERSequenceEncoder@CryptoPP@@QAE@AAV01@E@Z 4290455c f i asn.obj
 0001:0000358b       ??_ODERSequenceEncoder@CryptoPP@@QAEXAAV01@@Z 4290458b f i asn.obj
 0001:00003599       ??0BERSetDecoder@CryptoPP@@QAE@AAVBufferedTransformation@1@E@Z 42904599 f i asn.obj
 0001:000035bc       ??0BERSetDecoder@CryptoPP@@QAE@AAV01@E@Z 429045bc f i asn.obj
 0001:000035df       ??1BERSetDecoder@CryptoPP@@UAE@XZ 429045df f i asn.obj
 0001:000035df       ??1BERSequenceDecoder@CryptoPP@@UAE@XZ 429045df f i asn.obj
 0001:000035e4       ??_OBERSetDecoder@CryptoPP@@QAEXAAV01@@Z 429045e4 f i asn.obj
 0001:000035f2       ??0DERSetEncoder@CryptoPP@@QAE@AAVBufferedTransformation@1@E@Z 429045f2 f i asn.obj
 0001:000035f2       ??0DERSetEncoder@CryptoPP@@QAE@AAV01@E@Z 429045f2 f i asn.obj
 0001:00003621       ??1DERSequenceEncoder@CryptoPP@@UAE@XZ 42904621 f i asn.obj
 0001:00003621       ??1DERSetEncoder@CryptoPP@@UAE@XZ 42904621 f i asn.obj
 0001:00003626       ??_ODERSetEncoder@CryptoPP@@QAEXAAV01@@Z 42904626 f i asn.obj
 0001:00003634       ??_EDERSetEncoder@CryptoPP@@UAEPAXI@Z 42904634 f i asn.obj
 0001:00003634       ??_EDERSequenceEncoder@CryptoPP@@UAEPAXI@Z 42904634 f i asn.obj
 0001:0000367f       ?BERDecodeAlgorithmParameters@PKCS8PrivateKey@CryptoPP@@UAE_NAAVBufferedTransformation@2@@Z 4290467f f i asn.obj
 0001:0000367f       ?BERDecodeAlgorithmParameters@X509PublicKey@CryptoPP@@UAE_NAAVBufferedTransformation@2@@Z 4290467f f i asn.obj
 0001:0000368e       ?DEREncodeAlgorithmParameters@PKCS8PrivateKey@CryptoPP@@UBE_NAAVBufferedTransformation@2@@Z 4290468e f i asn.obj
 0001:0000368e       ?DEREncodeAlgorithmParameters@X509PublicKey@CryptoPP@@UBE_NAAVBufferedTransformation@2@@Z 4290468e f i asn.obj
 0001:0000369d       ??0X509PublicKey@CryptoPP@@QAE@XZ 4290469d f i asn.obj
 0001:000036cc       ??0X509PublicKey@CryptoPP@@QAE@ABV01@@Z 429046cc f i asn.obj
 0001:00003729       ??4X509PublicKey@CryptoPP@@QAEAAV01@ABV01@@Z 42904729 f i asn.obj
 0001:0000373b       ??_DX509PublicKey@CryptoPP@@QAEXXZ 4290473b f i asn.obj
 0001:0000374d       ??_EX509PublicKey@CryptoPP@@UAEPAXI@Z 4290474d f i asn.obj
 0001:000037a0       ??4Exception@CryptoPP@@QAEAAV01@ABV01@@Z 429047a0 f i asn.obj
 0001:000037cf       ??0?$ASN1CryptoMaterial@VPublicKey@CryptoPP@@@CryptoPP@@QAE@ABV01@@Z 429047cf f i asn.obj
 0001:000037ea       ??0PKCS8PrivateKey@CryptoPP@@QAE@XZ 429047ea f i asn.obj
 0001:0000385a       ??0PKCS8PrivateKey@CryptoPP@@QAE@ABV01@@Z 4290485a f i asn.obj
 0001:000038d1       ??4PKCS8PrivateKey@CryptoPP@@QAEAAV01@ABV01@@Z 429048d1 f i asn.obj
 0001:000038f2       ??1PKCS8PrivateKey@CryptoPP@@UAE@XZ 429048f2 f i asn.obj
 0001:00003918       ??_DPKCS8PrivateKey@CryptoPP@@QAEXXZ 42904918 f i asn.obj
 0001:0000392a       ??_EPKCS8PrivateKey@CryptoPP@@UAEPAXI@Z 4290492a f i asn.obj
 0001:0000397d       ??0?$ASN1CryptoMaterial@VPrivateKey@CryptoPP@@@CryptoPP@@QAE@XZ 4290497d f i asn.obj
 0001:00003998       ??0?$ASN1CryptoMaterial@VPrivateKey@CryptoPP@@@CryptoPP@@QAE@ABV01@@Z 42904998 f i asn.obj
 0001:000039ed       ??0NotImplemented@CryptoPP@@QAE@ABV01@@Z 429049ed f i asn.obj
 0001:00003a05       ??4?$ASN1CryptoMaterial@VPrivateKey@CryptoPP@@@CryptoPP@@QAEAAV01@ABV01@@Z 42904a05 f i asn.obj
 0001:00003a26       ?DERLengthEncode@CryptoPP@@YAIAAVBufferedTransformation@1@_K@Z 42904a26 f   asn.obj
 0001:00003acb       ?BERLengthDecode@CryptoPP@@YA_NAAVBufferedTransformation@1@AA_KAA_N@Z 42904acb f   asn.obj
 0001:00003b79       ?BERDecodeError@CryptoPP@@YAXXZ 42904b79 f i asn.obj
 0001:00003b95       ?BERLengthDecode@CryptoPP@@YA_NAAVBufferedTransformation@1@AAI@Z 42904b95 f   asn.obj
 0001:00003be6       ?DEREncodeNull@CryptoPP@@YAXAAVBufferedTransformation@1@@Z 42904be6 f   asn.obj
 0001:00003c1b       ?BERDecodeNull@CryptoPP@@YAXAAVBufferedTransformation@1@@Z 42904c1b f   asn.obj
 0001:00003c5b       ?DEREncodeOctetString@CryptoPP@@YAIAAVBufferedTransformation@1@PBEI@Z 42904c5b f   asn.obj
 0001:00003ca3       ?DEREncodeOctetString@CryptoPP@@YAIAAVBufferedTransformation@1@ABV?$SecBlock@EV?$AllocatorWithCleanup@E$0A@@CryptoPP@@@1@@Z 42904ca3 f   asn.obj
 0001:00003cbc       ?BERDecodeOctetString@CryptoPP@@YAIAAVBufferedTransformation@1@AAV?$SecBlock@EV?$AllocatorWithCleanup@E$0A@@CryptoPP@@@1@@Z 42904cbc f   asn.obj
 0001:00003d20       ?BERDecodeOctetString@CryptoPP@@YAIAAVBufferedTransformation@1@0@Z 42904d20 f   asn.obj
 0001:00003d7e       ?DEREncodeTextString@CryptoPP@@YAIAAVBufferedTransformation@1@ABV?$basic_string@DU?$char_traits@D@std@@V?$allocator@D@2@@std@@E@Z 42904d7e f   asn.obj
 0001:00003dda       ?BERDecodeTextString@CryptoPP@@YAIAAVBufferedTransformation@1@AAV?$basic_string@DU?$char_traits@D@std@@V?$allocator@D@2@@std@@E@Z 42904dda f   asn.obj
 0001:00003e6e       ?DEREncodeBitString@CryptoPP@@YAIAAVBufferedTransformation@1@PBEII@Z 42904e6e f   asn.obj
 0001:00003ed2       ?BERDecodeBitString@CryptoPP@@YAIAAVBufferedTransformation@1@AAV?$SecBlock@EV?$AllocatorWithCleanup@E$0A@@CryptoPP@@@1@AAI@Z 42904ed2 f   asn.obj
 0001:00003f5c       ?DERReencode@CryptoPP@@YAXAAVBufferedTransformation@1@0@Z 42904f5c f   asn.obj
 0001:00004032       ?EncodeValue@OID@CryptoPP@@CAXAAVBufferedTransformation@2@I@Z 42905032 f   asn.obj
 0001:000040af       ?DecodeValue@OID@CryptoPP@@CAIAAVBufferedTransformation@2@AAI@Z 429050af f   asn.obj
 0001:000040fb       ?DEREncode@OID@CryptoPP@@QBEXAAVBufferedTransformation@2@@Z 429050fb f   asn.obj
 0001:000041d0       ?BERDecode@OID@CryptoPP@@QAEXAAVBufferedTransformation@2@@Z 429051d0 f   asn.obj
 0001:0000428e       ?Clone@Clonable@CryptoPP@@UBEPAV12@XZ 4290528e f i asn.obj
 0001:000042ea       ?BERDecodeAndCheck@OID@CryptoPP@@QBEXAAVBufferedTransformation@2@@Z 429052ea f   asn.obj
 0001:0000434f       ?AlgorithmName@Algorithm@CryptoPP@@UBE?AV?$basic_string@DU?$char_traits@D@std@@V?$allocator@D@2@@std@@XZ 4290534f f i asn.obj
 0001:00004387       ??0Walker@ByteQueue@CryptoPP@@QAE@ABV12@@Z 42905387 f i asn.obj
 0001:000043d6       ?MaxRetrievable@Walker@ByteQueue@CryptoPP@@UBE_KXZ 429053d6 f i asn.obj
 0001:000043e9       ??0BERGeneralDecoder@CryptoPP@@QAE@AAVBufferedTransformation@1@E@Z 429053e9 f   asn.obj
 0001:0000443f       ??0BERGeneralDecoder@CryptoPP@@QAE@AAV01@E@Z 4290543f f   asn.obj
 0001:00004495       ?Init@BERGeneralDecoder@CryptoPP@@AAEXE@Z 42905495 f   asn.obj
 0001:000044ed       ??1BERGeneralDecoder@CryptoPP@@UAE@XZ 429054ed f   asn.obj
 0001:00004537       ?EndReached@BERGeneralDecoder@CryptoPP@@QBE_NXZ 42905537 f   asn.obj
 0001:0000456f       ?PeekByte@BERGeneralDecoder@CryptoPP@@QBEEXZ 4290556f f   asn.obj
 0001:0000458a       ?CheckByte@BERGeneralDecoder@CryptoPP@@QAEXE@Z 4290558a f   asn.obj
 0001:000045ac       ?MessageEnd@BERGeneralDecoder@CryptoPP@@QAEXXZ 429055ac f   asn.obj
 0001:000045e6       ?TransferTo2@BERGeneralDecoder@CryptoPP@@UAEIAAVBufferedTransformation@2@AA_KABV?$basic_string@DU?$char_traits@D@std@@V?$allocator@D@2@@std@@_N@Z 429055e6 f   asn.obj
 0001:00004656       ?CopyRangeTo2@BERGeneralDecoder@CryptoPP@@UBEIAAVBufferedTransformation@2@AA_K_KABV?$basic_string@DU?$char_traits@D@std@@V?$allocator@D@2@@std@@_N@Z 42905656 f   asn.obj
 0001:000046a2       ?ReduceLength@BERGeneralDecoder@CryptoPP@@AAE_K_K@Z 429056a2 f   asn.obj
 0001:000046da       ??_EDERGeneralEncoder@CryptoPP@@UAEPAXI@Z 429056da f i asn.obj
 0001:00004725       ??0DERGeneralEncoder@CryptoPP@@QAE@AAVBufferedTransformation@1@E@Z 42905725 f   asn.obj
 0001:00004725       ??0DERGeneralEncoder@CryptoPP@@QAE@AAV01@E@Z 42905725 f   asn.obj
 0001:00004754       ??1DERGeneralEncoder@CryptoPP@@UAE@XZ 42905754 f   asn.obj
 0001:000047b0       ?MessageEnd@DERGeneralEncoder@CryptoPP@@QAEXXZ 429057b0 f   asn.obj
 0001:0000480f       ?BERDecode@X509PublicKey@CryptoPP@@UAEXAAVBufferedTransformation@2@@Z 4290580f f   asn.obj
 0001:0000494a       ?DEREncode@X509PublicKey@CryptoPP@@UBEXAAVBufferedTransformation@2@@Z 4290594a f   asn.obj
 0001:00004a55       ?BERDecode@PKCS8PrivateKey@CryptoPP@@UAEXAAVBufferedTransformation@2@@Z 42905a55 f   asn.obj
 0001:00004b91       ?DEREncode@PKCS8PrivateKey@CryptoPP@@UBEXAAVBufferedTransformation@2@@Z 42905b91 f   asn.obj
 0001:00004ca1       ?BERDecodeOptionalAttributes@PKCS8PrivateKey@CryptoPP@@UAEXAAVBufferedTransformation@2@@Z 42905ca1 f   asn.obj
 0001:00004cb3       ?DEREncodeOptionalAttributes@PKCS8PrivateKey@CryptoPP@@UBEXAAVBufferedTransformation@2@@Z 42905cb3 f   asn.obj
 0001:00004ce2       ?PutModifiable2@BufferedTransformation@CryptoPP@@UAEIPAEIH_N@Z 42905ce2 f i asn.obj
 0001:00004cfa       ??0BlockingInputOnly@BufferedTransformation@CryptoPP@@QAE@ABV?$basic_string@DU?$char_traits@D@std@@V?$allocator@D@2@@std@@@Z 42905cfa f i asn.obj
 0001:00004d5a       ?IsolatedMessageSeriesEnd@BufferedTransformation@CryptoPP@@UAE_N_N@Z 42905d5a f i asn.obj
 0001:00004d5f       ?InitializeDerived@FilterWithBufferedInput@CryptoPP@@MAEXABVNameValuePairs@2@@Z 42905d5f f i asn.obj
 0001:00004d5f       ?StoreInitialize@NullStore@CryptoPP@@UAEXABVNameValuePairs@2@@Z 42905d5f f i asn.obj
 0001:00004d5f       ?do_close@?$messages@G@std@@MBEXH@Z 42905d5f f i asn.obj
 0001:00004d5f       ?imbue@?$basic_streambuf@DU?$char_traits@D@std@@@std@@MAEXABVlocale@2@@Z 42905d5f f i asn.obj
 0001:00004d5f       ?IsolatedInitialize@?$CustomSignalPropagation@VSink@CryptoPP@@@CryptoPP@@EAEXABVNameValuePairs@2@@Z 42905d5f f i asn.obj
 0001:00004d5f       ?DEREncode@GF2NP@CryptoPP@@UBEXAAVBufferedTransformation@2@@Z 42905d5f f i asn.obj
 0001:00004d5f       ?IsolatedInitialize@BitBucket@CryptoPP@@UAEXABVNameValuePairs@2@@Z 42905d5f f i asn.obj
 0001:00004d5f       ?NextPutSingle@FilterWithBufferedInput@CryptoPP@@MAEXPBE@Z 42905d5f f i asn.obj
 0001:00004d5f       ?SetAutoSignalPropagation@BufferedTransformation@CryptoPP@@UAEXH@Z 42905d5f f i asn.obj
 0001:00004d5f       ?StoreInitialize@BERGeneralDecoder@CryptoPP@@EAEXABVNameValuePairs@2@@Z 42905d5f f i asn.obj
 0001:00004d5f       ?FirstPut@SimpleProxyFilter@CryptoPP@@UAEXPBE@Z 42905d5f f i asn.obj
 0001:00004d5f       ?imbue@?$basic_streambuf@GU?$char_traits@G@std@@@std@@MAEXABVlocale@2@@Z 42905d5f f i asn.obj
 0001:00004d5f       ?AssertValidKeyLength@SimpleKeyingInterface@CryptoPP@@IBEXI@Z 42905d5f f i asn.obj
 0001:00004d5f       ?do_close@?$messages@D@std@@MBEXH@Z 42905d5f f i asn.obj
 0001:00004d62       ?NumberOfMessagesInThisSeries@BufferedTransformation@CryptoPP@@UBEIXZ 42905d62 f i asn.obj
 0001:00004d67       ?sync@?$basic_streambuf@DU?$char_traits@D@std@@@std@@MAEHXZ 42905d67 f i asn.obj
 0001:00004d67       ?IVSize@?$SimpleKeyingInterfaceImpl@V?$TwoBases@VBlockCipher@CryptoPP@@URijndael_Info@2@@CryptoPP@@V12@@CryptoPP@@UBEIXZ 42905d67 f i asn.obj
 0001:00004d67       ?IVRequirement@GCM_Base@CryptoPP@@UBE?AW4IV_Requirement@SimpleKeyingInterface@2@XZ 42905d67 f i asn.obj
 0001:00004d67       ?do_encoding@?$codecvt@GDH@std@@MBEHXZ 42905d67 f i asn.obj
 0001:00004d67       ?FixedMaxPlaintextLength@PK_CryptoSystem@CryptoPP@@UBEIXZ 42905d67 f i asn.obj
 0001:00004d67       ?IVRequirement@CCM_Base@CryptoPP@@UBE?AW4IV_Requirement@SimpleKeyingInterface@2@XZ 42905d67 f i asn.obj
 0001:00004d67       ?IVSize@?$SimpleKeyingInterfaceImpl@VHMAC_Base@CryptoPP@@V?$HMAC@VSHA1@CryptoPP@@@2@@CryptoPP@@UBEIXZ 42905d67 f i asn.obj
 0001:00004d67       ?MinLastBlockSize@CBC_ModeBase@CryptoPP@@UBEIXZ 42905d67 f i asn.obj
 0001:00004d67       ?sync@?$basic_streambuf@GU?$char_traits@G@std@@@std@@MAEHXZ 42905d67 f i asn.obj
 0001:00004d67       ?IVSize@?$SimpleKeyingInterfaceImpl@V?$TwoBases@VBlockCipher@CryptoPP@@USKIPJACK_Info@2@@CryptoPP@@V12@@CryptoPP@@UBEIXZ 42905d67 f i asn.obj
 0001:00004d67       ?MinKeyLength@?$SimpleKeyingInterfaceImpl@VHMAC_Base@CryptoPP@@V?$HMAC@VSHA1@CryptoPP@@@2@@CryptoPP@@UBEIXZ 42905d67 f i asn.obj
 0001:00004d67       ?showmanyc@?$basic_streambuf@DU?$char_traits@D@std@@@std@@MAEHXZ 42905d67 f i asn.obj
 0001:00004d67       ?GetOptimalBlockSizeUsed@StreamTransformation@CryptoPP@@UBEIXZ 42905d67 f i asn.obj
 0001:00004d67       ?NumberOfMessageSeries@BufferedTransformation@CryptoPP@@UBEIXZ 42905d67 f i asn.obj
 0001:00004d67       ?MinLastBlockSize@StreamTransformation@CryptoPP@@UBEIXZ 42905d67 f i asn.obj
 0001:00004d67       ?FixedCiphertextLength@PK_CryptoSystem@CryptoPP@@UBEIXZ 42905d67 f i asn.obj
 0001:00004d67       ?GetAutoSignalPropagation@BufferedTransformation@CryptoPP@@UBEHXZ 42905d67 f i asn.obj
 0001:00004d67       ?showmanyc@?$basic_streambuf@GU?$char_traits@G@std@@@std@@MAEHXZ 42905d67 f i asn.obj
 0001:00004d67       ?BlockSize@HashTransformation@CryptoPP@@UBEIXZ 42905d67 f i asn.obj
 0001:00004d67       ?IVSize@?$SimpleKeyingInterfaceImpl@V?$TwoBases@VBlockCipher@CryptoPP@@UDES_EDE3_Info@2@@CryptoPP@@V12@@CryptoPP@@UBEIXZ 42905d67 f i asn.obj
 0001:00004d67       ?IVRequirement@OFB_ModePolicy@CryptoPP@@UBE?AW4IV_Requirement@SimpleKeyingInterface@2@XZ 42905d67 f i asn.obj
 0001:00004d67       ?AttachedTransformation@BufferedTransformation@CryptoPP@@UAEPAV12@XZ 42905d67 f i asn.obj
 0001:00004d6a       ?AttachedTransformation@BufferedTransformation@CryptoPP@@UBEPBV12@XZ 42905d6a f i asn.obj
 0001:00004d72       ?Detach@BufferedTransformation@CryptoPP@@UAEXPAV12@@Z 42905d72 f i asn.obj
 0001:00004dce       ??0?$vector@IV?$allocator@I@std@@@std@@QAE@IABIABV?$allocator@I@1@@Z 42905dce f i asn.obj
 0001:00004e1e       ??0?$vector@IV?$allocator@I@std@@@std@@QAE@ABV01@@Z 42905e1e f i asn.obj
 0001:00004e77       ??1?$vector@GV?$allocator@G@std@@@std@@QAE@XZ 42905e77 f i asn.obj
 0001:00004e77       ??1?$vector@IV?$allocator@I@std@@@std@@QAE@XZ 42905e77 f i asn.obj
 0001:00004e77       ??1?$vector@_NV?$allocator@_N@std@@@std@@QAE@XZ 42905e77 f i asn.obj
 0001:00004e97       ?ThrowIfInvalid@CryptoMaterial@CryptoPP@@UBEXAAVRandomNumberGenerator@2@I@Z 42905e97 f i asn.obj
 0001:00004f10       ??0InvalidDataFormat@CryptoPP@@QAE@ABV01@@Z 42905f10 f i asn.obj
 0001:00004f28       ??4?$vector@IV?$allocator@I@std@@@std@@QAEAAV01@ABV01@@Z 42905f28 f i asn.obj
 0001:00005055       ?Precompute@CryptoMaterial@CryptoPP@@UAEXI@Z 42906055 f i asn.obj
 0001:000050b1       ?LoadPrecomputation@CryptoMaterial@CryptoPP@@UAEXAAVBufferedTransformation@2@@Z 429060b1 f i asn.obj
 0001:0000510d       ?SavePrecomputation@CryptoMaterial@CryptoPP@@UBEXAAVBufferedTransformation@2@@Z 4290610d f i asn.obj
 0001:00005169       ??0InvalidMaterial@CryptoMaterial@CryptoPP@@QAE@ABV012@@Z 42906169 f i asn.obj
 0001:00005181       ?resize@?$vector@IV?$allocator@I@std@@@std@@QAEXIABI@Z 42906181 f i asn.obj
 0001:000051e0       ?push_back@?$vector@IV?$allocator@I@std@@@std@@QAEXABI@Z 429061e0 f i asn.obj
 0001:000051f1       ?erase@?$vector@IV?$allocator@I@std@@@std@@QAEPAIPAI0@Z 429061f1 f i asn.obj
 0001:00005223       ?_Eq@?$vector@IV?$allocator@I@std@@@std@@QBE_NABV12@@Z 42906223 f i asn.obj
 0001:0000527c       ?GenerateRandom@GeneratableCryptoMaterial@CryptoPP@@UAEXAAVRandomNumberGenerator@2@ABVNameValuePairs@2@@Z 4290627c f i asn.obj
 0001:000052d8       ?ChannelPut2@?$InputRejecting@VBufferedTransformation@CryptoPP@@@CryptoPP@@UAEIABV?$basic_string@DU?$char_traits@D@std@@V?$allocator@D@2@@std@@PBEIH_N@Z 429062d8 f i asn.obj
 0001:000052d8       ?IsolatedMessageSeriesEnd@?$InputRejecting@VBufferedTransformation@CryptoPP@@@CryptoPP@@UAE_N_N@Z 429062d8 f i asn.obj
 0001:000052d8       ?ChannelMessageSeriesEnd@?$InputRejecting@VBufferedTransformation@CryptoPP@@@CryptoPP@@UAE_NABV?$basic_string@DU?$char_traits@D@std@@V?$allocator@D@2@@std@@H_N@Z 429062d8 f i asn.obj
 0001:000052d8       ?Put2@?$InputRejecting@VBufferedTransformation@CryptoPP@@@CryptoPP@@UAEIPBEIH_N@Z 429062d8 f i asn.obj
 0001:000052f4       ??0?$SecBlock@EV?$AllocatorWithCleanup@E$00@CryptoPP@@@CryptoPP@@QAE@I@Z 429062f4 f i asn.obj
 0001:000052f4       ??0?$SecBlock@EV?$AllocatorWithCleanup@E$0A@@CryptoPP@@@CryptoPP@@QAE@I@Z 429062f4 f i asn.obj
 0001:0000531f       ??0PrivateKey@CryptoPP@@QAE@ABV01@@Z 4290631f f i asn.obj
 0001:0000533a       ?resize@?$SecBlock@EV?$AllocatorWithCleanup@E$00@CryptoPP@@@CryptoPP@@QAEXI@Z 4290633a f i asn.obj
 0001:0000533a       ?resize@?$SecBlock@EV?$AllocatorWithCleanup@E$0A@@CryptoPP@@@CryptoPP@@QAEXI@Z 4290633a f i asn.obj
 0001:00005361       ??0?$deque@UMessageRange@MeterFilter@CryptoPP@@V?$allocator@UMessageRange@MeterFilter@CryptoPP@@@std@@@std@@QAE@ABV?$allocator@UMessageRange@MeterFilter@CryptoPP@@@1@@Z 42906361 f i asn.obj
 0001:00005391       ??1?$deque@UMessageRange@MeterFilter@CryptoPP@@V?$allocator@UMessageRange@MeterFilter@CryptoPP@@@std@@@std@@QAE@XZ 42906391 f i asn.obj
 0001:000053a5       ?IsolatedFlush@?$Bufferless@VBufferedTransformation@CryptoPP@@@CryptoPP@@UAE_N_N0@Z 429063a5 f i asn.obj
 0001:000053a5       ?IsolatedFlush@MessageQueue@CryptoPP@@UAE_N_N0@Z 429063a5 f i asn.obj
 0001:000053a5       ?IsolatedFlush@?$InputRejecting@VBufferedTransformation@CryptoPP@@@CryptoPP@@UAE_N_N0@Z 429063a5 f i asn.obj
 0001:000053a5       ?IsolatedFlush@?$CustomFlushPropagation@VSink@CryptoPP@@@CryptoPP@@EAE_N_N0@Z 429063a5 f i asn.obj
 0001:000053a5       ?IsolatedFlush@?$Bufferless@VSink@CryptoPP@@@CryptoPP@@UAE_N_N0@Z 429063a5 f i asn.obj
 0001:000053a5       ?IsolatedFlush@?$Unflushable@V?$Multichannel@VFilter@CryptoPP@@@CryptoPP@@@CryptoPP@@UAE_N_N0@Z 429063a5 f i asn.obj
 0001:000053a5       ?IsolatedFlush@?$Unflushable@VFilter@CryptoPP@@@CryptoPP@@UAE_N_N0@Z 429063a5 f i asn.obj
 0001:000053a5       ?IsolatedFlush@?$Bufferless@VFilter@CryptoPP@@@CryptoPP@@UAE_N_N0@Z 429063a5 f i asn.obj
 0001:000053a5       ?IsolatedFlush@?$InputRejecting@VFilter@CryptoPP@@@CryptoPP@@UAE_N_N0@Z 429063a5 f i asn.obj
 0001:000053aa       ?ChannelFlush@?$Unflushable@VFilter@CryptoPP@@@CryptoPP@@UAE_NABV?$basic_string@DU?$char_traits@D@std@@V?$allocator@D@2@@std@@_NH1@Z 429063aa f i asn.obj
 0001:00005456       ??0CannotFlush@CryptoPP@@QAE@ABV01@@Z 42906456 f i asn.obj
 0001:0000546e       ?IsolatedInitialize@?$StringSinkTemplate@V?$basic_string@DU?$char_traits@D@std@@V?$allocator@D@2@@std@@@CryptoPP@@UAEXABVNameValuePairs@2@@Z 4290646e f i asn.obj
 0001:000054f4       ?Put2@?$StringSinkTemplate@V?$basic_string@DU?$char_traits@D@std@@V?$allocator@D@2@@std@@@CryptoPP@@UAEIPBEIH_N@Z 429064f4 f i asn.obj
 0001:00005539       ?Put2@?$InputRejecting@VFilter@CryptoPP@@@CryptoPP@@UAEIPBEIH_N@Z 42906539 f i asn.obj
 0001:00005539       ?IsolatedMessageSeriesEnd@?$InputRejecting@VFilter@CryptoPP@@@CryptoPP@@UAE_N_N@Z 42906539 f i asn.obj
 0001:00005539       ?ChannelPut2@?$InputRejecting@VFilter@CryptoPP@@@CryptoPP@@UAEIABV?$basic_string@DU?$char_traits@D@std@@V?$allocator@D@2@@std@@PBEIH_N@Z 42906539 f i asn.obj
 0001:00005539       ?ChannelMessageSeriesEnd@?$InputRejecting@VFilter@CryptoPP@@@CryptoPP@@UAE_NABV?$basic_string@DU?$char_traits@D@std@@V?$allocator@D@2@@std@@H_N@Z 42906539 f i asn.obj
 0001:00005555       ??0?$SourceTemplate@VStringStore@CryptoPP@@@CryptoPP@@QAE@PAVBufferedTransformation@1@@Z 42906555 f i asn.obj
 0001:000055aa       ??0StringStore@CryptoPP@@QAE@PBD@Z 429065aa f i asn.obj
 0001:00005636       ??_GNullNameValuePairs@CryptoPP@@UAEPAXI@Z 42906636 f i asn.obj
 0001:00005636       ??_GClassNullRNG@CryptoPP@@UAEPAXI@Z 42906636 f i asn.obj
 0001:00005636       ??_EStringStore@CryptoPP@@UAEPAXI@Z 42906636 f i asn.obj
 0001:00005636       ??_GMultiplicativeGroupT@?$AbstractRing@VInteger@CryptoPP@@@CryptoPP@@UAEPAXI@Z 42906636 f i asn.obj
 0001:00005636       ??_EWalker@ByteQueue@CryptoPP@@UAEPAXI@Z 42906636 f i asn.obj
 0001:00005636       ??_G?$PSSR_MEM@$0A@VP1363_MGF1@CryptoPP@@$0?0$0A@$0A@@CryptoPP@@UAEPAXI@Z 42906636 f i asn.obj
 0001:00005636       ??_GStringStore@CryptoPP@@UAEPAXI@Z 42906636 f i asn.obj
 0001:00005636       ??_ENullNameValuePairs@CryptoPP@@UAEPAXI@Z 42906636 f i asn.obj
 0001:00005636       ??_E?$PSSR_MEM@$0A@VP1363_MGF1@CryptoPP@@$0?0$0A@$0A@@CryptoPP@@UAEPAXI@Z 42906636 f i asn.obj
 0001:00005636       ??_EClassNullRNG@CryptoPP@@UAEPAXI@Z 42906636 f i asn.obj
 0001:00005636       ??_EMultiplicativeGroupT@?$AbstractRing@VInteger@CryptoPP@@@CryptoPP@@UAEPAXI@Z 42906636 f i asn.obj
 0001:00005636       ??_GWalker@ByteQueue@CryptoPP@@UAEPAXI@Z 42906636 f i asn.obj
 0001:00005652       ?SourceExhausted@?$SourceTemplate@VFileStore@CryptoPP@@@CryptoPP@@UBE_NXZ 42906652 f i asn.obj
 0001:00005652       ?SourceExhausted@?$SourceTemplate@VRandomNumberStore@CryptoPP@@@CryptoPP@@UBE_NXZ 42906652 f i asn.obj
 0001:00005652       ?SourceExhausted@?$SourceTemplate@VStringStore@CryptoPP@@@CryptoPP@@UBE_NXZ 42906652 f i asn.obj
 0001:00005676       ?SetAutoSignalPropagation@?$SourceTemplate@VFileStore@CryptoPP@@@CryptoPP@@UAEXH@Z 42906676 f i asn.obj
 0001:00005676       ?SetAutoSignalPropagation@?$SourceTemplate@VRandomNumberStore@CryptoPP@@@CryptoPP@@UAEXH@Z 42906676 f i asn.obj
 0001:00005676       ?SetAutoSignalPropagation@?$SourceTemplate@VStringStore@CryptoPP@@@CryptoPP@@UAEXH@Z 42906676 f i asn.obj
 0001:00005686       ?GetAutoSignalPropagation@?$SourceTemplate@VStringStore@CryptoPP@@@CryptoPP@@UBEHXZ 42906686 f i asn.obj
 0001:00005686       ?GetAutoSignalPropagation@?$SourceTemplate@VRandomNumberStore@CryptoPP@@@CryptoPP@@UBEHXZ 42906686 f i asn.obj
 0001:00005686       ?GetAutoSignalPropagation@?$SourceTemplate@VFileStore@CryptoPP@@@CryptoPP@@UBEHXZ 42906686 f i asn.obj
 0001:0000568f       ??0?$SourceTemplate@VRandomNumberStore@CryptoPP@@@CryptoPP@@QAE@PAVBufferedTransformation@1@@Z 4290668f f i asn.obj
 0001:000056e2       ?IsolatedInitialize@?$SourceTemplate@VRandomNumberStore@CryptoPP@@@CryptoPP@@UAEXABVNameValuePairs@2@@Z 429066e2 f i asn.obj
 0001:000056e2       ?IsolatedInitialize@?$SourceTemplate@VStringStore@CryptoPP@@@CryptoPP@@UAEXABVNameValuePairs@2@@Z 429066e2 f i asn.obj
 0001:000056e2       ?IsolatedInitialize@?$SourceTemplate@VFileStore@CryptoPP@@@CryptoPP@@UAEXABVNameValuePairs@2@@Z 429066e2 f i asn.obj
 0001:000056f2       ?Pump2@?$SourceTemplate@VRandomNumberStore@CryptoPP@@@CryptoPP@@UAEIAA_K_N@Z 429066f2 f i asn.obj
 0001:000056f2       ?Pump2@?$SourceTemplate@VFileStore@CryptoPP@@@CryptoPP@@UAEIAA_K_N@Z 429066f2 f i asn.obj
 0001:000056f2       ?Pump2@?$SourceTemplate@VStringStore@CryptoPP@@@CryptoPP@@UAEIAA_K_N@Z 429066f2 f i asn.obj
 0001:0000571a       ?PumpMessages2@?$SourceTemplate@VRandomNumberStore@CryptoPP@@@CryptoPP@@UAEIAAI_N@Z 4290671a f i asn.obj
 0001:0000571a       ?PumpMessages2@?$SourceTemplate@VStringStore@CryptoPP@@@CryptoPP@@UAEIAAI_N@Z 4290671a f i asn.obj
 0001:0000571a       ?PumpMessages2@?$SourceTemplate@VFileStore@CryptoPP@@@CryptoPP@@UAEIAAI_N@Z 4290671a f i asn.obj
 0001:0000573f       ?Save@?$ASN1CryptoMaterial@VPublicKey@CryptoPP@@@CryptoPP@@UBEXAAVBufferedTransformation@2@@Z 4290673f f i asn.obj
 0001:0000574f       ?Load@?$ASN1CryptoMaterial@VPublicKey@CryptoPP@@@CryptoPP@@UAEXAAVBufferedTransformation@2@@Z 4290674f f i asn.obj
 0001:0000575f       ??0InputRejected@?$InputRejecting@VBufferedTransformation@CryptoPP@@@CryptoPP@@QAE@ABU012@@Z 4290675f f i asn.obj
 0001:00005777       ??0InputRejected@?$InputRejecting@VFilter@CryptoPP@@@CryptoPP@@QAE@ABU012@@Z 42906777 f i asn.obj
 0001:0000578f       ??_G?$SourceTemplate@VStringStore@CryptoPP@@@CryptoPP@@UAEPAXI@Z 4290678f f i asn.obj
 0001:0000578f       ??_E?$SourceTemplate@VStringStore@CryptoPP@@@CryptoPP@@UAEPAXI@Z 4290678f f i asn.obj
 0001:000057ab       ??_E?$SourceTemplate@VRandomNumberStore@CryptoPP@@@CryptoPP@@UAEPAXI@Z 429067ab f i asn.obj
 0001:000057ab       ??_G?$SourceTemplate@VRandomNumberStore@CryptoPP@@@CryptoPP@@UAEPAXI@Z 429067ab f i asn.obj
 0001:000057c7       ?append@?$basic_string@DU?$char_traits@D@std@@V?$allocator@D@2@@std@@QAEAAV12@PBD0@Z 429067c7 f i asn.obj
 0001:0000580a       ?_Freeze@?$basic_string@DU?$char_traits@D@std@@V?$allocator@D@2@@std@@AAEXXZ 4290680a f i asn.obj
 0001:00005836       ??0BERDecodeErr@CryptoPP@@QAE@XZ 42906836 f i asn.obj
 0001:000058a4       ??0BERDecodeErr@CryptoPP@@QAE@ABV01@@Z 429068a4 f i asn.obj
 0001:000058bc       ?insert@?$vector@IV?$allocator@I@std@@@std@@QAEXPAIIABI@Z 429068bc f i asn.obj
 0001:00005a8c       ?BEREncode@ASN1Object@CryptoPP@@UBEXAAVBufferedTransformation@2@@Z 42906a8c f i asn.obj
 0001:00005a98       ??0InputRejected@?$InputRejecting@VBufferedTransformation@CryptoPP@@@CryptoPP@@QAE@XZ 42906a98 f i asn.obj
 0001:00005b06       ?pop_front@?$deque@UMessageRange@MeterFilter@CryptoPP@@V?$allocator@UMessageRange@MeterFilter@CryptoPP@@@std@@@std@@QAEXXZ 42906b06 f i asn.obj
 0001:00005b1d       ??0InputRejected@?$InputRejecting@VFilter@CryptoPP@@@CryptoPP@@QAE@XZ 42906b1d f i asn.obj
 0001:00005b8b       ?replace@?$basic_string@DU?$char_traits@D@std@@V?$allocator@D@2@@std@@QAEAAV12@PAD0PBD1@Z 42906b8b f i asn.obj
 0001:00005beb       ?_Freefront@?$deque@UMessageRange@MeterFilter@CryptoPP@@V?$allocator@UMessageRange@MeterFilter@CryptoPP@@@std@@@std@@IAEXXZ 42906beb f i asn.obj
 0001:00005c61       ?replace@?$basic_string@DU?$char_traits@D@std@@V?$allocator@D@2@@std@@QAEAAV12@IIID@Z 42906c61 f i asn.obj
 0001:00005d2f       ?IsolatedInitialize@Store@CryptoPP@@UAEXABVNameValuePairs@2@@Z 42906d2f f i asn.obj
 0001:00005d42       ?NumberOfMessages@Store@CryptoPP@@UBEIXZ 42906d42 f i asn.obj
 0001:00005d4b       ??4Store@CryptoPP@@QAEAAV01@ABV01@@Z 42906d4b f i asn.obj
 0001:00005d80       ?TransferTo2@Sink@CryptoPP@@UAEIAAVBufferedTransformation@2@AA_KABV?$basic_string@DU?$char_traits@D@std@@V?$allocator@D@2@@std@@_N@Z 42906d80 f i asn.obj
 0001:00005d90       ?CopyRangeTo2@Sink@CryptoPP@@UBEIAAVBufferedTransformation@2@AA_K_KABV?$basic_string@DU?$char_traits@D@std@@V?$allocator@D@2@@std@@_N@Z 42906d90 f i asn.obj
 0001:00005d95       ?MakeParameters@CryptoPP@@YA?AVAlgorithmParameters@1@PBDABVConstByteArrayParameter@1@_N@Z 42906d95 f i asn.obj
 0001:00005df0       ??0ConstByteArrayParameter@CryptoPP@@QAE@ABV?$basic_string@DU?$char_traits@D@std@@V?$allocator@D@2@@std@@_N@Z 42906df0 f i asn.obj
 0001:00005e3e       ?MakeParameters@CryptoPP@@YA?AVAlgorithmParameters@1@PBDABQAVRandomNumberGenerator@1@_N@Z 42906e3e f i asn.obj
 0001:00005e99       ??RAlgorithmParameters@CryptoPP@@QAEAAV01@PBDABH@Z 42906e99 f i asn.obj
 0001:00005ead       ?BytePrecision@CryptoPP@@YAIAB_K@Z 42906ead f i asn.obj
 0001:00005f00       ?BitPrecision@CryptoPP@@YAIABI@Z 42906f00 f i asn.obj
 0001:00005f34       ?RoundUpToMultipleOf@CryptoPP@@YAIABI0@Z 42906f34 f i asn.obj
 0001:00005fc9       ?BERDecodeUnsigned@CryptoPP@@YAXAAVBufferedTransformation@1@AAIEII@Z 42906fc9 f i asn.obj
 0001:00006097       ?DEREncodeUnsigned@CryptoPP@@YAIAAVBufferedTransformation@1@IE@Z 42907097 f i asn.obj
 0001:00006138       ??RAlgorithmParameters@CryptoPP@@QAEAAV01@PBDABVConstByteArrayParameter@1@_N@Z 42907138 f i asn.obj
 0001:000061ee       ??RAlgorithmParameters@CryptoPP@@QAEAAV01@PBDABQAVRandomNumberGenerator@1@_N@Z 429071ee f i asn.obj
 0001:00006290       ??RAlgorithmParameters@CryptoPP@@QAEAAV01@PBDABH_N@Z 42907290 f i asn.obj
 0001:0000634e       ??0?$AlgorithmParametersTemplate@H@CryptoPP@@QAE@PBDABH_N@Z 4290734e f i asn.obj
 0001:0000637e       ??0?$AlgorithmParametersTemplate@VConstByteArrayParameter@CryptoPP@@@CryptoPP@@QAE@PBDABVConstByteArrayParameter@1@_N@Z 4290737e f i asn.obj
 0001:000063ce       ?AssignValue@?$AlgorithmParametersTemplate@PAVRandomNumberGenerator@CryptoPP@@@CryptoPP@@UBEXPBDABVtype_info@@PAX@Z 429073ce f i asn.obj
 0001:00006427       ?MoveInto@?$AlgorithmParametersTemplate@PAVRandomNumberGenerator@CryptoPP@@@CryptoPP@@UBEXPAX@Z 42907427 f i asn.obj
 0001:00006468       ??_ERedirector@CryptoPP@@W3AEPAXI@Z 42907468 f i asn.obj
 0001:00006468       ??_EOutputProxy@CryptoPP@@W3AEPAXI@Z 42907468 f i asn.obj
 0001:00006470       ??_EFilterWithInputQueue@CryptoPP@@W3AEPAXI@Z 42907470 f i asn.obj
 0001:00006478       ??_EArraySink@CryptoPP@@W3AEPAXI@Z 42907478 f i asn.obj
 0001:00006478       ??_ENullStore@CryptoPP@@W3AEPAXI@Z 42907478 f i asn.obj
 0001:00006478       ??_EArrayXorSink@CryptoPP@@W3AEPAXI@Z 42907478 f i asn.obj
 0001:00006480       ??_EX509PublicKey@CryptoPP@@W7AEPAXI@Z 42907480 f i asn.obj
 0001:00006488       ??_EMeterFilter@CryptoPP@@W3AEPAXI@Z 42907488 f i asn.obj
 0001:00006490       ??_EDERGeneralEncoder@CryptoPP@@W3AEPAXI@Z 42907490 f i asn.obj
 0001:00006498       ??_EPKCS8PrivateKey@CryptoPP@@WDE@AEPAXI@Z 42907498 f i asn.obj
 0001:000064a0       ?Save@?$ASN1CryptoMaterial@VPrivateKey@CryptoPP@@@CryptoPP@@WCI@BEXAAVBufferedTransformation@2@@Z 429074a0 f i asn.obj
 0001:000064a8       ?Save@?$ASN1CryptoMaterial@VPrivateKey@CryptoPP@@@CryptoPP@@UBEXAAVBufferedTransformation@2@@Z 429074a8 f i asn.obj
 0001:000064b8       ?Load@?$ASN1CryptoMaterial@VPrivateKey@CryptoPP@@@CryptoPP@@WCI@AEXAAVBufferedTransformation@2@@Z 429074b8 f i asn.obj
 0001:000064c0       ?Load@?$ASN1CryptoMaterial@VPrivateKey@CryptoPP@@@CryptoPP@@UAEXAAVBufferedTransformation@2@@Z 429074c0 f i asn.obj
 0001:000064d0       ??_E?$StringSinkTemplate@V?$basic_string@DU?$char_traits@D@std@@V?$allocator@D@2@@std@@@CryptoPP@@W3AEPAXI@Z 429074d0 f i asn.obj
 0001:000064d8       ??_ESignerFilter@CryptoPP@@W3AEPAXI@Z 429074d8 f i asn.obj
 0001:000064e0       ??_EBERSequenceDecoder@CryptoPP@@W3AEPAXI@Z 429074e0 f i asn.obj
 0001:000064e0       ??_EBERSetDecoder@CryptoPP@@W3AEPAXI@Z 429074e0 f i asn.obj
 0001:000064e8       ??_EPK_EncryptorFilter@CryptoPP@@W3AEPAXI@Z 429074e8 f i asn.obj
 0001:000064e8       ??_EPK_DecryptorFilter@CryptoPP@@W3AEPAXI@Z 429074e8 f i asn.obj
 0001:000064e8       ??_ESimpleProxyFilter@CryptoPP@@W3AEPAXI@Z 429074e8 f i asn.obj
 0001:000064f0       ??_EStringSource@CryptoPP@@W3AEPAXI@Z 429074f0 f i asn.obj
 0001:000064f8       ??_E?$SourceTemplate@VStringStore@CryptoPP@@@CryptoPP@@W3AEPAXI@Z 429074f8 f i asn.obj
 0001:00006500       ??_ETransparentFilter@CryptoPP@@W3AEPAXI@Z 42907500 f i asn.obj
 0001:00006500       ??_EOpaqueFilter@CryptoPP@@W3AEPAXI@Z 42907500 f i asn.obj
 0001:00006508       ??_EDERSequenceEncoder@CryptoPP@@W3AEPAXI@Z 42907508 f i asn.obj
 0001:00006508       ??_EDERSetEncoder@CryptoPP@@W3AEPAXI@Z 42907508 f i asn.obj
 0001:00006510       ??_ERandomNumberSource@CryptoPP@@W3AEPAXI@Z 42907510 f i asn.obj
 0001:00006518       ??_EStringStore@CryptoPP@@W3AEPAXI@Z 42907518 f i asn.obj
 0001:00006518       ??_EWalker@ByteQueue@CryptoPP@@W3AEPAXI@Z 42907518 f i asn.obj
 0001:00006520       ??_E?$SourceTemplate@VRandomNumberStore@CryptoPP@@@CryptoPP@@W3AEPAXI@Z 42907520 f i asn.obj
 0001:00006528       ??_EBERGeneralDecoder@CryptoPP@@W3AEPAXI@Z 42907528 f i asn.obj
 0001:00006530       ??_ERandomNumberStore@CryptoPP@@W3AEPAXI@Z 42907530 f i asn.obj
 0001:00006538       ??0AuthenticatedSymmetricCipherBase@CryptoPP@@QAE@XZ 42907538 f i authenc.obj
 0001:0000656e       ?ProcessSemisignature@PK_SignatureMessageEncodingMethod@CryptoPP@@UBEXAAVHashTransformation@2@PBEI@Z 4290756e f i authenc.obj
 0001:0000656e       ?UncheckedSetKey@AuthenticatedSymmetricCipherBase@CryptoPP@@UAEXPBEIABVNameValuePairs@2@@Z 4290756e f i authenc.obj
 0001:00006571       ?Restart@AuthenticatedSymmetricCipherBase@CryptoPP@@UAEXXZ 42907571 f i authenc.obj
 0001:0000657d       ?GetSymmetricCipher@AuthenticatedSymmetricCipherBase@CryptoPP@@IBEABVSymmetricCipher@2@XZ 4290757d f i authenc.obj
 0001:00006582       ??0AuthenticatedSymmetricCipherBase@CryptoPP@@QAE@ABV01@@Z 42907582 f i authenc.obj
 0001:000065e7       ??4AuthenticatedSymmetricCipherBase@CryptoPP@@QAEAAV01@ABV01@@Z 429075e7 f i authenc.obj
 0001:00006630       ??1AuthenticatedSymmetricCipherBase@CryptoPP@@UAE@XZ 42907630 f i authenc.obj
 0001:00006656       ?AuthenticateData@AuthenticatedSymmetricCipherBase@CryptoPP@@IAEXPBEI@Z 42907656 f   authenc.obj
 0001:000066f1       ?SetKey@AuthenticatedSymmetricCipherBase@CryptoPP@@UAEXPBEIABVNameValuePairs@2@@Z 429076f1 f   authenc.obj
 0001:00006736       ?Resynchronize@AuthenticatedSymmetricCipherBase@CryptoPP@@UAEXPBEH@Z 42907736 f   authenc.obj
 0001:000067c7       ??0BadState@AuthenticatedSymmetricCipher@CryptoPP@@QAE@ABV012@@Z 429077c7 f i authenc.obj
 0001:000067df       ?Update@AuthenticatedSymmetricCipherBase@CryptoPP@@UAEXPBEI@Z 429077df f   authenc.obj
 0001:00006892       ?ProcessData@AuthenticatedSymmetricCipherBase@CryptoPP@@UAEXPAEPBEI@Z 42907892 f   authenc.obj
 0001:00006a51       ?TruncatedFinal@AuthenticatedSymmetricCipherBase@CryptoPP@@UAEXPAEI@Z 42907a51 f   authenc.obj
 0001:00006cf7       ??0?$basic_string@DU?$char_traits@D@std@@V?$allocator@D@2@@std@@QAE@ABV01@@Z 42907cf7 f i authenc.obj
 0001:00006d21       ??0?$SecBlock@EV?$AllocatorWithCleanup@E$00@CryptoPP@@@CryptoPP@@QAE@ABV01@@Z 42907d21 f i authenc.obj
 0001:00006d21       ??0?$SecBlock@EV?$AllocatorWithCleanup@E$0A@@CryptoPP@@@CryptoPP@@QAE@ABV01@@Z 42907d21 f i authenc.obj
 0001:00006d62       ?Assign@?$SecBlock@EV?$AllocatorWithCleanup@E$0A@@CryptoPP@@@CryptoPP@@QAEXABV12@@Z 42907d62 f i authenc.obj
 0001:00006d62       ?Assign@?$SecBlock@EV?$AllocatorWithCleanup@E$00@CryptoPP@@@CryptoPP@@QAEXABV12@@Z 42907d62 f i authenc.obj
 0001:00006d8e       ??Hstd@@YA?AV?$basic_string@DU?$char_traits@D@std@@V?$allocator@D@2@@0@ABV10@0@Z 42907d8e f i authenc.obj
 0001:00006e10       ?IntToString@CryptoPP@@YA?AV?$basic_string@DU?$char_traits@D@std@@V?$allocator@D@2@@std@@_KI@Z 42907e10 f i authenc.obj
 0001:00006f29       ?StandardReallocate@CryptoPP@@YAPAEAAV?$AllocatorWithCleanup@E$0A@@1@PAEII_N@Z 42907f29 f i authenc.obj
 0001:00006f29       ?StandardReallocate@CryptoPP@@YAPAEAAV?$AllocatorWithCleanup@E$00@1@PAEII_N@Z 42907f29 f i authenc.obj
 0001:00006fb8       ??Hstd@@YA?AV?$basic_string@DU?$char_traits@D@std@@V?$allocator@D@2@@0@DABV10@@Z 42907fb8 f i authenc.obj
 0001:00007035       ?assign@?$basic_string@DU?$char_traits@D@std@@V?$allocator@D@2@@std@@QAEAAV12@ID@Z 42908035 f i authenc.obj
 0001:00007097       ??0BadState@AuthenticatedSymmetricCipher@CryptoPP@@QAE@ABV?$basic_string@DU?$char_traits@D@std@@V?$allocator@D@2@@std@@PBD@Z 42908097 f i authenc.obj
 0001:00007105       ??0BadState@AuthenticatedSymmetricCipher@CryptoPP@@QAE@ABV?$basic_string@DU?$char_traits@D@std@@V?$allocator@D@2@@std@@PBD1@Z 42908105 f i authenc.obj
 0001:000071ab       ??0AuthenticatedSymmetricCipher@CryptoPP@@QAE@XZ 429081ab f i authenc.obj
 0001:000071ea       ??0BaseN_Encoder@CryptoPP@@QAE@PAVBufferedTransformation@1@@Z 429081ea f i basecode.obj
 0001:0000723c       ??0BaseN_Encoder@CryptoPP@@QAE@PBEHPAVBufferedTransformation@1@H@Z 4290823c f i basecode.obj
 0001:0000730a       ??1BaseN_Encoder@CryptoPP@@UAE@XZ 4290830a f i basecode.obj
 0001:00007343       ??_FBaseN_Encoder@CryptoPP@@QAEXXZ 42908343 f i basecode.obj
 0001:0000734b       ??_EBaseN_Encoder@CryptoPP@@UAEPAXI@Z 4290834b f i basecode.obj
 0001:00007396       ??0BaseN_Decoder@CryptoPP@@QAE@PAVBufferedTransformation@1@@Z 42908396 f i basecode.obj
 0001:000073e8       ??0BaseN_Decoder@CryptoPP@@QAE@PBHHPAVBufferedTransformation@1@@Z 429083e8 f i basecode.obj
 0001:0000747f       ??1BaseN_Decoder@CryptoPP@@UAE@XZ 4290847f f i basecode.obj
 0001:000074b8       ??_FBaseN_Decoder@CryptoPP@@QAEXXZ 429084b8 f i basecode.obj
 0001:000074c0       ??_EBaseN_Decoder@CryptoPP@@UAEPAXI@Z 429084c0 f i basecode.obj
 0001:0000750b       ??0Grouper@CryptoPP@@QAE@PAVBufferedTransformation@1@@Z 4290850b f i basecode.obj
 0001:0000756b       ??0Grouper@CryptoPP@@QAE@HABV?$basic_string@DU?$char_traits@D@std@@V?$allocator@D@2@@std@@0PAVBufferedTransformation@1@@Z 4290856b f i basecode.obj
 0001:0000765c       ??1Grouper@CryptoPP@@UAE@XZ 4290865c f i basecode.obj
 0001:000076a4       ??_FGrouper@CryptoPP@@QAEXXZ 429086a4 f i basecode.obj
 0001:000076ac       ??_EGrouper@CryptoPP@@UAEPAXI@Z 429086ac f i basecode.obj
 0001:000076f7       ?IsolatedInitialize@BaseN_Encoder@CryptoPP@@UAEXABVNameValuePairs@2@@Z 429086f7 f   basecode.obj
 0001:00007831       ?Put2@BaseN_Encoder@CryptoPP@@UAEIPBEIH_N@Z 42908831 f   basecode.obj
 0001:000079dd       ?IsolatedInitialize@BaseN_Decoder@CryptoPP@@UAEXABVNameValuePairs@2@@Z 429089dd f   basecode.obj
 0001:00007aad       ?Put2@BaseN_Decoder@CryptoPP@@UAEIPBEIH_N@Z 42908aad f   basecode.obj
 0001:00007c05       ?InitializeDecodingLookupArray@BaseN_Decoder@CryptoPP@@SAXPAHPBEI_N@Z 42908c05 f   basecode.obj
 0001:00007c70       ?IsolatedInitialize@Grouper@CryptoPP@@UAEXABVNameValuePairs@2@@Z 42908c70 f   basecode.obj
 0001:00007dab       ?Put2@Grouper@CryptoPP@@UAEIPBEIH_N@Z 42908dab f   basecode.obj
 0001:00007f17       ?GetRequiredIntParameter@NameValuePairs@CryptoPP@@QBEXPBD0AAH@Z 42908f17 f i basecode.obj
 0001:00007fe9       ?MakeParameters@CryptoPP@@YA?AVAlgorithmParameters@1@PBDABQBE_N@Z 42908fe9 f i basecode.obj
 0001:00008044       ??RAlgorithmParameters@CryptoPP@@QAEAAV01@PBDAB_N@Z 42909044 f i basecode.obj
 0001:00008058       ??RAlgorithmParameters@CryptoPP@@QAEAAV01@PBDABE@Z 42909058 f i basecode.obj
 0001:0000806c       ?MakeParameters@CryptoPP@@YA?AVAlgorithmParameters@1@PBDABQBH_N@Z 4290906c f i basecode.obj
 0001:000080c7       ?MakeParameters@CryptoPP@@YA?AVAlgorithmParameters@1@PBDABH_N@Z 429090c7 f i basecode.obj
 0001:00008122       ??RAlgorithmParameters@CryptoPP@@QAEAAV01@PBDABVConstByteArrayParameter@1@@Z 42909122 f i basecode.obj
 0001:00008136       ?GetRequiredParameter@NameValuePairs@CryptoPP@@QBEXPBD0AAPBE@Z 42909136 f i basecode.obj
 0001:00008208       ?GetRequiredParameter@NameValuePairs@CryptoPP@@QBEXPBD0AAPBH@Z 42909208 f i basecode.obj
 0001:000082da       ?GetRequiredParameter@NameValuePairs@CryptoPP@@QBEXPBD0AAVConstByteArrayParameter@2@@Z 429092da f i basecode.obj
 0001:000083ac       ??RAlgorithmParameters@CryptoPP@@QAEAAV01@PBDABQBE_N@Z 429093ac f i basecode.obj
 0001:0000844e       ??RAlgorithmParameters@CryptoPP@@QAEAAV01@PBDAB_N_N@Z 4290944e f i basecode.obj
 0001:000084f0       ??RAlgorithmParameters@CryptoPP@@QAEAAV01@PBDABE_N@Z 429094f0 f i basecode.obj
 0001:00008592       ??RAlgorithmParameters@CryptoPP@@QAEAAV01@PBDABQBH_N@Z 42909592 f i basecode.obj
 0001:00008650       ??0?$AlgorithmParametersTemplate@_N@CryptoPP@@QAE@PBDAB_N_N@Z 42909650 f i basecode.obj
 0001:00008680       ?AssignValue@?$AlgorithmParametersTemplate@PBE@CryptoPP@@UBEXPBDABVtype_info@@PAX@Z 42909680 f i basecode.obj
 0001:000086d9       ?MoveInto@?$AlgorithmParametersTemplate@PBE@CryptoPP@@UBEXPAX@Z 429096d9 f i basecode.obj
 0001:0000871a       ?AssignValue@?$AlgorithmParametersTemplate@E@CryptoPP@@UBEXPBDABVtype_info@@PAX@Z 4290971a f i basecode.obj
 0001:00008773       ?MoveInto@?$AlgorithmParametersTemplate@E@CryptoPP@@UBEXPAX@Z 42909773 f i basecode.obj
 0001:000087b4       ?AssignValue@?$AlgorithmParametersTemplate@PBH@CryptoPP@@UBEXPBDABVtype_info@@PAX@Z 429097b4 f i basecode.obj
 0001:0000880d       ?MoveInto@?$AlgorithmParametersTemplate@PBH@CryptoPP@@UBEXPAX@Z 4290980d f i basecode.obj
 0001:0000884e       ??_E?$AlgorithmParametersTemplate@I@CryptoPP@@UAEPAXI@Z 4290984e f i basecode.obj
 0001:0000884e       ??_G?$AlgorithmParametersTemplate@E@CryptoPP@@UAEPAXI@Z 4290984e f i basecode.obj
 0001:0000884e       ??_G?$AlgorithmParametersTemplate@PBH@CryptoPP@@UAEPAXI@Z 4290984e f i basecode.obj
 0001:0000884e       ??_E?$AlgorithmParametersTemplate@E@CryptoPP@@UAEPAXI@Z 4290984e f i basecode.obj
 0001:0000884e       ??_G?$AlgorithmParametersTemplate@PBE@CryptoPP@@UAEPAXI@Z 4290984e f i basecode.obj
 0001:0000884e       ??_G?$AlgorithmParametersTemplate@VByteArrayParameter@CryptoPP@@@CryptoPP@@UAEPAXI@Z 4290984e f i basecode.obj
 0001:0000884e       ??_E?$AlgorithmParametersTemplate@PBE@CryptoPP@@UAEPAXI@Z 4290984e f i basecode.obj
 0001:0000884e       ??_E?$AlgorithmParametersTemplate@PAVRandomNumberGenerator@CryptoPP@@@CryptoPP@@UAEPAXI@Z 4290984e f i basecode.obj
 0001:0000884e       ??_G?$AlgorithmParametersTemplate@I@CryptoPP@@UAEPAXI@Z 4290984e f i basecode.obj
 0001:0000884e       ??_E?$AlgorithmParametersTemplate@W4RandomNumberType@Integer@CryptoPP@@@CryptoPP@@UAEPAXI@Z 4290984e f i basecode.obj
 0001:0000884e       ??_G?$AlgorithmParametersTemplate@PAVRandomNumberGenerator@CryptoPP@@@CryptoPP@@UAEPAXI@Z 4290984e f i basecode.obj
 0001:0000884e       ??_G?$AlgorithmParametersTemplate@W4RandomNumberType@Integer@CryptoPP@@@CryptoPP@@UAEPAXI@Z 4290984e f i basecode.obj
 0001:0000884e       ??_E?$AlgorithmParametersTemplate@W4BlockPaddingScheme@BlockPaddingSchemeDef@CryptoPP@@@CryptoPP@@UAEPAXI@Z 4290984e f i basecode.obj
 0001:0000884e       ??_E?$AlgorithmParametersTemplate@PBVPrimeSelector@CryptoPP@@@CryptoPP@@UAEPAXI@Z 4290984e f i basecode.obj
 0001:0000884e       ??_G?$AlgorithmParametersTemplate@W4BlockPaddingScheme@BlockPaddingSchemeDef@CryptoPP@@@CryptoPP@@UAEPAXI@Z 4290984e f i basecode.obj
 0001:0000884e       ??_E?$AlgorithmParametersTemplate@VByteArrayParameter@CryptoPP@@@CryptoPP@@UAEPAXI@Z 4290984e f i basecode.obj
 0001:0000884e       ??_G?$AlgorithmParametersTemplate@PBVPrimeSelector@CryptoPP@@@CryptoPP@@UAEPAXI@Z 4290984e f i basecode.obj
 0001:0000884e       ??_E?$AlgorithmParametersTemplate@PBH@CryptoPP@@UAEPAXI@Z 4290984e f i basecode.obj
 0001:0000886a       ??_EGrouper@CryptoPP@@W3AEPAXI@Z 4290986a f i basecode.obj
 0001:00008872       ??_EBaseN_Encoder@CryptoPP@@W3AEPAXI@Z 42909872 f i basecode.obj
 0001:0000887a       ??_EBaseN_Decoder@CryptoPP@@W3AEPAXI@Z 4290987a f i basecode.obj
 0001:00008882       ??0CBC_MAC_Base@CryptoPP@@QAE@XZ 42909882 f i cbcmac.obj
 0001:000088c1       ?DigestSize@CMAC_Base@CryptoPP@@UBEIXZ 429098c1 f i cbcmac.obj
 0001:000088c1       ?OptimalBlockSize@CMAC_Base@CryptoPP@@UBEIXZ 429098c1 f i cbcmac.obj
 0001:000088c1       ?DigestSize@CBC_MAC_Base@CryptoPP@@UBEIXZ 429098c1 f i cbcmac.obj
 0001:000088d3       ??0CBC_MAC_Base@CryptoPP@@QAE@ABV01@@Z 429098d3 f i cbcmac.obj
 0001:00008910       ??4CBC_MAC_Base@CryptoPP@@QAEAAV01@ABV01@@Z 42909910 f i cbcmac.obj
 0001:00008910       ??4CMAC_Base@CryptoPP@@QAEAAV01@ABV01@@Z 42909910 f i cbcmac.obj
 0001:00008931       ??1CBC_MAC_Base@CryptoPP@@UAE@XZ 42909931 f i cbcmac.obj
 0001:00008957       ?UncheckedSetKey@CBC_MAC_Base@CryptoPP@@UAEXPBEIABVNameValuePairs@2@@Z 42909957 f   cbcmac.obj
 0001:00008993       ?Update@CBC_MAC_Base@CryptoPP@@UAEXPBEI@Z 42909993 f   cbcmac.obj
 0001:00008a55       ?TruncatedFinal@CBC_MAC_Base@CryptoPP@@UAEXPAEI@Z 42909a55 f   cbcmac.obj
 0001:00008aa7       ?ProcessBuf@CBC_MAC_Base@CryptoPP@@AAEXXZ 42909aa7 f   cbcmac.obj
 0001:00008ac9       ?CleanNew@?$SecBlock@EV?$AllocatorWithCleanup@E$0A@@CryptoPP@@@CryptoPP@@QAEXI@Z 42909ac9 f i cbcmac.obj
 0001:00008b05       ?GetByteOrder@?$IteratedHash@IU?$EnumToType@W4ByteOrder@CryptoPP@@$00@CryptoPP@@$0EA@VHashTransformation@2@@CryptoPP@@UBE?AW4ByteOrder@2@XZ 42909b05 f i ccm.obj
 0001:00008b05       ?GetAlignment@AdditiveCipherAbstractPolicy@CryptoPP@@UBEIXZ 42909b05 f i ccm.obj
 0001:00008b05       ?IVRequirement@CTR_ModePolicy@CryptoPP@@UBE?AW4IV_Requirement@SimpleKeyingInterface@2@XZ 42909b05 f i ccm.obj
 0001:00008b05       ?GetAlignmentOf@CryptoPP@@YAIPAG@Z 42909b05 f i ccm.obj
 0001:00008b05       ?MandatoryBlockSize@StreamTransformation@CryptoPP@@UBEIXZ 42909b05 f i ccm.obj
 0001:00008b05       ?GetAlignmentOf@CryptoPP@@YAIPAI@Z 42909b05 f i ccm.obj
 0001:00008b05       ?OptimalNumberOfParallelBlocks@BlockTransformation@CryptoPP@@UBEIXZ 42909b05 f i ccm.obj
 0001:00008b05       ?IVRequirement@CFB_ModePolicy@CryptoPP@@UBE?AW4IV_Requirement@SimpleKeyingInterface@2@XZ 42909b05 f i ccm.obj
 0001:00008b05       ?GetByteOrder@?$IteratedHash@_KU?$EnumToType@W4ByteOrder@CryptoPP@@$00@CryptoPP@@$0IA@VHashTransformation@2@@CryptoPP@@UBE?AW4ByteOrder@2@XZ 42909b05 f i ccm.obj
 0001:00008b05       ?GetAlignmentOf@CryptoPP@@YAIPA_K@Z 42909b05 f i ccm.obj
 0001:00008b05       ?do_encoding@codecvt_base@std@@MBEHXZ 42909b05 f i ccm.obj
 0001:00008b05       ?GetFieldType@DL_GroupParameters_GFP@CryptoPP@@MBEHXZ 42909b05 f i ccm.obj
 0001:00008b05       ?length@charNode@@UBEHXZ   42909b05 f i ccm.obj
 0001:00008b05       ?do_max_length@codecvt_base@std@@MBEHXZ 42909b05 f i ccm.obj
 0001:00008b05       ?MinIVLength@GCM_Base@CryptoPP@@UBEIXZ 42909b05 f i ccm.obj
 0001:00008b05       ?OptimalBlockSize@HashTransformation@CryptoPP@@UBEIXZ 42909b05 f i ccm.obj
 0001:00008b09       ?WriteKeystream@AdditiveCipherAbstractPolicy@CryptoPP@@UAEXPAEI@Z 42909b09 f i ccm.obj
 0001:00008b38       ?OperateKeystream@AdditiveCipherAbstractPolicy@CryptoPP@@UAEXW4KeystreamOperation@2@PAEPBEI@Z 42909b38 f i ccm.obj
 0001:00008b3b       ?CipherResynchronize@AdditiveCipherAbstractPolicy@CryptoPP@@UAEXPAEPBEI@Z 42909b3b f i ccm.obj
 0001:00008b97       ?SeekToIteration@AdditiveCipherAbstractPolicy@CryptoPP@@UAEX_K@Z 42909b97 f i ccm.obj
 0001:00008bf3       ?FastSubgroupCheckAvailable@?$DL_GroupParameters_EC@VEC2N@CryptoPP@@@CryptoPP@@UBE_NXZ 42909bf3 f i ccm.obj
 0001:00008bf3       ?NeedsPrespecifiedDataLengths@AuthenticatedSymmetricCipher@CryptoPP@@UBE_NXZ 42909bf3 f i ccm.obj
 0001:00008bf3       ?NeedConversions@?$DL_GroupPrecomputation@UEC2NPoint@CryptoPP@@@CryptoPP@@UBE_NXZ 42909bf3 f i ccm.obj
 0001:00008bf3       ?IsForwardTransformation@?$BlockCipherFinal@$00VDec@Rijndael@CryptoPP@@@CryptoPP@@UBE_NXZ 42909bf3 f i ccm.obj
 0001:00008bf3       ?IsSelfInverting@?$CFB_CipherTemplate@V?$AbstractPolicyHolder@VCFB_CipherAbstractPolicy@CryptoPP@@VSymmetricCipher@2@@CryptoPP@@@CryptoPP@@UBE_NXZ 42909bf3 f i ccm.obj
 0001:00008bf3       ?IsRandomAccess@BlockOrientedCipherModeBase@CryptoPP@@UBE_NXZ 42909bf3 f i ccm.obj
 0001:00008bf3       ?RequireAlignedInput@CBC_ModeBase@CryptoPP@@QBE_NXZ 42909bf3 f i ccm.obj
 0001:00008bf3       ?InversionIsFast@?$AbstractGroup@UECPPoint@CryptoPP@@@CryptoPP@@UBE_NXZ 42909bf3 f i ccm.obj
 0001:00008bf3       ?AuthenticationIsOnPlaintext@GCM_Base@CryptoPP@@MBE_NXZ 42909bf3 f i ccm.obj
 0001:00008bf3       ?NeedConversions@?$DL_GroupPrecomputation@UECPPoint@CryptoPP@@@CryptoPP@@UBE_NXZ 42909bf3 f i ccm.obj
 0001:00008bf3       ?IsSelfInverting@?$CFB_CipherTemplate@V?$AbstractPolicyHolder@VCFB_CipherAbstractPolicy@CryptoPP@@VCFB_ModePolicy@2@@CryptoPP@@@CryptoPP@@UBE_NXZ 42909bf3 f i ccm.obj
 0001:00008bf3       ?AllowRecovery@?$PSSR_MEM@$0A@VP1363_MGF1@CryptoPP@@$0?0$0A@$0A@@CryptoPP@@EBE_NXZ 42909bf3 f i ccm.obj
 0001:00008bf3       ?IsForwardTransformation@?$CFB_DecryptionTemplate@V?$AbstractPolicyHolder@VCFB_CipherAbstractPolicy@CryptoPP@@VCFB_ModePolicy@2@@CryptoPP@@@CryptoPP@@EBE_NXZ 42909bf3 f i ccm.obj
 0001:00008bf3       ?InversionIsFast@?$AbstractGroup@VPolynomialMod2@CryptoPP@@@CryptoPP@@UBE_NXZ 42909bf3 f i ccm.obj
 0001:00008bf3       ?Attachable@BufferedTransformation@CryptoPP@@UAE_NXZ 42909bf3 f i ccm.obj
 0001:00008bf3       ?InputBufferIsEmpty@?$Unflushable@V?$Multichannel@VFilter@CryptoPP@@@CryptoPP@@@CryptoPP@@MBE_NXZ 42909bf3 f i ccm.obj
 0001:00008bf3       ?InversionIsFast@?$AbstractGroup@UEC2NPoint@CryptoPP@@@CryptoPP@@UBE_NXZ 42909bf3 f i ccm.obj
 0001:00008bf3       ?FastSubgroupCheckAvailable@?$DL_GroupParameters_EC@VECP@CryptoPP@@@CryptoPP@@UBE_NXZ 42909bf3 f i ccm.obj
 0001:00008bf3       ?InputBufferIsEmpty@?$Unflushable@VFilter@CryptoPP@@@CryptoPP@@MBE_NXZ 42909bf3 f i ccm.obj
 0001:00008bf3       ?GetNextMessageSeries@BufferedTransformation@CryptoPP@@UAE_NXZ 42909bf3 f i ccm.obj
 0001:00008bf3       ?IsForwardTransformation@?$CFB_DecryptionTemplate@V?$AbstractPolicyHolder@VCFB_CipherAbstractPolicy@CryptoPP@@VSymmetricCipher@2@@CryptoPP@@@CryptoPP@@EBE_NXZ 42909bf3 f i ccm.obj
 0001:00008bf3       ?IsForwardTransformation@?$BlockCipherFinal@$00VBase@DES_EDE3@CryptoPP@@@CryptoPP@@UBE_NXZ 42909bf3 f i ccm.obj
 0001:00008bf3       ?IsRandomAccess@?$CFB_CipherTemplate@V?$AbstractPolicyHolder@VCFB_CipherAbstractPolicy@CryptoPP@@VSymmetricCipher@2@@CryptoPP@@@CryptoPP@@UBE_NXZ 42909bf3 f i ccm.obj
 0001:00008bf3       ?do_always_noconv@?$codecvt@GDH@std@@MBE_NXZ 42909bf3 f i ccm.obj
 0001:00008bf3       ?InversionIsFast@?$AbstractGroup@VInteger@CryptoPP@@@CryptoPP@@UBE_NXZ 42909bf3 f i ccm.obj
 0001:00008bf3       ?SupportsPrecomputation@CryptoMaterial@CryptoPP@@UBE_NXZ 42909bf3 f i ccm.obj
 0001:00008bf3       ?CanIncorporateEntropy@RandomNumberGenerator@CryptoPP@@UBE_NXZ 42909bf3 f i ccm.obj
 0001:00008bf3       ?NeedConversions@?$DL_GroupPrecomputation@VInteger@CryptoPP@@@CryptoPP@@UBE_NXZ 42909bf3 f i ccm.obj
 0001:00008bf3       ?IsRandomized@TrapdoorFunction@CryptoPP@@UBE_NXZ 42909bf3 f i ccm.obj
 0001:00008bf3       ?IsMontgomeryRepresentation@ModularArithmetic@CryptoPP@@UBE_NXZ 42909bf3 f i ccm.obj
 0001:00008bf3       ?SignatureUpfront@PK_SignatureScheme@CryptoPP@@UBE_NXZ 42909bf3 f i ccm.obj
 0001:00008bf3       ?CanModifyInput@BufferedTransformation@CryptoPP@@UBE_NXZ 42909bf3 f i ccm.obj
 0001:00008bf3       ?CanIterate@CFB_CipherAbstractPolicy@CryptoPP@@UBE_NXZ 42909bf3 f i ccm.obj
 0001:00008bf3       ?IsSelfInverting@BlockOrientedCipherModeBase@CryptoPP@@UBE_NXZ 42909bf3 f i ccm.obj
 0001:00008bf3       ?IsRandomAccess@?$CFB_CipherTemplate@V?$AbstractPolicyHolder@VCFB_CipherAbstractPolicy@CryptoPP@@VCFB_ModePolicy@2@@CryptoPP@@@CryptoPP@@UBE_NXZ 42909bf3 f i ccm.obj
 0001:00008bf3       ?CanOperateKeystream@AdditiveCipherAbstractPolicy@CryptoPP@@UBE_NXZ 42909bf3 f i ccm.obj
 0001:00008bf3       ?IsRandomAccess@AuthenticatedSymmetricCipherBase@CryptoPP@@UBE_NXZ 42909bf3 f i ccm.obj
 0001:00008bf3       ?IsRandomized@TrapdoorFunctionInverse@CryptoPP@@UBE_NXZ 42909bf3 f i ccm.obj
 0001:00008bf3       ?IsForwardTransformation@?$BlockCipherFinal@$00VDec@SKIPJACK@CryptoPP@@@CryptoPP@@UBE_NXZ 42909bf3 f i ccm.obj
 0001:00008bf3       ?CipherIsRandomAccess@OFB_ModePolicy@CryptoPP@@UBE_NXZ 42909bf3 f i ccm.obj
 0001:00008bf6       ?Iterate@CFB_CipherAbstractPolicy@CryptoPP@@UAEXPAEPBEW4CipherDir@2@I@Z 42909bf6 f i ccm.obj
 0001:00008c0c       ?CipherResynchronize@CFB_CipherAbstractPolicy@CryptoPP@@UAEXPBEI@Z 42909c0c f i ccm.obj
 0001:00008c68       ??0ASN1Object@CryptoPP@@QAE@XZ 42909c68 f i ccm.obj
 0001:00008c68       ??0?$AbstractGroup@VInteger@CryptoPP@@@CryptoPP@@QAE@XZ 42909c68 f i ccm.obj
 0001:00008c68       ??0RandomizedTrapdoorFunction@CryptoPP@@QAE@XZ 42909c68 f i ccm.obj
 0001:00008c68       ?Ref@StreamTransformation@CryptoPP@@QAEAAV12@XZ 42909c68 f i ccm.obj
 0001:00008c68       ?Ref@HashTransformation@CryptoPP@@QAEAAV12@XZ 42909c68 f i ccm.obj
 0001:00008c68       ??0?$AbstractGroup@UEC2NPoint@CryptoPP@@@CryptoPP@@QAE@XZ 42909c68 f i ccm.obj
 0001:00008c68       ??0?$AbstractGroup@UECPPoint@CryptoPP@@@CryptoPP@@QAE@XZ 42909c68 f i ccm.obj
 0001:00008c68       ??0SimpleKeyingInterface@CryptoPP@@QAE@XZ 42909c68 f i ccm.obj
 0001:00008c68       ?Prime@PrimeAndGenerator@CryptoPP@@QBEABVInteger@2@XZ 42909c68 f i ccm.obj
 0001:00008c68       ??0AdditiveCipherAbstractPolicy@CryptoPP@@QAE@XZ 42909c68 f i ccm.obj
 0001:00008c68       ??0TrapdoorFunctionBounds@CryptoPP@@QAE@XZ 42909c68 f i ccm.obj
 0001:00008c68       ??0Clonable@CryptoPP@@QAE@XZ 42909c68 f i ccm.obj
 0001:00008c68       ?GetSelectorPointer@PrimeSelector@CryptoPP@@QBEPBV12@XZ 42909c68 f i ccm.obj
 0001:00008c68       ??0PK_SignatureScheme@CryptoPP@@QAE@XZ 42909c68 f i ccm.obj
 0001:00008c68       ??0CFB_CipherAbstractPolicy@CryptoPP@@QAE@XZ 42909c68 f i ccm.obj
 0001:00008c68       ??0PK_RecoverableSignatureMessageEncodingMethod@CryptoPP@@QAE@XZ 42909c68 f i ccm.obj
 0001:00008c68       ??0PK_DeterministicSignatureMessageEncodingMethod@CryptoPP@@QAE@XZ 42909c68 f i ccm.obj
 0001:00008c68       ?Ref@BufferedTransformation@CryptoPP@@QAEAAV12@XZ 42909c68 f i ccm.obj
 0001:00008c68       ??0TrapdoorFunctionInverse@CryptoPP@@QAE@XZ 42909c68 f i ccm.obj
 0001:00008c68       ??0RandomizedTrapdoorFunctionInverse@CryptoPP@@QAE@XZ 42909c68 f i ccm.obj
 0001:00008c68       ??0?$AbstractGroup@VPolynomialMod2@CryptoPP@@@CryptoPP@@QAE@XZ 42909c68 f i ccm.obj
 0001:00008c68       ??0PK_CryptoSystem@CryptoPP@@QAE@XZ 42909c68 f i ccm.obj
 0001:00008c68       ??0TrapdoorFunction@CryptoPP@@QAE@XZ 42909c68 f i ccm.obj
 0001:00008c68       ??0CryptoMaterial@CryptoPP@@QAE@XZ 42909c68 f i ccm.obj
 0001:00008c6b       ??0?$AbstractPolicyHolder@UAdditiveCipherAbstractPolicy@CryptoPP@@VSymmetricCipher@2@@CryptoPP@@QAE@XZ 42909c6b f i ccm.obj
 0001:00008c99       ??0?$AdditiveCipherTemplate@V?$AbstractPolicyHolder@UAdditiveCipherAbstractPolicy@CryptoPP@@VSymmetricCipher@2@@CryptoPP@@@CryptoPP@@QAE@XZ 42909c99 f i ccm.obj
 0001:00008ce6       ??0?$AdditiveCipherTemplate@V?$AbstractPolicyHolder@UAdditiveCipherAbstractPolicy@CryptoPP@@VSymmetricCipher@2@@CryptoPP@@@CryptoPP@@QAE@ABV01@@Z 42909ce6 f i ccm.obj
 0001:00008d26       ??4?$AdditiveCipherTemplate@V?$AbstractPolicyHolder@UAdditiveCipherAbstractPolicy@CryptoPP@@VSymmetricCipher@2@@CryptoPP@@@CryptoPP@@QAEAAV01@ABV01@@Z 42909d26 f i ccm.obj
 0001:00008d47       ??1?$AdditiveCipherTemplate@V?$AbstractPolicyHolder@UAdditiveCipherAbstractPolicy@CryptoPP@@VSymmetricCipher@2@@CryptoPP@@@CryptoPP@@UAE@XZ 42909d47 f i ccm.obj
 0001:00008d70       ??0?$CFB_CipherTemplate@V?$AbstractPolicyHolder@VCFB_CipherAbstractPolicy@CryptoPP@@VSymmetricCipher@2@@CryptoPP@@@CryptoPP@@QAE@XZ 42909d70 f i ccm.obj
 0001:00008d9e       ??0?$CFB_EncryptionTemplate@V?$AbstractPolicyHolder@VCFB_CipherAbstractPolicy@CryptoPP@@VSymmetricCipher@2@@CryptoPP@@@CryptoPP@@QAE@XZ 42909d9e f i ccm.obj
 0001:00008dcc       ??0?$CFB_DecryptionTemplate@V?$AbstractPolicyHolder@VCFB_CipherAbstractPolicy@CryptoPP@@VSymmetricCipher@2@@CryptoPP@@@CryptoPP@@QAE@XZ 42909dcc f i ccm.obj
 0001:00008dfa       ?MinKeyLength@CipherModeBase@CryptoPP@@UBEIXZ 42909dfa f i ccm.obj
 0001:00008e02       ?MaxKeyLength@CipherModeBase@CryptoPP@@UBEIXZ 42909e02 f i ccm.obj
 0001:00008e0a       ?DefaultKeyLength@CipherModeBase@CryptoPP@@UBEIXZ 42909e0a f i ccm.obj
 0001:00008e12       ?GetValidKeyLength@CipherModeBase@CryptoPP@@UBEII@Z 42909e12 f i ccm.obj
 0001:00008e21       ?IsValidKeyLength@CipherModeBase@CryptoPP@@UBE_NI@Z 42909e21 f i ccm.obj
 0001:00008e30       ?OptimalDataAlignment@CipherModeBase@CryptoPP@@UBEIXZ 42909e30 f i ccm.obj
 0001:00008e3c       ?SetCipher@CipherModeBase@CryptoPP@@QAEXAAVBlockCipher@2@@Z 42909e3c f i ccm.obj
 0001:00008e56       ?SetCipherWithIV@CipherModeBase@CryptoPP@@QAEXAAVBlockCipher@2@PBEH@Z 42909e56 f i ccm.obj
 0001:00008e98       ??0CipherModeBase@CryptoPP@@IAE@XZ 42909e98 f i ccm.obj
 0001:00008edb       ?SetFeedbackSize@CipherModeBase@CryptoPP@@MAEXI@Z 42909edb f i ccm.obj
 0001:00008f53       ?ResizeBuffers@CipherModeBase@CryptoPP@@MAEXXZ 42909f53 f i ccm.obj
 0001:00008f6d       ??0CipherModeBase@CryptoPP@@QAE@ABV01@@Z 42909f6d f i ccm.obj
 0001:00008fa8       ??1CipherModeBase@CryptoPP@@UAE@XZ 42909fa8 f i ccm.obj
 0001:00008fce       ?StaticAlgorithmName@CFB_ModePolicy@CryptoPP@@SAPBDXZ 42909fce f i ccm.obj
 0001:00008fd4       ?GetRegisterBegin@CFB_ModePolicy@CryptoPP@@MAEPAEXZ 42909fd4 f i ccm.obj
 0001:00008fde       ?CanIterate@CFB_ModePolicy@CryptoPP@@MBE_NXZ 42909fde f i ccm.obj
 0001:00008fea       ??0CFB_ModePolicy@CryptoPP@@QAE@XZ 42909fea f i ccm.obj
 0001:0000901d       ??0CFB_ModePolicy@CryptoPP@@QAE@ABV01@@Z 4290a01d f i ccm.obj
 0001:00009060       ??4CFB_ModePolicy@CryptoPP@@QAEAAV01@ABV01@@Z 4290a060 f i ccm.obj
 0001:00009087       ??1CFB_ModePolicy@CryptoPP@@UAE@XZ 4290a087 f i ccm.obj
 0001:000090c0       ??1?$ModePolicyCommonTemplate@VCFB_CipherAbstractPolicy@CryptoPP@@@CryptoPP@@UAE@XZ 4290a0c0 f i ccm.obj
 0001:000090e6       ?StaticAlgorithmName@OFB_ModePolicy@CryptoPP@@SAPBDXZ 4290a0e6 f i ccm.obj
 0001:000090ec       ?GetIterationsToBuffer@OFB_ModePolicy@CryptoPP@@EBEIXZ 4290a0ec f i ccm.obj
 0001:000090ec       ?GetIterationsToBuffer@CTR_ModePolicy@CryptoPP@@MBEIXZ 4290a0ec f i ccm.obj
 0001:000090f8       ??0OFB_ModePolicy@CryptoPP@@QAE@XZ 4290a0f8 f i ccm.obj
 0001:00009104       ??0OFB_ModePolicy@CryptoPP@@QAE@ABV01@@Z 4290a104 f i ccm.obj
 0001:0000913f       ??4CipherModeBase@CryptoPP@@QAEAAV01@ABV01@@Z 4290a13f f i ccm.obj
 0001:0000913f       ??4OFB_ModePolicy@CryptoPP@@QAEAAV01@ABV01@@Z 4290a13f f i ccm.obj
 0001:0000915e       ??1OFB_ModePolicy@CryptoPP@@UAE@XZ 4290a15e f i ccm.obj
 0001:00009184       ?StaticAlgorithmName@CTR_ModePolicy@CryptoPP@@SAPBDXZ 4290a184 f i ccm.obj
 0001:0000918a       ?GetAlignment@?$ModePolicyCommonTemplate@UAdditiveCipherAbstractPolicy@CryptoPP@@@CryptoPP@@EBEIXZ 4290a18a f i ccm.obj
 0001:0000918a       ?GetAlignment@CTR_ModePolicy@CryptoPP@@MBEIXZ 4290a18a f i ccm.obj
 0001:0000918a       ?GetAlignment@?$ModePolicyCommonTemplate@VCFB_CipherAbstractPolicy@CryptoPP@@@CryptoPP@@EBEIXZ 4290a18a f i ccm.obj
 0001:00009196       ?GetBytesPerIteration@CTR_ModePolicy@CryptoPP@@MBEIXZ 4290a196 f i ccm.obj
 0001:00009196       ?GetBytesPerIteration@OFB_ModePolicy@CryptoPP@@EBEIXZ 4290a196 f i ccm.obj
 0001:0000919a       ?WriteKeystream@CTR_ModePolicy@CryptoPP@@MAEXPAEI@Z 4290a19a f i ccm.obj
 0001:000091ae       ??0CTR_ModePolicy@CryptoPP@@QAE@XZ 4290a1ae f i ccm.obj
 0001:000091e1       ??1?$ModePolicyCommonTemplate@UAdditiveCipherAbstractPolicy@CryptoPP@@@CryptoPP@@UAE@XZ 4290a1e1 f i ccm.obj
 0001:00009207       ??0CTR_ModePolicy@CryptoPP@@QAE@ABV01@@Z 4290a207 f i ccm.obj
 0001:00009244       ??4CTR_ModePolicy@CryptoPP@@QAEAAV01@ABV01@@Z 4290a244 f i ccm.obj
 0001:00009265       ??1CTR_ModePolicy@CryptoPP@@UAE@XZ 4290a265 f i ccm.obj
 0001:0000929e       ?IsForwardTransformation@BlockOrientedCipherModeBase@CryptoPP@@UBE_NXZ 4290a29e f i ccm.obj
 0001:000092aa       ?Resynchronize@BlockOrientedCipherModeBase@CryptoPP@@UAEXPBEH@Z 4290a2aa f i ccm.obj
 0001:000092cf       ?ResizeBuffers@BlockOrientedCipherModeBase@CryptoPP@@MAEXXZ 4290a2cf f i ccm.obj
 0001:000092e4       ??0BlockOrientedCipherModeBase@CryptoPP@@QAE@XZ 4290a2e4 f i ccm.obj
 0001:00009317       ??0BlockOrientedCipherModeBase@CryptoPP@@QAE@ABV01@@Z 4290a317 f i ccm.obj
 0001:00009367       ??4BlockOrientedCipherModeBase@CryptoPP@@QAEAAV01@ABV01@@Z 4290a367 f i ccm.obj
 0001:00009394       ??1BlockOrientedCipherModeBase@CryptoPP@@UAE@XZ 4290a394 f i ccm.obj
 0001:000093cd       ?SetKey@ECB_OneWay@CryptoPP@@UAEXPBEIABVNameValuePairs@2@@Z 4290a3cd f i ccm.obj
 0001:000093ef       ?IVRequirement@?$SimpleKeyingInterfaceImpl@V?$TwoBases@VBlockCipher@CryptoPP@@UDES_EDE3_Info@2@@CryptoPP@@V12@@CryptoPP@@UBE?AW4IV_Requirement@SimpleKeyingInterface@2@XZ 4290a3ef f i ccm.obj
 0001:000093ef       ?IVRequirement@ECB_OneWay@CryptoPP@@UBE?AW4IV_Requirement@SimpleKeyingInterface@2@XZ 4290a3ef f i ccm.obj
 0001:000093ef       ?IVRequirement@?$SimpleKeyingInterfaceImpl@V?$TwoBases@VBlockCipher@CryptoPP@@USKIPJACK_Info@2@@CryptoPP@@V12@@CryptoPP@@UBE?AW4IV_Requirement@SimpleKeyingInterface@2@XZ 4290a3ef f i ccm.obj
 0001:000093ef       ?IVRequirement@?$SimpleKeyingInterfaceImpl@VHMAC_Base@CryptoPP@@V?$HMAC@VSHA1@CryptoPP@@@2@@CryptoPP@@UBE?AW4IV_Requirement@SimpleKeyingInterface@2@XZ 4290a3ef f i ccm.obj
 0001:000093ef       ?IVRequirement@?$SimpleKeyingInterfaceImpl@V?$TwoBases@VBlockCipher@CryptoPP@@URijndael_Info@2@@CryptoPP@@V12@@CryptoPP@@UBE?AW4IV_Requirement@SimpleKeyingInterface@2@XZ 4290a3ef f i ccm.obj
 0001:000093f3       ?OptimalBlockSize@ECB_OneWay@CryptoPP@@UBEIXZ 4290a3f3 f i ccm.obj
 0001:00009407       ?StaticAlgorithmName@ECB_OneWay@CryptoPP@@SAPBDXZ 4290a407 f i ccm.obj
 0001:0000940d       ??0ECB_OneWay@CryptoPP@@QAE@XZ 4290a40d f i ccm.obj
 0001:00009440       ??4CBC_Encryption@CryptoPP@@QAEAAV01@ABV01@@Z 4290a440 f i ccm.obj
 0001:00009440       ??4?$CipherModeFinalTemplate_ExternalCipher@VCBC_Encryption@CryptoPP@@@CryptoPP@@QAEAAV01@ABV01@@Z 4290a440 f i ccm.obj
 0001:00009440       ??4?$CipherModeFinalTemplate_ExternalCipher@VECB_OneWay@CryptoPP@@@CryptoPP@@QAEAAV01@ABV01@@Z 4290a440 f i ccm.obj
 0001:00009440       ??4CBC_ModeBase@CryptoPP@@QAEAAV01@ABV01@@Z 4290a440 f i ccm.obj
 0001:00009440       ??4ECB_OneWay@CryptoPP@@QAEAAV01@ABV01@@Z 4290a440 f i ccm.obj
 0001:00009452       ?do_date_order@?$time_get@GV?$istreambuf_iterator@GU?$char_traits@G@std@@@std@@@std@@MBEHXZ 4290a452 f i ccm.obj
 0001:00009452       ?IVRequirement@CBC_ModeBase@CryptoPP@@UBE?AW4IV_Requirement@SimpleKeyingInterface@2@XZ 4290a452 f i ccm.obj
 0001:00009452       ?do_max_length@?$codecvt@GDH@std@@MBEHXZ 4290a452 f i ccm.obj
 0001:00009452       ?do_date_order@?$time_get@DV?$istreambuf_iterator@DU?$char_traits@D@std@@@std@@@std@@MBEHXZ 4290a452 f i ccm.obj
 0001:00009456       ?StaticAlgorithmName@CBC_ModeBase@CryptoPP@@SAPBDXZ 4290a456 f i ccm.obj
 0001:0000945c       ??0CBC_ModeBase@CryptoPP@@QAE@XZ 4290a45c f i ccm.obj
 0001:0000948f       ??0CBC_ModeBase@CryptoPP@@QAE@ABV01@@Z 4290a48f f i ccm.obj
 0001:0000948f       ??0CBC_Encryption@CryptoPP@@QAE@ABV01@@Z 4290a48f f i ccm.obj
 0001:0000948f       ??0ECB_OneWay@CryptoPP@@QAE@ABV01@@Z 4290a48f f i ccm.obj
 0001:000094a1       ??0CBC_Encryption@CryptoPP@@QAE@XZ 4290a4a1 f i ccm.obj
 0001:000094d4       ?SetStolenIV@CBC_CTS_Encryption@CryptoPP@@QAEXPAE@Z 4290a4d4 f i ccm.obj
 0001:000094de       ?StaticAlgorithmName@CBC_CTS_Encryption@CryptoPP@@SAPBDXZ 4290a4de f i ccm.obj
 0001:000094e4       ?UncheckedSetKey@CBC_CTS_Encryption@CryptoPP@@MAEXPBEIABVNameValuePairs@2@@Z 4290a4e4 f i ccm.obj
 0001:0000951f       ??0CBC_CTS_Encryption@CryptoPP@@QAE@XZ 4290a51f f i ccm.obj
 0001:00009552       ??0CBC_CTS_Encryption@CryptoPP@@QAE@ABV01@@Z 4290a552 f i ccm.obj
 0001:0000956d       ??4CBC_CTS_Encryption@CryptoPP@@QAEAAV01@ABV01@@Z 4290a56d f i ccm.obj
 0001:00009588       ?ResizeBuffers@CBC_Decryption@CryptoPP@@MAEXXZ 4290a588 f i ccm.obj
 0001:0000959d       ??0CBC_Decryption@CryptoPP@@QAE@XZ 4290a59d f i ccm.obj
 0001:000095e1       ??0CBC_Decryption@CryptoPP@@QAE@ABV01@@Z 4290a5e1 f i ccm.obj
 0001:00009631       ??4CBC_Decryption@CryptoPP@@QAEAAV01@ABV01@@Z 4290a631 f i ccm.obj
 0001:0000965e       ??1CBC_Decryption@CryptoPP@@UAE@XZ 4290a65e f i ccm.obj
 0001:00009693       ?MinLastBlockSize@CBC_CTS_Encryption@CryptoPP@@UBEIXZ 4290a693 f i ccm.obj
 0001:00009693       ?MinLastBlockSize@CBC_CTS_Decryption@CryptoPP@@UBEIXZ 4290a693 f i ccm.obj
 0001:00009698       ??0CBC_CTS_Decryption@CryptoPP@@QAE@XZ 4290a698 f i ccm.obj
 0001:000096a4       ??0CBC_CTS_Decryption@CryptoPP@@QAE@ABV01@@Z 4290a6a4 f i ccm.obj
 0001:000096b6       ??1CBC_CTS_Decryption@CryptoPP@@UAE@XZ 4290a6b6 f i ccm.obj
 0001:000096eb       ??0?$CFB_CipherTemplate@V?$AbstractPolicyHolder@VCFB_CipherAbstractPolicy@CryptoPP@@VCFB_ModePolicy@2@@CryptoPP@@@CryptoPP@@QAE@XZ 4290a6eb f i ccm.obj
 0001:0000971e       ??1?$ConcretePolicyHolder@VEmpty@CryptoPP@@V?$CFB_EncryptionTemplate@V?$AbstractPolicyHolder@VCFB_CipherAbstractPolicy@CryptoPP@@VCFB_ModePolicy@2@@CryptoPP@@@2@VCFB_CipherAbstractPolicy@2@@CryptoPP@@UAE@XZ 4290a71e f i ccm.obj
 0001:0000971e       ??1?$CFB_CipherTemplate@V?$AbstractPolicyHolder@VCFB_CipherAbstractPolicy@CryptoPP@@VCFB_ModePolicy@2@@CryptoPP@@@CryptoPP@@UAE@XZ 4290a71e f i ccm.obj
 0001:0000971e       ??1?$ConcretePolicyHolder@VEmpty@CryptoPP@@V?$CFB_DecryptionTemplate@V?$AbstractPolicyHolder@VCFB_CipherAbstractPolicy@CryptoPP@@VCFB_ModePolicy@2@@CryptoPP@@@2@VCFB_CipherAbstractPolicy@2@@CryptoPP@@UAE@XZ 4290a71e f i ccm.obj
 0001:00009723       ??0?$CFB_EncryptionTemplate@V?$AbstractPolicyHolder@VCFB_CipherAbstractPolicy@CryptoPP@@VCFB_ModePolicy@2@@CryptoPP@@@CryptoPP@@QAE@XZ 4290a723 f i ccm.obj
 0001:00009756       ??1?$CFB_EncryptionTemplate@V?$AbstractPolicyHolder@VCFB_CipherAbstractPolicy@CryptoPP@@VCFB_ModePolicy@2@@CryptoPP@@@CryptoPP@@UAE@XZ 4290a756 f i ccm.obj
 0001:0000978b       ??0?$CFB_DecryptionTemplate@V?$AbstractPolicyHolder@VCFB_CipherAbstractPolicy@CryptoPP@@VCFB_ModePolicy@2@@CryptoPP@@@CryptoPP@@QAE@XZ 4290a78b f i ccm.obj
 0001:000097be       ??0?$CFB_EncryptionTemplate@V?$AbstractPolicyHolder@VCFB_CipherAbstractPolicy@CryptoPP@@VCFB_ModePolicy@2@@CryptoPP@@@CryptoPP@@QAE@ABV01@@Z 4290a7be f i ccm.obj
 0001:000097be       ??0?$CFB_CipherTemplate@V?$AbstractPolicyHolder@VCFB_CipherAbstractPolicy@CryptoPP@@VCFB_ModePolicy@2@@CryptoPP@@@CryptoPP@@QAE@ABV01@@Z 4290a7be f i ccm.obj
 0001:000097be       ??0?$CFB_DecryptionTemplate@V?$AbstractPolicyHolder@VCFB_CipherAbstractPolicy@CryptoPP@@VCFB_ModePolicy@2@@CryptoPP@@@CryptoPP@@QAE@ABV01@@Z 4290a7be f i ccm.obj
 0001:000097d9       ??4?$CFB_EncryptionTemplate@V?$AbstractPolicyHolder@VCFB_CipherAbstractPolicy@CryptoPP@@VCFB_ModePolicy@2@@CryptoPP@@@CryptoPP@@QAEAAV01@ABV01@@Z 4290a7d9 f i ccm.obj
 0001:000097d9       ??4?$CFB_CipherTemplate@V?$AbstractPolicyHolder@VCFB_CipherAbstractPolicy@CryptoPP@@VCFB_ModePolicy@2@@CryptoPP@@@CryptoPP@@QAEAAV01@ABV01@@Z 4290a7d9 f i ccm.obj
 0001:000097d9       ??4?$CFB_DecryptionTemplate@V?$AbstractPolicyHolder@VCFB_CipherAbstractPolicy@CryptoPP@@VCFB_ModePolicy@2@@CryptoPP@@@CryptoPP@@QAEAAV01@ABV01@@Z 4290a7d9 f i ccm.obj
 0001:000097f4       ??1?$CFB_DecryptionTemplate@V?$AbstractPolicyHolder@VCFB_CipherAbstractPolicy@CryptoPP@@VCFB_ModePolicy@2@@CryptoPP@@@CryptoPP@@UAE@XZ 4290a7f4 f i ccm.obj
 0001:00009829       ??0?$AdditiveCipherTemplate@V?$AbstractPolicyHolder@UAdditiveCipherAbstractPolicy@CryptoPP@@VOFB_ModePolicy@2@@CryptoPP@@@CryptoPP@@QAE@XZ 4290a829 f i ccm.obj
 0001:0000986a       ??0?$AdditiveCipherTemplate@V?$AbstractPolicyHolder@UAdditiveCipherAbstractPolicy@CryptoPP@@VOFB_ModePolicy@2@@CryptoPP@@@CryptoPP@@QAE@ABV01@@Z 4290a86a f i ccm.obj
 0001:000098b0       ??4?$AdditiveCipherTemplate@V?$AbstractPolicyHolder@UAdditiveCipherAbstractPolicy@CryptoPP@@VOFB_ModePolicy@2@@CryptoPP@@@CryptoPP@@QAEAAV01@ABV01@@Z 4290a8b0 f i ccm.obj
 0001:000098d7       ??1?$AdditiveCipherTemplate@V?$AbstractPolicyHolder@UAdditiveCipherAbstractPolicy@CryptoPP@@VOFB_ModePolicy@2@@CryptoPP@@@CryptoPP@@UAE@XZ 4290a8d7 f i ccm.obj
 0001:00009913       ??0?$AdditiveCipherTemplate@V?$AbstractPolicyHolder@UAdditiveCipherAbstractPolicy@CryptoPP@@VCTR_ModePolicy@2@@CryptoPP@@@CryptoPP@@QAE@XZ 4290a913 f i ccm.obj
 0001:00009954       ??0?$AdditiveCipherTemplate@V?$AbstractPolicyHolder@UAdditiveCipherAbstractPolicy@CryptoPP@@VCTR_ModePolicy@2@@CryptoPP@@@CryptoPP@@QAE@ABV01@@Z 4290a954 f i ccm.obj
 0001:000099aa       ??4?$AdditiveCipherTemplate@V?$AbstractPolicyHolder@UAdditiveCipherAbstractPolicy@CryptoPP@@VCTR_ModePolicy@2@@CryptoPP@@@CryptoPP@@QAEAAV01@ABV01@@Z 4290a9aa f i ccm.obj
 0001:000099dd       ??1?$AdditiveCipherTemplate@V?$AbstractPolicyHolder@UAdditiveCipherAbstractPolicy@CryptoPP@@VCTR_ModePolicy@2@@CryptoPP@@@CryptoPP@@UAE@XZ 4290a9dd f i ccm.obj
 0001:00009a15       ??0?$CipherModeFinalTemplate_ExternalCipher@V?$ConcretePolicyHolder@VEmpty@CryptoPP@@V?$AdditiveCipherTemplate@V?$AbstractPolicyHolder@UAdditiveCipherAbstractPolicy@CryptoPP@@VCTR_ModePolicy@2@@CryptoPP@@@2@UAdditiveCipherAbstractPolicy@2@@CryptoPP@@@CryptoPP@@QAE@ABV01@@Z 4290aa15 f i ccm.obj
 0001:00009a42       ??_E?$CipherModeFinalTemplate_ExternalCipher@V?$ConcretePolicyHolder@VEmpty@CryptoPP@@V?$AdditiveCipherTemplate@V?$AbstractPolicyHolder@UAdditiveCipherAbstractPolicy@CryptoPP@@VCTR_ModePolicy@2@@CryptoPP@@@2@UAdditiveCipherAbstractPolicy@2@@CryptoPP@@@CryptoPP@@UAEPAXI@Z 4290aa42 f i ccm.obj
 0001:00009a8d       ??0?$ConcretePolicyHolder@VEmpty@CryptoPP@@V?$AdditiveCipherTemplate@V?$AbstractPolicyHolder@UAdditiveCipherAbstractPolicy@CryptoPP@@VCTR_ModePolicy@2@@CryptoPP@@@2@UAdditiveCipherAbstractPolicy@2@@CryptoPP@@QAE@ABV01@@Z 4290aa8d f i ccm.obj
 0001:00009acd       ??_G?$ConcretePolicyHolder@VEmpty@CryptoPP@@V?$AdditiveCipherTemplate@V?$AbstractPolicyHolder@UAdditiveCipherAbstractPolicy@CryptoPP@@VCTR_ModePolicy@2@@CryptoPP@@@2@UAdditiveCipherAbstractPolicy@2@@CryptoPP@@UAEPAXI@Z 4290aacd f i ccm.obj
 0001:00009acd       ??_E?$ConcretePolicyHolder@VEmpty@CryptoPP@@V?$AdditiveCipherTemplate@V?$AbstractPolicyHolder@UAdditiveCipherAbstractPolicy@CryptoPP@@VCTR_ModePolicy@2@@CryptoPP@@@2@UAdditiveCipherAbstractPolicy@2@@CryptoPP@@UAEPAXI@Z 4290aacd f i ccm.obj
 0001:00009ae9       ??1?$CipherModeFinalTemplate_ExternalCipher@V?$ConcretePolicyHolder@VEmpty@CryptoPP@@V?$AdditiveCipherTemplate@V?$AbstractPolicyHolder@UAdditiveCipherAbstractPolicy@CryptoPP@@VCTR_ModePolicy@2@@CryptoPP@@@2@UAdditiveCipherAbstractPolicy@2@@CryptoPP@@@CryptoPP@@UAE@XZ 4290aae9 f i ccm.obj
 0001:00009ae9       ??1GCTR@GCM_Base@CryptoPP@@UAE@XZ 4290aae9 f i ccm.obj
 0001:00009ae9       ??1?$ConcretePolicyHolder@VEmpty@CryptoPP@@V?$AdditiveCipherTemplate@V?$AbstractPolicyHolder@UAdditiveCipherAbstractPolicy@CryptoPP@@VCTR_ModePolicy@2@@CryptoPP@@@2@UAdditiveCipherAbstractPolicy@2@@CryptoPP@@UAE@XZ 4290aae9 f i ccm.obj
 0001:00009aee       ??0?$CipherModeFinalTemplate_ExternalCipher@VECB_OneWay@CryptoPP@@@CryptoPP@@QAE@ABV01@@Z 4290aaee f i ccm.obj
 0001:00009b0d       ??_E?$CipherModeFinalTemplate_ExternalCipher@VECB_OneWay@CryptoPP@@@CryptoPP@@UAEPAXI@Z 4290ab0d f i ccm.obj
 0001:00009b0d       ??_E?$CipherModeFinalTemplate_ExternalCipher@VCBC_Encryption@CryptoPP@@@CryptoPP@@UAEPAXI@Z 4290ab0d f i ccm.obj
 0001:00009b58       ??0?$CipherModeFinalTemplate_ExternalCipher@VCBC_Encryption@CryptoPP@@@CryptoPP@@QAE@ABV01@@Z 4290ab58 f i ccm.obj
 0001:00009b77       ??1ECB_OneWay@CryptoPP@@UAE@XZ 4290ab77 f i ccm.obj
 0001:00009b77       ??1?$CipherModeFinalTemplate_ExternalCipher@VECB_OneWay@CryptoPP@@@CryptoPP@@UAE@XZ 4290ab77 f i ccm.obj
 0001:00009b77       ??1CBC_Encryption@CryptoPP@@UAE@XZ 4290ab77 f i ccm.obj
 0001:00009b77       ??1?$CipherModeFinalTemplate_ExternalCipher@VCBC_Encryption@CryptoPP@@@CryptoPP@@UAE@XZ 4290ab77 f i ccm.obj
 0001:00009b77       ??1CBC_CTS_Encryption@CryptoPP@@UAE@XZ 4290ab77 f i ccm.obj
 0001:00009b77       ??1CBC_ModeBase@CryptoPP@@UAE@XZ 4290ab77 f i ccm.obj
 0001:00009b7c       ??0?$CipherModeFinalTemplate_ExternalCipher@VCBC_Decryption@CryptoPP@@@CryptoPP@@QAE@ABV01@@Z 4290ab7c f i ccm.obj
 0001:00009b9b       ??1?$CipherModeFinalTemplate_ExternalCipher@VCBC_Decryption@CryptoPP@@@CryptoPP@@UAE@XZ 4290ab9b f i ccm.obj
 0001:00009bd0       ??_E?$CipherModeFinalTemplate_ExternalCipher@VCBC_Decryption@CryptoPP@@@CryptoPP@@UAEPAXI@Z 4290abd0 f i ccm.obj
 0001:00009c1b       ??0?$CipherModeFinalTemplate_ExternalCipher@VCBC_CTS_Encryption@CryptoPP@@@CryptoPP@@QAE@ABV01@@Z 4290ac1b f i ccm.obj
 0001:00009c3a       ??4?$CipherModeFinalTemplate_ExternalCipher@VCBC_CTS_Encryption@CryptoPP@@@CryptoPP@@QAEAAV01@ABV01@@Z 4290ac3a f i ccm.obj
 0001:00009c4c       ??1?$CipherModeFinalTemplate_ExternalCipher@VCBC_CTS_Encryption@CryptoPP@@@CryptoPP@@UAE@XZ 4290ac4c f i ccm.obj
 0001:00009c81       ??_E?$CipherModeFinalTemplate_ExternalCipher@VCBC_CTS_Encryption@CryptoPP@@@CryptoPP@@UAEPAXI@Z 4290ac81 f i ccm.obj
 0001:00009ccc       ??0?$CipherModeFinalTemplate_ExternalCipher@VCBC_CTS_Decryption@CryptoPP@@@CryptoPP@@QAE@ABV01@@Z 4290accc f i ccm.obj
 0001:00009ceb       ??4?$CipherModeFinalTemplate_ExternalCipher@VCBC_CTS_Decryption@CryptoPP@@@CryptoPP@@QAEAAV01@ABV01@@Z 4290aceb f i ccm.obj
 0001:00009ceb       ??4?$CipherModeFinalTemplate_ExternalCipher@VCBC_Decryption@CryptoPP@@@CryptoPP@@QAEAAV01@ABV01@@Z 4290aceb f i ccm.obj
 0001:00009ceb       ??4CBC_CTS_Decryption@CryptoPP@@QAEAAV01@ABV01@@Z 4290aceb f i ccm.obj
 0001:00009cfd       ??1?$CipherModeFinalTemplate_ExternalCipher@VCBC_CTS_Decryption@CryptoPP@@@CryptoPP@@UAE@XZ 4290acfd f i ccm.obj
 0001:00009d02       ??_E?$CipherModeFinalTemplate_ExternalCipher@VCBC_CTS_Decryption@CryptoPP@@@CryptoPP@@UAEPAXI@Z 4290ad02 f i ccm.obj
 0001:00009d4d       ??0CCM_Base@CryptoPP@@QAE@XZ 4290ad4d f i ccm.obj
 0001:00009d85       ?AlgorithmName@CCM_Base@CryptoPP@@UBE?AV?$basic_string@DU?$char_traits@D@std@@V?$allocator@D@2@@std@@XZ 4290ad85 f i ccm.obj
 0001:00009e20       ?MaxKeyLength@GCM_Base@CryptoPP@@UBEIXZ 4290ae20 f i ccm.obj
 0001:00009e20       ?MaxKeyLength@CCM_Base@CryptoPP@@UBEIXZ 4290ae20 f i ccm.obj
 0001:00009e2c       ?GetValidKeyLength@GCM_Base@CryptoPP@@UBEII@Z 4290ae2c f i ccm.obj
 0001:00009e2c       ?GetValidKeyLength@CCM_Base@CryptoPP@@UBEII@Z 4290ae2c f i ccm.obj
 0001:00009e3f       ?IsValidKeyLength@CCM_Base@CryptoPP@@UBE_NI@Z 4290ae3f f i ccm.obj
 0001:00009e3f       ?IsValidKeyLength@GCM_Base@CryptoPP@@UBE_NI@Z 4290ae3f f i ccm.obj
 0001:00009e52       ?OptimalDataAlignment@CCM_Base@CryptoPP@@UBEIXZ 4290ae52 f i ccm.obj
 0001:00009e64       ?BlockSize@?$BlockCipherImpl@UDES_EDE3_Info@CryptoPP@@VBlockCipher@2@@CryptoPP@@UBEIXZ 4290ae64 f i ccm.obj
 0001:00009e64       ?BlockSize@?$BlockCipherImpl@USKIPJACK_Info@CryptoPP@@VBlockCipher@2@@CryptoPP@@UBEIXZ 4290ae64 f i ccm.obj
 0001:00009e64       ?IVSize@CCM_Base@CryptoPP@@UBEIXZ 4290ae64 f i ccm.obj
 0001:00009e68       ?MinIVLength@CCM_Base@CryptoPP@@UBEIXZ 4290ae68 f i ccm.obj
 0001:00009e6c       ?MaxIVLength@CCM_Base@CryptoPP@@UBEIXZ 4290ae6c f i ccm.obj
 0001:00009e70       ?MaxHeaderLength@CCM_Base@CryptoPP@@UBE_KXZ 4290ae70 f i ccm.obj
 0001:00009e76       ?MaxMessageLength@CCM_Base@CryptoPP@@UBE_KXZ 4290ae76 f i ccm.obj
 0001:00009e9a       ?AuthenticationBlockSize@CCM_Base@CryptoPP@@MBEIXZ 4290ae9a f i ccm.obj
 0001:00009ea8       ?AccessSymmetricCipher@CCM_Base@CryptoPP@@MAEAAVSymmetricCipher@2@XZ 4290aea8 f i ccm.obj
 0001:00009eac       ??0CCM_Base@CryptoPP@@QAE@ABV01@@Z 4290aeac f i ccm.obj
 0001:00009f2c       ??4CCM_Base@CryptoPP@@QAEAAV01@ABV01@@Z 4290af2c f i ccm.obj
 0001:00009f85       ??1CCM_Base@CryptoPP@@UAE@XZ 4290af85 f i ccm.obj
 0001:00009fba       ?SetKeyWithoutResync@CCM_Base@CryptoPP@@MAEXPBEIABVNameValuePairs@2@@Z 4290afba f   ccm.obj
 0001:0000a0ed       ?Resync@CCM_Base@CryptoPP@@MAEXPBEI@Z 4290b0ed f   ccm.obj
 0001:0000a183       ?UncheckedSpecifyDataLengths@CCM_Base@CryptoPP@@UAEX_K00@Z 4290b183 f   ccm.obj
 0001:0000a2e8       ?AuthenticateBlocks@CCM_Base@CryptoPP@@MAEIPBEI@Z 4290b2e8 f   ccm.obj
 0001:0000a30c       ?AuthenticateLastHeaderBlock@CCM_Base@CryptoPP@@MAEXXZ 4290b30c f   ccm.obj
 0001:0000a3b6       ?AuthenticateLastConfidentialBlock@CCM_Base@CryptoPP@@MAEXXZ 4290b3b6 f   ccm.obj
 0001:0000a460       ?AuthenticateLastFooterBlock@CCM_Base@CryptoPP@@MAEXPAEI@Z 4290b460 f   ccm.obj
 0001:0000a48e       ??_9@$BM@AE                4290b48e f i ccm.obj
 0001:0000a48e       ?OptimalBlockSize@StreamTransformation@CryptoPP@@UBEIXZ 4290b48e f i ccm.obj
 0001:0000a493       ?Seek@StreamTransformation@CryptoPP@@UAEX_K@Z 4290b493 f i ccm.obj
 0001:0000a4ef       ?Grow@?$SecBlock@EV?$AllocatorWithCleanup@E$00@CryptoPP@@@CryptoPP@@QAEXI@Z 4290b4ef f i ccm.obj
 0001:0000a51a       ?OptimalBlockSize@?$AdditiveCipherTemplate@V?$AbstractPolicyHolder@UAdditiveCipherAbstractPolicy@CryptoPP@@VSymmetricCipher@2@@CryptoPP@@@CryptoPP@@UBEIXZ 4290b51a f i ccm.obj
 0001:0000a52a       ?IsRandomAccess@?$AdditiveCipherTemplate@V?$AbstractPolicyHolder@UAdditiveCipherAbstractPolicy@CryptoPP@@VSymmetricCipher@2@@CryptoPP@@@CryptoPP@@UBE_NXZ 4290b52a f i ccm.obj
 0001:0000a53a       ?OptimalBlockSize@?$CFB_CipherTemplate@V?$AbstractPolicyHolder@VCFB_CipherAbstractPolicy@CryptoPP@@VSymmetricCipher@2@@CryptoPP@@@CryptoPP@@UBEIXZ 4290b53a f i ccm.obj
 0001:0000a54a       ?OptimalDataAlignment@?$AdditiveCipherTemplate@V?$AbstractPolicyHolder@UAdditiveCipherAbstractPolicy@CryptoPP@@VSymmetricCipher@2@@CryptoPP@@@CryptoPP@@UBEIXZ 4290b54a f i ccm.obj
 0001:0000a54a       ?OptimalDataAlignment@?$CFB_CipherTemplate@V?$AbstractPolicyHolder@VCFB_CipherAbstractPolicy@CryptoPP@@VSymmetricCipher@2@@CryptoPP@@@CryptoPP@@UBEIXZ 4290b54a f i ccm.obj
 0001:0000a55a       ?IncorporateEntropy@RandomNumberGenerator@CryptoPP@@UAEXPBEI@Z 4290b55a f i ccm.obj
 0001:0000a5b6       ?OptimalBlockSize@?$CFB_CipherTemplate@V?$AbstractPolicyHolder@VCFB_CipherAbstractPolicy@CryptoPP@@VCFB_ModePolicy@2@@CryptoPP@@@CryptoPP@@UBEIXZ 4290b5b6 f i ccm.obj
 0001:0000a5c6       ?OptimalDataAlignment@?$AdditiveCipherTemplate@V?$AbstractPolicyHolder@UAdditiveCipherAbstractPolicy@CryptoPP@@VOFB_ModePolicy@2@@CryptoPP@@@CryptoPP@@UBEIXZ 4290b5c6 f i ccm.obj
 0001:0000a5c6       ?OptimalDataAlignment@?$CFB_CipherTemplate@V?$AbstractPolicyHolder@VCFB_CipherAbstractPolicy@CryptoPP@@VCFB_ModePolicy@2@@CryptoPP@@@CryptoPP@@UBEIXZ 4290b5c6 f i ccm.obj
 0001:0000a5d6       ?OptimalBlockSize@?$AdditiveCipherTemplate@V?$AbstractPolicyHolder@UAdditiveCipherAbstractPolicy@CryptoPP@@VOFB_ModePolicy@2@@CryptoPP@@@CryptoPP@@UBEIXZ 4290b5d6 f i ccm.obj
 0001:0000a5e6       ?IsRandomAccess@?$AdditiveCipherTemplate@V?$AbstractPolicyHolder@UAdditiveCipherAbstractPolicy@CryptoPP@@VOFB_ModePolicy@2@@CryptoPP@@@CryptoPP@@UBE_NXZ 4290b5e6 f i ccm.obj
 0001:0000a5f6       ??1?$AbstractPolicyHolder@UAdditiveCipherAbstractPolicy@CryptoPP@@VOFB_ModePolicy@2@@CryptoPP@@UAE@XZ 4290b5f6 f i ccm.obj
 0001:0000a61c       ?OptimalBlockSize@?$AdditiveCipherTemplate@V?$AbstractPolicyHolder@UAdditiveCipherAbstractPolicy@CryptoPP@@VCTR_ModePolicy@2@@CryptoPP@@@CryptoPP@@UBEIXZ 4290b61c f i ccm.obj
 0001:0000a62c       ?OptimalDataAlignment@?$AdditiveCipherTemplate@V?$AbstractPolicyHolder@UAdditiveCipherAbstractPolicy@CryptoPP@@VCTR_ModePolicy@2@@CryptoPP@@@CryptoPP@@UBEIXZ 4290b62c f i ccm.obj
 0001:0000a63c       ?IsRandomAccess@?$AdditiveCipherTemplate@V?$AbstractPolicyHolder@UAdditiveCipherAbstractPolicy@CryptoPP@@VCTR_ModePolicy@2@@CryptoPP@@@CryptoPP@@UBE_NXZ 4290b63c f i ccm.obj
 0001:0000a64c       ??1?$AbstractPolicyHolder@UAdditiveCipherAbstractPolicy@CryptoPP@@VCTR_ModePolicy@2@@CryptoPP@@UAE@XZ 4290b64c f i ccm.obj
 0001:0000a685       ??0?$CipherModeFinalTemplate_ExternalCipher@V?$ConcretePolicyHolder@VEmpty@CryptoPP@@V?$AdditiveCipherTemplate@V?$AbstractPolicyHolder@UAdditiveCipherAbstractPolicy@CryptoPP@@VCTR_ModePolicy@2@@CryptoPP@@@2@UAdditiveCipherAbstractPolicy@2@@CryptoPP@@@CryptoPP@@QAE@XZ 4290b685 f i ccm.obj
 0001:0000a6ac       ?AlgorithmName@?$CipherModeFinalTemplate_ExternalCipher@V?$ConcretePolicyHolder@VEmpty@CryptoPP@@V?$AdditiveCipherTemplate@V?$AbstractPolicyHolder@UAdditiveCipherAbstractPolicy@CryptoPP@@VCTR_ModePolicy@2@@CryptoPP@@@2@UAdditiveCipherAbstractPolicy@2@@CryptoPP@@@CryptoPP@@UBE?AV?$basic_string@DU?$char_traits@D@std@@V?$allocator@D@2@@std@@XZ 4290b6ac f i ccm.obj
 0001:0000a7a2       ?AlgorithmName@?$CipherModeFinalTemplate_ExternalCipher@VECB_OneWay@CryptoPP@@@CryptoPP@@UBE?AV?$basic_string@DU?$char_traits@D@std@@V?$allocator@D@2@@std@@XZ 4290b7a2 f i ccm.obj
 0001:0000a898       ?AlgorithmName@?$CipherModeFinalTemplate_ExternalCipher@VCBC_Encryption@CryptoPP@@@CryptoPP@@UBE?AV?$basic_string@DU?$char_traits@D@std@@V?$allocator@D@2@@std@@XZ 4290b898 f i ccm.obj
 0001:0000a98e       ?AlgorithmName@?$CipherModeFinalTemplate_ExternalCipher@VCBC_Decryption@CryptoPP@@@CryptoPP@@UBE?AV?$basic_string@DU?$char_traits@D@std@@V?$allocator@D@2@@std@@XZ 4290b98e f i ccm.obj
 0001:0000aa84       ?AlgorithmName@?$CipherModeFinalTemplate_ExternalCipher@VCBC_CTS_Encryption@CryptoPP@@@CryptoPP@@UBE?AV?$basic_string@DU?$char_traits@D@std@@V?$allocator@D@2@@std@@XZ 4290ba84 f i ccm.obj
 0001:0000ab7a       ?AlgorithmName@?$CipherModeFinalTemplate_ExternalCipher@VCBC_CTS_Decryption@CryptoPP@@@CryptoPP@@UBE?AV?$basic_string@DU?$char_traits@D@std@@V?$allocator@D@2@@std@@XZ 4290bb7a f i ccm.obj
 0001:0000ac70       ??0?$ConcretePolicyHolder@VEmpty@CryptoPP@@V?$AdditiveCipherTemplate@V?$AbstractPolicyHolder@UAdditiveCipherAbstractPolicy@CryptoPP@@VCTR_ModePolicy@2@@CryptoPP@@@2@UAdditiveCipherAbstractPolicy@2@@CryptoPP@@QAE@XZ 4290bc70 f i ccm.obj
 0001:0000ac97       ?CipherSetKey@?$ModePolicyCommonTemplate@VCFB_CipherAbstractPolicy@CryptoPP@@@CryptoPP@@EAEXABVNameValuePairs@2@PBEI@Z 4290bc97 f i ccm.obj
 0001:0000ac97       ?CipherSetKey@?$ModePolicyCommonTemplate@UAdditiveCipherAbstractPolicy@CryptoPP@@@CryptoPP@@EAEXABVNameValuePairs@2@PBEI@Z 4290bc97 f i ccm.obj
 0001:0000ace4       ?IsAlignedOn@CryptoPP@@YA_NPBXI@Z 4290bce4 f i ccm.obj
 0001:0000ad32       ??_E?$CipherModeFinalTemplate_ExternalCipher@VCBC_CTS_Encryption@CryptoPP@@@CryptoPP@@W3AEPAXI@Z 4290bd32 f i ccm.obj
 0001:0000ad3a       ??_E?$ConcretePolicyHolder@VEmpty@CryptoPP@@V?$AdditiveCipherTemplate@V?$AbstractPolicyHolder@UAdditiveCipherAbstractPolicy@CryptoPP@@VCTR_ModePolicy@2@@CryptoPP@@@2@UAdditiveCipherAbstractPolicy@2@@CryptoPP@@W3AEPAXI@Z 4290bd3a f i ccm.obj
 0001:0000ad42       ??_E?$ConcretePolicyHolder@VEmpty@CryptoPP@@V?$AdditiveCipherTemplate@V?$AbstractPolicyHolder@UAdditiveCipherAbstractPolicy@CryptoPP@@VCTR_ModePolicy@2@@CryptoPP@@@2@UAdditiveCipherAbstractPolicy@2@@CryptoPP@@WBI@AEPAXI@Z 4290bd42 f i ccm.obj
 0001:0000ad4a       ??_E?$ConcretePolicyHolder@VEmpty@CryptoPP@@V?$AdditiveCipherTemplate@V?$AbstractPolicyHolder@UAdditiveCipherAbstractPolicy@CryptoPP@@VCTR_ModePolicy@2@@CryptoPP@@@2@UAdditiveCipherAbstractPolicy@2@@CryptoPP@@WCI@AEPAXI@Z 4290bd4a f i ccm.obj
 0001:0000ad52       ??_E?$CipherModeFinalTemplate_ExternalCipher@V?$ConcretePolicyHolder@VEmpty@CryptoPP@@V?$AdditiveCipherTemplate@V?$AbstractPolicyHolder@UAdditiveCipherAbstractPolicy@CryptoPP@@VCTR_ModePolicy@2@@CryptoPP@@@2@UAdditiveCipherAbstractPolicy@2@@CryptoPP@@@CryptoPP@@W3AEPAXI@Z 4290bd52 f i ccm.obj
 0001:0000ad5a       ??_E?$CipherModeFinalTemplate_ExternalCipher@V?$ConcretePolicyHolder@VEmpty@CryptoPP@@V?$AdditiveCipherTemplate@V?$AbstractPolicyHolder@UAdditiveCipherAbstractPolicy@CryptoPP@@VCTR_ModePolicy@2@@CryptoPP@@@2@UAdditiveCipherAbstractPolicy@2@@CryptoPP@@@CryptoPP@@WBI@AEPAXI@Z 4290bd5a f i ccm.obj
 0001:0000ad62       ??_E?$CipherModeFinalTemplate_ExternalCipher@V?$ConcretePolicyHolder@VEmpty@CryptoPP@@V?$AdditiveCipherTemplate@V?$AbstractPolicyHolder@UAdditiveCipherAbstractPolicy@CryptoPP@@VCTR_ModePolicy@2@@CryptoPP@@@2@UAdditiveCipherAbstractPolicy@2@@CryptoPP@@@CryptoPP@@WCI@AEPAXI@Z 4290bd62 f i ccm.obj
 0001:0000ad6a       ?AlgorithmName@?$CipherModeFinalTemplate_ExternalCipher@V?$ConcretePolicyHolder@VEmpty@CryptoPP@@V?$AdditiveCipherTemplate@V?$AbstractPolicyHolder@UAdditiveCipherAbstractPolicy@CryptoPP@@VCTR_ModePolicy@2@@CryptoPP@@@2@UAdditiveCipherAbstractPolicy@2@@CryptoPP@@@CryptoPP@@WCE@BE?AV?$basic_string@DU?$char_traits@D@std@@V?$allocator@D@2@@std@@XZ 4290bd6a f i ccm.obj
 0001:0000ad72       ??_E?$CipherModeFinalTemplate_ExternalCipher@VECB_OneWay@CryptoPP@@@CryptoPP@@W3AEPAXI@Z 4290bd72 f i ccm.obj
 0001:0000ad72       ??_E?$CipherModeFinalTemplate_ExternalCipher@VCBC_Encryption@CryptoPP@@@CryptoPP@@W3AEPAXI@Z 4290bd72 f i ccm.obj
 0001:0000ad7a       ??_E?$CipherModeFinalTemplate_ExternalCipher@VCBC_CTS_Decryption@CryptoPP@@@CryptoPP@@W3AEPAXI@Z 4290bd7a f i ccm.obj
 0001:0000ad82       ?ByteReverse@CryptoPP@@YAII@Z 4290bd82 f i ccm.obj
 0001:0000ada9       ??_E?$CipherModeFinalTemplate_ExternalCipher@VCBC_Decryption@CryptoPP@@@CryptoPP@@W3AEPAXI@Z 4290bda9 f i ccm.obj
 0001:0000adb1       ?ByteReverse@CryptoPP@@YA_K_K@Z 4290bdb1 f i ccm.obj
 0001:0000add8       ??0ChannelSwitch@CryptoPP@@QAE@XZ 4290bdd8 f i channels.obj
 0001:0000ae5f       ??0ChannelSwitch@CryptoPP@@QAE@AAVBufferedTransformation@1@@Z 4290be5f f i channels.obj
 0001:0000aef5       ??0ChannelSwitch@CryptoPP@@QAE@AAVBufferedTransformation@1@ABV?$basic_string@DU?$char_traits@D@std@@V?$allocator@D@2@@std@@@Z 4290bef5 f i channels.obj
 0001:0000af8e       ??0ChannelSwitch@CryptoPP@@QAE@ABV01@@Z 4290bf8e f i channels.obj
 0001:0000b028       ??1ChannelSwitch@CryptoPP@@UAE@XZ 4290c028 f i channels.obj
 0001:0000b06f       ??_EChannelSwitch@CryptoPP@@UAEPAXI@Z 4290c06f f i channels.obj
 0001:0000b0ba       ??1?$multimap@V?$basic_string@DU?$char_traits@D@std@@V?$allocator@D@2@@std@@U?$pair@PAVBufferedTransformation@CryptoPP@@V?$basic_string@DU?$char_traits@D@std@@V?$allocator@D@2@@std@@@2@U?$less@V?$basic_string@DU?$char_traits@D@std@@V?$allocator@D@2@@std@@@2@V?$allocator@U?$pair@PAVBufferedTransformation@CryptoPP@@V?$basic_string@DU?$char_traits@D@std@@V?$allocator@D@2@@std@@@std@@@2@@std@@QAE@XZ 4290c0ba f i channels.obj
 0001:0000b0bf       ??0ChannelRouteIterator@CryptoPP@@QAE@ABV01@@Z 4290c0bf f i channels.obj
 0001:0000b11a       ?Reset@ChannelRouteIterator@CryptoPP@@QAEXABV?$basic_string@DU?$char_traits@D@std@@V?$allocator@D@2@@std@@@Z 4290c11a f   channels.obj
 0001:0000b177       ?End@ChannelRouteIterator@CryptoPP@@QBE_NXZ 4290c177 f   channels.obj
 0001:0000b18f       ?Next@ChannelRouteIterator@CryptoPP@@QAEXXZ 4290c18f f   channels.obj
 0001:0000b1a6       ?Destination@ChannelRouteIterator@CryptoPP@@QAEAAVBufferedTransformation@2@XZ 4290c1a6 f   channels.obj
 0001:0000b1ba       ?Channel@ChannelRouteIterator@CryptoPP@@QAEABV?$basic_string@DU?$char_traits@D@std@@V?$allocator@D@2@@std@@XZ 4290c1ba f   channels.obj
 0001:0000b1d5       ?ChannelPut2@ChannelSwitch@CryptoPP@@UAEIABV?$basic_string@DU?$char_traits@D@std@@V?$allocator@D@2@@std@@PBEIH_N@Z 4290c1d5 f   channels.obj
 0001:0000b24b       ?IsolatedInitialize@ChannelSwitch@CryptoPP@@UAEXABVNameValuePairs@2@@Z 4290c24b f   channels.obj
 0001:0000b266       ?ChannelFlush@ChannelSwitch@CryptoPP@@UAE_NABV?$basic_string@DU?$char_traits@D@std@@V?$allocator@D@2@@std@@_NH1@Z 4290c266 f   channels.obj
 0001:0000b2d9       ?ChannelMessageSeriesEnd@ChannelSwitch@CryptoPP@@UAE_NABV?$basic_string@DU?$char_traits@D@std@@V?$allocator@D@2@@std@@H_N@Z 4290c2d9 f   channels.obj
 0001:0000b348       ?ChannelCreatePutSpace@ChannelSwitch@CryptoPP@@UAEPAEABV?$basic_string@DU?$char_traits@D@std@@V?$allocator@D@2@@std@@AAI@Z 4290c348 f   channels.obj
 0001:0000b3a8       ?ChannelPutModifiable2@ChannelSwitch@CryptoPP@@UAEIABV?$basic_string@DU?$char_traits@D@std@@V?$allocator@D@2@@std@@PAEIH_N@Z 4290c3a8 f   channels.obj
 0001:0000b487       ?AddDefaultRoute@ChannelSwitch@CryptoPP@@QAEXAAVBufferedTransformation@2@@Z 4290c487 f   channels.obj
 0001:0000b4f0       ??1?$value_ptr@V?$basic_string@DU?$char_traits@D@std@@V?$allocator@D@2@@std@@@CryptoPP@@QAE@XZ 4290c4f0 f i channels.obj
 0001:0000b4f5       ??1?$pair@PAVBufferedTransformation@CryptoPP@@V?$value_ptr@V?$basic_string@DU?$char_traits@D@std@@V?$allocator@D@2@@std@@@2@@std@@QAE@XZ 4290c4f5 f i channels.obj
 0001:0000b4fd       ?RemoveDefaultRoute@ChannelSwitch@CryptoPP@@QAEXAAVBufferedTransformation@2@@Z 4290c4fd f   channels.obj
 0001:0000b52e       ?AddDefaultRoute@ChannelSwitch@CryptoPP@@QAEXAAVBufferedTransformation@2@ABV?$basic_string@DU?$char_traits@D@std@@V?$allocator@D@2@@std@@@Z 4290c52e f   channels.obj
 0001:0000b59d       ?RemoveDefaultRoute@ChannelSwitch@CryptoPP@@QAEXAAVBufferedTransformation@2@ABV?$basic_string@DU?$char_traits@D@std@@V?$allocator@D@2@@std@@@Z 4290c59d f   channels.obj
 0001:0000b5e4       ?AddRoute@ChannelSwitch@CryptoPP@@QAEXABV?$basic_string@DU?$char_traits@D@std@@V?$allocator@D@2@@std@@AAVBufferedTransformation@2@0@Z 4290c5e4 f   channels.obj
 0001:0000b66c       ??1?$pair@PAVBufferedTransformation@CryptoPP@@V?$basic_string@DU?$char_traits@D@std@@V?$allocator@D@2@@std@@@std@@QAE@XZ 4290c66c f i channels.obj
 0001:0000b66c       ??1ChannelRouteIterator@CryptoPP@@QAE@XZ 4290c66c f i channels.obj
 0001:0000b677       ??1?$pair@$$CBV?$basic_string@DU?$char_traits@D@std@@V?$allocator@D@2@@std@@U?$pair@PAVBufferedTransformation@CryptoPP@@V?$basic_string@DU?$char_traits@D@std@@V?$allocator@D@2@@std@@@2@@std@@QAE@XZ 4290c677 f i channels.obj
 0001:0000b6b0       ?RemoveRoute@ChannelSwitch@CryptoPP@@QAEXABV?$basic_string@DU?$char_traits@D@std@@V?$allocator@D@2@@std@@AAVBufferedTransformation@2@0@Z 4290c6b0 f   channels.obj
 0001:0000b715       ??1?$_Tree@V?$basic_string@DU?$char_traits@D@std@@V?$allocator@D@2@@std@@U?$pair@$$CBV?$basic_string@DU?$char_traits@D@std@@V?$allocator@D@2@@std@@U?$pair@PAVBufferedTransformation@CryptoPP@@V?$basic_string@DU?$char_traits@D@std@@V?$allocator@D@2@@std@@@2@@2@U_Kfn@?$multimap@V?$basic_string@DU?$char_traits@D@std@@V?$allocator@D@2@@std@@U?$pair@PAVBufferedTransformation@CryptoPP@@V?$basic_string@DU?$char_traits@D@std@@V?$allocator@D@2@@std@@@2@U?$less@V?$basic_string@DU?$char_traits@D@std@@V?$allocator@D@2@@std@@@2@V?$allocator@U?$pair@PAVBufferedTransformation@CryptoPP@@V?$basic_string@DU?$char_traits@D@std@@V?$allocator@D@2@@std@@@std@@@2@@2@U?$less@V?$basic_string@DU?$char_traits@D@std@@V?$allocator@D@2@@std@@@2@V?$allocator@U?$pair@PAVBufferedTransformation@CryptoPP@@V?$basic_string@DU?$char_traits@D@std@@V?$allocator@D@2@@std@@@std@@@2@@std@@QAE@XZ 4290c715 f i channels.obj
 0001:0000b774       ??0?$pair@$$CBV?$basic_string@DU?$char_traits@D@std@@V?$allocator@D@2@@std@@U?$pair@PAVBufferedTransformation@CryptoPP@@V?$basic_string@DU?$char_traits@D@std@@V?$allocator@D@2@@std@@@2@@std@@QAE@ABV?$basic_string@DU?$char_traits@D@std@@V?$allocator@D@2@@1@ABU?$pair@PAVBufferedTransformation@CryptoPP@@V?$basic_string@DU?$char_traits@D@std@@V?$allocator@D@2@@std@@@1@@Z 4290c774 f i channels.obj
 0001:0000b7c5       ??0?$list@U?$pair@PAVBufferedTransformation@CryptoPP@@V?$value_ptr@V?$basic_string@DU?$char_traits@D@std@@V?$allocator@D@2@@std@@@2@@std@@V?$allocator@U?$pair@PAVBufferedTransformation@CryptoPP@@V?$value_ptr@V?$basic_string@DU?$char_traits@D@std@@V?$allocator@D@2@@std@@@2@@std@@@2@@std@@QAE@ABV01@@Z 4290c7c5 f i channels.obj
 0001:0000b811       ??1?$list@U?$pair@PAVBufferedTransformation@CryptoPP@@V?$value_ptr@V?$basic_string@DU?$char_traits@D@std@@V?$allocator@D@2@@std@@@2@@std@@V?$allocator@U?$pair@PAVBufferedTransformation@CryptoPP@@V?$value_ptr@V?$basic_string@DU?$char_traits@D@std@@V?$allocator@D@2@@std@@@2@@std@@@2@@std@@QAE@XZ 4290c811 f i channels.obj
 0001:0000b849       ?erase@?$list@U?$pair@PAVBufferedTransformation@CryptoPP@@V?$value_ptr@V?$basic_string@DU?$char_traits@D@std@@V?$allocator@D@2@@std@@@2@@std@@V?$allocator@U?$pair@PAVBufferedTransformation@CryptoPP@@V?$value_ptr@V?$basic_string@DU?$char_traits@D@std@@V?$allocator@D@2@@std@@@2@@std@@@2@@std@@QAE?AViterator@12@V312@@Z 4290c849 f i channels.obj
 0001:0000b881       ?clear@?$list@U?$pair@PAVBufferedTransformation@CryptoPP@@V?$value_ptr@V?$basic_string@DU?$char_traits@D@std@@V?$allocator@D@2@@std@@@2@@std@@V?$allocator@U?$pair@PAVBufferedTransformation@CryptoPP@@V?$value_ptr@V?$basic_string@DU?$char_traits@D@std@@V?$allocator@D@2@@std@@@2@@std@@@2@@std@@QAEXXZ 4290c881 f i channels.obj
 0001:0000b8a8       ??0?$value_ptr@V?$basic_string@DU?$char_traits@D@std@@V?$allocator@D@2@@std@@@CryptoPP@@QAE@ABV?$basic_string@DU?$char_traits@D@std@@V?$allocator@D@2@@std@@@Z 4290c8a8 f i channels.obj
 0001:0000b907       ?MessageSeriesEnd@?$Multichannel@VSink@CryptoPP@@@CryptoPP@@UAE_NH_N@Z 4290c907 f i channels.obj
 0001:0000b907       ?MessageSeriesEnd@?$Multichannel@VFilter@CryptoPP@@@CryptoPP@@UAE_NH_N@Z 4290c907 f i channels.obj
 0001:0000b91f       ?CreatePutSpace@?$Multichannel@VSink@CryptoPP@@@CryptoPP@@UAEPAEAAI@Z 4290c91f f i channels.obj
 0001:0000b91f       ?CreatePutSpace@?$Multichannel@VFilter@CryptoPP@@@CryptoPP@@UAEPAEAAI@Z 4290c91f f i channels.obj
 0001:0000b933       ?PutModifiable2@?$Multichannel@VFilter@CryptoPP@@@CryptoPP@@UAEIPAEIH_N@Z 4290c933 f i channels.obj
 0001:0000b933       ?PutModifiable2@?$Multichannel@VSink@CryptoPP@@@CryptoPP@@UAEIPAEIH_N@Z 4290c933 f i channels.obj
 0001:0000b953       ??0?$pair@PAVBufferedTransformation@CryptoPP@@V?$basic_string@DU?$char_traits@D@std@@V?$allocator@D@2@@std@@@std@@QAE@ABU01@@Z 4290c953 f i channels.obj
 0001:0000b98b       ?insert@?$_Tree@V?$basic_string@DU?$char_traits@D@std@@V?$allocator@D@2@@std@@U?$pair@$$CBV?$basic_string@DU?$char_traits@D@std@@V?$allocator@D@2@@std@@U?$pair@PAVBufferedTransformation@CryptoPP@@V?$basic_string@DU?$char_traits@D@std@@V?$allocator@D@2@@std@@@2@@2@U_Kfn@?$multimap@V?$basic_string@DU?$char_traits@D@std@@V?$allocator@D@2@@std@@U?$pair@PAVBufferedTransformation@CryptoPP@@V?$basic_string@DU?$char_traits@D@std@@V?$allocator@D@2@@std@@@2@U?$less@V?$basic_string@DU?$char_traits@D@std@@V?$allocator@D@2@@std@@@2@V?$allocator@U?$pair@PAVBufferedTransformation@CryptoPP@@V?$basic_string@DU?$char_traits@D@std@@V?$allocator@D@2@@std@@@std@@@2@@2@U?$less@V?$basic_string@DU?$char_traits@D@std@@V?$allocator@D@2@@std@@@2@V?$allocator@U?$pair@PAVBufferedTransformation@CryptoPP@@V?$basic_string@DU?$char_traits@D@std@@V?$allocator@D@2@@std@@@std@@@2@@std@@QAE?AU?$pair@Viterator@?$_Tree@V?$basic_string@DU?$char_traits@D@std@@V?$allocator@D@2@@std@@U?$pair@$$CBV?$basic_string@DU?$char_traits@D@std@@V?$allocator@D@2@@std@@U?$pair@PAVBufferedTransformation@CryptoPP@@V?$basic_string@DU?$char_traits@D@std@@V?$allocator@D@2@@std@@@2@@2@U_Kfn@?$multimap@V?$basic_string@DU?$char_traits@D@std@@V?$allocator@D@2@@std@@U?$pair@PAVBufferedTransformation@CryptoPP@@V?$basic_string@DU?$char_traits@D@std@@V?$allocator@D@2@@std@@@2@U?$less@V?$basic_string@DU?$char_traits@D@std@@V?$allocator@D@2@@std@@@2@V?$allocator@U?$pair@PAVBufferedTransformation@CryptoPP@@V?$basic_string@DU?$char_traits@D@std@@V?$allocator@D@2@@std@@@std@@@2@@2@U?$less@V?$basic_string@DU?$char_traits@D@std@@V?$allocator@D@2@@std@@@2@V?$allocator@U?$pair@PAVBufferedTransformation@CryptoPP@@V?$basic_string@DU?$char_traits@D@std@@V?$allocator@D@2@@std@@@std@@@2@@std@@_N@2@ABU?$pair@$$CBV?$basic_string@DU?$char_traits@D@std@@V?$allocator@D@2@@std@@U?$pair@PAVBufferedTransformation@CryptoPP@@V?$basic_string@DU?$char_traits@D@std@@V?$allocator@D@2@@std@@@2@@2@@Z 4290c98b f i channels.obj
 0001:0000ba6e       ?erase@?$_Tree@V?$basic_string@DU?$char_traits@D@std@@V?$allocator@D@2@@std@@U?$pair@$$CBV?$basic_string@DU?$char_traits@D@std@@V?$allocator@D@2@@std@@U?$pair@PAVBufferedTransformation@CryptoPP@@V?$basic_string@DU?$char_traits@D@std@@V?$allocator@D@2@@std@@@2@@2@U_Kfn@?$multimap@V?$basic_string@DU?$char_traits@D@std@@V?$allocator@D@2@@std@@U?$pair@PAVBufferedTransformation@CryptoPP@@V?$basic_string@DU?$char_traits@D@std@@V?$allocator@D@2@@std@@@2@U?$less@V?$basic_string@DU?$char_traits@D@std@@V?$allocator@D@2@@std@@@2@V?$allocator@U?$pair@PAVBufferedTransformation@CryptoPP@@V?$basic_string@DU?$char_traits@D@std@@V?$allocator@D@2@@std@@@std@@@2@@2@U?$less@V?$basic_string@DU?$char_traits@D@std@@V?$allocator@D@2@@std@@@2@V?$allocator@U?$pair@PAVBufferedTransformation@CryptoPP@@V?$basic_string@DU?$char_traits@D@std@@V?$allocator@D@2@@std@@@std@@@2@@std@@QAE?AViterator@12@V312@@Z 4290ca6e f i channels.obj
 0001:0000bd0c       ?erase@?$_Tree@V?$basic_string@DU?$char_traits@D@std@@V?$allocator@D@2@@std@@U?$pair@$$CBV?$basic_string@DU?$char_traits@D@std@@V?$allocator@D@2@@std@@U?$pair@PAVBufferedTransformation@CryptoPP@@V?$basic_string@DU?$char_traits@D@std@@V?$allocator@D@2@@std@@@2@@2@U_Kfn@?$multimap@V?$basic_string@DU?$char_traits@D@std@@V?$allocator@D@2@@std@@U?$pair@PAVBufferedTransformation@CryptoPP@@V?$basic_string@DU?$char_traits@D@std@@V?$allocator@D@2@@std@@@2@U?$less@V?$basic_string@DU?$char_traits@D@std@@V?$allocator@D@2@@std@@@2@V?$allocator@U?$pair@PAVBufferedTransformation@CryptoPP@@V?$basic_string@DU?$char_traits@D@std@@V?$allocator@D@2@@std@@@std@@@2@@2@U?$less@V?$basic_string@DU?$char_traits@D@std@@V?$allocator@D@2@@std@@@2@V?$allocator@U?$pair@PAVBufferedTransformation@CryptoPP@@V?$basic_string@DU?$char_traits@D@std@@V?$allocator@D@2@@std@@@std@@@2@@std@@QAE?AViterator@12@V312@0@Z 4290cd0c f i channels.obj
 0001:0000bd83       ?clear@?$_Tree@V?$basic_string@DU?$char_traits@D@std@@V?$allocator@D@2@@std@@U?$pair@$$CBV?$basic_string@DU?$char_traits@D@std@@V?$allocator@D@2@@std@@U?$pair@PAVBufferedTransformation@CryptoPP@@V?$basic_string@DU?$char_traits@D@std@@V?$allocator@D@2@@std@@@2@@2@U_Kfn@?$multimap@V?$basic_string@DU?$char_traits@D@std@@V?$allocator@D@2@@std@@U?$pair@PAVBufferedTransformation@CryptoPP@@V?$basic_string@DU?$char_traits@D@std@@V?$allocator@D@2@@std@@@2@U?$less@V?$basic_string@DU?$char_traits@D@std@@V?$allocator@D@2@@std@@@2@V?$allocator@U?$pair@PAVBufferedTransformation@CryptoPP@@V?$basic_string@DU?$char_traits@D@std@@V?$allocator@D@2@@std@@@std@@@2@@2@U?$less@V?$basic_string@DU?$char_traits@D@std@@V?$allocator@D@2@@std@@@2@V?$allocator@U?$pair@PAVBufferedTransformation@CryptoPP@@V?$basic_string@DU?$char_traits@D@std@@V?$allocator@D@2@@std@@@std@@@2@@std@@QAEXXZ 4290cd83 f i channels.obj
 0001:0000bd97       ?_Copy@?$_Tree@V?$basic_string@DU?$char_traits@D@std@@V?$allocator@D@2@@std@@U?$pair@$$CBV?$basic_string@DU?$char_traits@D@std@@V?$allocator@D@2@@std@@U?$pair@PAVBufferedTransformation@CryptoPP@@V?$basic_string@DU?$char_traits@D@std@@V?$allocator@D@2@@std@@@2@@2@U_Kfn@?$multimap@V?$basic_string@DU?$char_traits@D@std@@V?$allocator@D@2@@std@@U?$pair@PAVBufferedTransformation@CryptoPP@@V?$basic_string@DU?$char_traits@D@std@@V?$allocator@D@2@@std@@@2@U?$less@V?$basic_string@DU?$char_traits@D@std@@V?$allocator@D@2@@std@@@2@V?$allocator@U?$pair@PAVBufferedTransformation@CryptoPP@@V?$basic_string@DU?$char_traits@D@std@@V?$allocator@D@2@@std@@@std@@@2@@2@U?$less@V?$basic_string@DU?$char_traits@D@std@@V?$allocator@D@2@@std@@@2@V?$allocator@U?$pair@PAVBufferedTransformation@CryptoPP@@V?$basic_string@DU?$char_traits@D@std@@V?$allocator@D@2@@std@@@std@@@2@@std@@IAEXABV12@@Z 4290cd97 f i channels.obj
 0001:0000be01       ?_Init@?$_Tree@V?$basic_string@DU?$char_traits@D@std@@V?$allocator@D@2@@std@@U?$pair@$$CBV?$basic_string@DU?$char_traits@D@std@@V?$allocator@D@2@@std@@U?$pair@PAVBufferedTransformation@CryptoPP@@V?$basic_string@DU?$char_traits@D@std@@V?$allocator@D@2@@std@@@2@@2@U_Kfn@?$multimap@V?$basic_string@DU?$char_traits@D@std@@V?$allocator@D@2@@std@@U?$pair@PAVBufferedTransformation@CryptoPP@@V?$basic_string@DU?$char_traits@D@std@@V?$allocator@D@2@@std@@@2@U?$less@V?$basic_string@DU?$char_traits@D@std@@V?$allocator@D@2@@std@@@2@V?$allocator@U?$pair@PAVBufferedTransformation@CryptoPP@@V?$basic_string@DU?$char_traits@D@std@@V?$allocator@D@2@@std@@@std@@@2@@2@U?$less@V?$basic_string@DU?$char_traits@D@std@@V?$allocator@D@2@@std@@@2@V?$allocator@U?$pair@PAVBufferedTransformation@CryptoPP@@V?$basic_string@DU?$char_traits@D@std@@V?$allocator@D@2@@std@@@std@@@2@@std@@IAEXXZ 4290ce01 f i channels.obj
 0001:0000be8a       ?_Inc@const_iterator@?$_Tree@V?$basic_string@DU?$char_traits@D@std@@V?$allocator@D@2@@std@@U?$pair@$$CBV?$basic_string@DU?$char_traits@D@std@@V?$allocator@D@2@@std@@U?$pair@PAVBufferedTransformation@CryptoPP@@V?$basic_string@DU?$char_traits@D@std@@V?$allocator@D@2@@std@@@2@@2@U_Kfn@?$multimap@V?$basic_string@DU?$char_traits@D@std@@V?$allocator@D@2@@std@@U?$pair@PAVBufferedTransformation@CryptoPP@@V?$basic_string@DU?$char_traits@D@std@@V?$allocator@D@2@@std@@@2@U?$less@V?$basic_string@DU?$char_traits@D@std@@V?$allocator@D@2@@std@@@2@V?$allocator@U?$pair@PAVBufferedTransformation@CryptoPP@@V?$basic_string@DU?$char_traits@D@std@@V?$allocator@D@2@@std@@@std@@@2@@2@U?$less@V?$basic_string@DU?$char_traits@D@std@@V?$allocator@D@2@@std@@@2@V?$allocator@U?$pair@PAVBufferedTransformation@CryptoPP@@V?$basic_string@DU?$char_traits@D@std@@V?$allocator@D@2@@std@@@std@@@2@@std@@QAEXXZ 4290ce8a f i channels.obj
 0001:0000bec0       ?insert@?$list@U?$pair@PAVBufferedTransformation@CryptoPP@@V?$value_ptr@V?$basic_string@DU?$char_traits@D@std@@V?$allocator@D@2@@std@@@2@@std@@V?$allocator@U?$pair@PAVBufferedTransformation@CryptoPP@@V?$value_ptr@V?$basic_string@DU?$char_traits@D@std@@V?$allocator@D@2@@std@@@2@@std@@@2@@std@@QAE?AViterator@12@V312@ABU?$pair@PAVBufferedTransformation@CryptoPP@@V?$value_ptr@V?$basic_string@DU?$char_traits@D@std@@V?$allocator@D@2@@std@@@2@@2@@Z 4290cec0 f i channels.obj
 0001:0000befa       ?_Buynode@?$list@U?$pair@PAVBufferedTransformation@CryptoPP@@V?$value_ptr@V?$basic_string@DU?$char_traits@D@std@@V?$allocator@D@2@@std@@@2@@std@@V?$allocator@U?$pair@PAVBufferedTransformation@CryptoPP@@V?$value_ptr@V?$basic_string@DU?$char_traits@D@std@@V?$allocator@D@2@@std@@@2@@std@@@2@@std@@IAEPAU_Node@12@PAU312@0@Z 4290cefa f i channels.obj
 0001:0000bf1e       ??0?$value_ptr@V?$basic_string@DU?$char_traits@D@std@@V?$allocator@D@2@@std@@@CryptoPP@@QAE@ABV01@@Z 4290cf1e f i channels.obj
 0001:0000bf81       ?lower_bound@?$_Tree@V?$basic_string@DU?$char_traits@D@std@@V?$allocator@D@2@@std@@U?$pair@$$CBV?$basic_string@DU?$char_traits@D@std@@V?$allocator@D@2@@std@@U?$pair@PAVBufferedTransformation@CryptoPP@@V?$basic_string@DU?$char_traits@D@std@@V?$allocator@D@2@@std@@@2@@2@U_Kfn@?$multimap@V?$basic_string@DU?$char_traits@D@std@@V?$allocator@D@2@@std@@U?$pair@PAVBufferedTransformation@CryptoPP@@V?$basic_string@DU?$char_traits@D@std@@V?$allocator@D@2@@std@@@2@U?$less@V?$basic_string@DU?$char_traits@D@std@@V?$allocator@D@2@@std@@@2@V?$allocator@U?$pair@PAVBufferedTransformation@CryptoPP@@V?$basic_string@DU?$char_traits@D@std@@V?$allocator@D@2@@std@@@std@@@2@@2@U?$less@V?$basic_string@DU?$char_traits@D@std@@V?$allocator@D@2@@std@@@2@V?$allocator@U?$pair@PAVBufferedTransformation@CryptoPP@@V?$basic_string@DU?$char_traits@D@std@@V?$allocator@D@2@@std@@@std@@@2@@std@@QAE?AViterator@12@ABV?$basic_string@DU?$char_traits@D@std@@V?$allocator@D@2@@2@@Z 4290cf81 f i channels.obj
 0001:0000bf95       ?_Copy@?$_Tree@V?$basic_string@DU?$char_traits@D@std@@V?$allocator@D@2@@std@@U?$pair@$$CBV?$basic_string@DU?$char_traits@D@std@@V?$allocator@D@2@@std@@U?$pair@PAVBufferedTransformation@CryptoPP@@V?$basic_string@DU?$char_traits@D@std@@V?$allocator@D@2@@std@@@2@@2@U_Kfn@?$multimap@V?$basic_string@DU?$char_traits@D@std@@V?$allocator@D@2@@std@@U?$pair@PAVBufferedTransformation@CryptoPP@@V?$basic_string@DU?$char_traits@D@std@@V?$allocator@D@2@@std@@@2@U?$less@V?$basic_string@DU?$char_traits@D@std@@V?$allocator@D@2@@std@@@2@V?$allocator@U?$pair@PAVBufferedTransformation@CryptoPP@@V?$basic_string@DU?$char_traits@D@std@@V?$allocator@D@2@@std@@@std@@@2@@2@U?$less@V?$basic_string@DU?$char_traits@D@std@@V?$allocator@D@2@@std@@@2@V?$allocator@U?$pair@PAVBufferedTransformation@CryptoPP@@V?$basic_string@DU?$char_traits@D@std@@V?$allocator@D@2@@std@@@std@@@2@@std@@IAEPAU_Node@12@PAU312@0@Z 4290cf95 f i channels.obj
 0001:0000c010       ?_Erase@?$_Tree@V?$basic_string@DU?$char_traits@D@std@@V?$allocator@D@2@@std@@U?$pair@$$CBV?$basic_string@DU?$char_traits@D@std@@V?$allocator@D@2@@std@@U?$pair@PAVBufferedTransformation@CryptoPP@@V?$basic_string@DU?$char_traits@D@std@@V?$allocator@D@2@@std@@@2@@2@U_Kfn@?$multimap@V?$basic_string@DU?$char_traits@D@std@@V?$allocator@D@2@@std@@U?$pair@PAVBufferedTransformation@CryptoPP@@V?$basic_string@DU?$char_traits@D@std@@V?$allocator@D@2@@std@@@2@U?$less@V?$basic_string@DU?$char_traits@D@std@@V?$allocator@D@2@@std@@@2@V?$allocator@U?$pair@PAVBufferedTransformation@CryptoPP@@V?$basic_string@DU?$char_traits@D@std@@V?$allocator@D@2@@std@@@std@@@2@@2@U?$less@V?$basic_string@DU?$char_traits@D@std@@V?$allocator@D@2@@std@@@2@V?$allocator@U?$pair@PAVBufferedTransformation@CryptoPP@@V?$basic_string@DU?$char_traits@D@std@@V?$allocator@D@2@@std@@@std@@@2@@std@@IAEXPAU_Node@12@@Z 4290d010 f i channels.obj
 0001:0000c04e       ?_Insert@?$_Tree@V?$basic_string@DU?$char_traits@D@std@@V?$allocator@D@2@@std@@U?$pair@$$CBV?$basic_string@DU?$char_traits@D@std@@V?$allocator@D@2@@std@@U?$pair@PAVBufferedTransformation@CryptoPP@@V?$basic_string@DU?$char_traits@D@std@@V?$allocator@D@2@@std@@@2@@2@U_Kfn@?$multimap@V?$basic_string@DU?$char_traits@D@std@@V?$allocator@D@2@@std@@U?$pair@PAVBufferedTransformation@CryptoPP@@V?$basic_string@DU?$char_traits@D@std@@V?$allocator@D@2@@std@@@2@U?$less@V?$basic_string@DU?$char_traits@D@std@@V?$allocator@D@2@@std@@@2@V?$allocator@U?$pair@PAVBufferedTransformation@CryptoPP@@V?$basic_string@DU?$char_traits@D@std@@V?$allocator@D@2@@std@@@std@@@2@@2@U?$less@V?$basic_string@DU?$char_traits@D@std@@V?$allocator@D@2@@std@@@2@V?$allocator@U?$pair@PAVBufferedTransformation@CryptoPP@@V?$basic_string@DU?$char_traits@D@std@@V?$allocator@D@2@@std@@@std@@@2@@std@@IAE?AViterator@12@PAU_Node@12@0ABU?$pair@$$CBV?$basic_string@DU?$char_traits@D@std@@V?$allocator@D@2@@std@@U?$pair@PAVBufferedTransformation@CryptoPP@@V?$basic_string@DU?$char_traits@D@std@@V?$allocator@D@2@@std@@@2@@2@@Z 4290d04e f i channels.obj
 0001:0000c1a5       ?_Lrotate@?$_Tree@V?$basic_string@DU?$char_traits@D@std@@V?$allocator@D@2@@std@@U?$pair@$$CBV?$basic_string@DU?$char_traits@D@std@@V?$allocator@D@2@@std@@U?$pair@PAVBufferedTransformation@CryptoPP@@V?$basic_string@DU?$char_traits@D@std@@V?$allocator@D@2@@std@@@2@@2@U_Kfn@?$multimap@V?$basic_string@DU?$char_traits@D@std@@V?$allocator@D@2@@std@@U?$pair@PAVBufferedTransformation@CryptoPP@@V?$basic_string@DU?$char_traits@D@std@@V?$allocator@D@2@@std@@@2@U?$less@V?$basic_string@DU?$char_traits@D@std@@V?$allocator@D@2@@std@@@2@V?$allocator@U?$pair@PAVBufferedTransformation@CryptoPP@@V?$basic_string@DU?$char_traits@D@std@@V?$allocator@D@2@@std@@@std@@@2@@2@U?$less@V?$basic_string@DU?$char_traits@D@std@@V?$allocator@D@2@@std@@@2@V?$allocator@U?$pair@PAVBufferedTransformation@CryptoPP@@V?$basic_string@DU?$char_traits@D@std@@V?$allocator@D@2@@std@@@std@@@2@@std@@IAEXPAU_Node@12@@Z 4290d1a5 f i channels.obj
 0001:0000c1e9       ?_Rrotate@?$_Tree@V?$basic_string@DU?$char_traits@D@std@@V?$allocator@D@2@@std@@U?$pair@$$CBV?$basic_string@DU?$char_traits@D@std@@V?$allocator@D@2@@std@@U?$pair@PAVBufferedTransformation@CryptoPP@@V?$basic_string@DU?$char_traits@D@std@@V?$allocator@D@2@@std@@@2@@2@U_Kfn@?$multimap@V?$basic_string@DU?$char_traits@D@std@@V?$allocator@D@2@@std@@U?$pair@PAVBufferedTransformation@CryptoPP@@V?$basic_string@DU?$char_traits@D@std@@V?$allocator@D@2@@std@@@2@U?$less@V?$basic_string@DU?$char_traits@D@std@@V?$allocator@D@2@@std@@@2@V?$allocator@U?$pair@PAVBufferedTransformation@CryptoPP@@V?$basic_string@DU?$char_traits@D@std@@V?$allocator@D@2@@std@@@std@@@2@@2@U?$less@V?$basic_string@DU?$char_traits@D@std@@V?$allocator@D@2@@std@@@2@V?$allocator@U?$pair@PAVBufferedTransformation@CryptoPP@@V?$basic_string@DU?$char_traits@D@std@@V?$allocator@D@2@@std@@@std@@@2@@std@@IAEXPAU_Node@12@@Z 4290d1e9 f i channels.obj
 0001:0000c22f       ?_Lbound@?$_Tree@V?$basic_string@DU?$char_traits@D@std@@V?$allocator@D@2@@std@@U?$pair@$$CBV?$basic_string@DU?$char_traits@D@std@@V?$allocator@D@2@@std@@U?$pair@PAVBufferedTransformation@CryptoPP@@V?$basic_string@DU?$char_traits@D@std@@V?$allocator@D@2@@std@@@2@@2@U_Kfn@?$multimap@V?$basic_string@DU?$char_traits@D@std@@V?$allocator@D@2@@std@@U?$pair@PAVBufferedTransformation@CryptoPP@@V?$basic_string@DU?$char_traits@D@std@@V?$allocator@D@2@@std@@@2@U?$less@V?$basic_string@DU?$char_traits@D@std@@V?$allocator@D@2@@std@@@2@V?$allocator@U?$pair@PAVBufferedTransformation@CryptoPP@@V?$basic_string@DU?$char_traits@D@std@@V?$allocator@D@2@@std@@@std@@@2@@2@U?$less@V?$basic_string@DU?$char_traits@D@std@@V?$allocator@D@2@@std@@@2@V?$allocator@U?$pair@PAVBufferedTransformation@CryptoPP@@V?$basic_string@DU?$char_traits@D@std@@V?$allocator@D@2@@std@@@std@@@2@@std@@IBEPAU_Node@12@ABV?$basic_string@DU?$char_traits@D@std@@V?$allocator@D@2@@2@@Z 4290d22f f i channels.obj
 0001:0000c263       ?_Ubound@?$_Tree@V?$basic_string@DU?$char_traits@D@std@@V?$allocator@D@2@@std@@U?$pair@$$CBV?$basic_string@DU?$char_traits@D@std@@V?$allocator@D@2@@std@@U?$pair@PAVBufferedTransformation@CryptoPP@@V?$basic_string@DU?$char_traits@D@std@@V?$allocator@D@2@@std@@@2@@2@U_Kfn@?$multimap@V?$basic_string@DU?$char_traits@D@std@@V?$allocator@D@2@@std@@U?$pair@PAVBufferedTransformation@CryptoPP@@V?$basic_string@DU?$char_traits@D@std@@V?$allocator@D@2@@std@@@2@U?$less@V?$basic_string@DU?$char_traits@D@std@@V?$allocator@D@2@@std@@@2@V?$allocator@U?$pair@PAVBufferedTransformation@CryptoPP@@V?$basic_string@DU?$char_traits@D@std@@V?$allocator@D@2@@std@@@std@@@2@@2@U?$less@V?$basic_string@DU?$char_traits@D@std@@V?$allocator@D@2@@std@@@2@V?$allocator@U?$pair@PAVBufferedTransformation@CryptoPP@@V?$basic_string@DU?$char_traits@D@std@@V?$allocator@D@2@@std@@@std@@@2@@std@@IBEPAU_Node@12@ABV?$basic_string@DU?$char_traits@D@std@@V?$allocator@D@2@@2@@Z 4290d263 f i channels.obj
 0001:0000c298       ?_Dec@const_iterator@?$_Tree@V?$basic_string@DU?$char_traits@D@std@@V?$allocator@D@2@@std@@U?$pair@$$CBV?$basic_string@DU?$char_traits@D@std@@V?$allocator@D@2@@std@@U?$pair@PAVBufferedTransformation@CryptoPP@@V?$basic_string@DU?$char_traits@D@std@@V?$allocator@D@2@@std@@@2@@2@U_Kfn@?$multimap@V?$basic_string@DU?$char_traits@D@std@@V?$allocator@D@2@@std@@U?$pair@PAVBufferedTransformation@CryptoPP@@V?$basic_string@DU?$char_traits@D@std@@V?$allocator@D@2@@std@@@2@U?$less@V?$basic_string@DU?$char_traits@D@std@@V?$allocator@D@2@@std@@@2@V?$allocator@U?$pair@PAVBufferedTransformation@CryptoPP@@V?$basic_string@DU?$char_traits@D@std@@V?$allocator@D@2@@std@@@std@@@2@@2@U?$less@V?$basic_string@DU?$char_traits@D@std@@V?$allocator@D@2@@std@@@2@V?$allocator@U?$pair@PAVBufferedTransformation@CryptoPP@@V?$basic_string@DU?$char_traits@D@std@@V?$allocator@D@2@@std@@@std@@@2@@std@@QAEXXZ 4290d298 f i channels.obj
 0001:0000c2d4       ??1?$member_ptr@V?$basic_string@DU?$char_traits@D@std@@V?$allocator@D@2@@std@@@CryptoPP@@QAE@XZ 4290d2d4 f i channels.obj
 0001:0000c2ed       ?_Construct@std@@YAXPAU?$pair@PAVBufferedTransformation@CryptoPP@@V?$value_ptr@V?$basic_string@DU?$char_traits@D@std@@V?$allocator@D@2@@std@@@2@@1@ABU21@@Z 4290d2ed f i channels.obj
 0001:0000c325       ?_Construct@std@@YAXPAU?$pair@$$CBV?$basic_string@DU?$char_traits@D@std@@V?$allocator@D@2@@std@@U?$pair@PAVBufferedTransformation@CryptoPP@@V?$basic_string@DU?$char_traits@D@std@@V?$allocator@D@2@@std@@@2@@1@ABU21@@Z 4290d325 f i channels.obj
 0001:0000c352       ??0?$pair@$$CBV?$basic_string@DU?$char_traits@D@std@@V?$allocator@D@2@@std@@U?$pair@PAVBufferedTransformation@CryptoPP@@V?$basic_string@DU?$char_traits@D@std@@V?$allocator@D@2@@std@@@2@@std@@QAE@ABU01@@Z 4290d352 f i channels.obj
 0001:0000c3a4       ?compare@?$basic_string@DU?$char_traits@D@std@@V?$allocator@D@2@@std@@QBEHABV12@@Z 4290d3a4 f i channels.obj
 0001:0000c3c6       ?compare@?$basic_string@DU?$char_traits@D@std@@V?$allocator@D@2@@std@@QBEHIIPBDI@Z 4290d3c6 f i channels.obj
 0001:0000c445       ??_EChannelSwitch@CryptoPP@@W3AEPAXI@Z 4290d445 f i channels.obj
 0001:0000c44d       ??0CMAC_Base@CryptoPP@@QAE@XZ 4290d44d f i cmac.obj
 0001:0000c48c       ?OptimalDataAlignment@CMAC_Base@CryptoPP@@UBEIXZ 4290d48c f i cmac.obj
 0001:0000c49e       ??0CMAC_Base@CryptoPP@@QAE@ABV01@@Z 4290d49e f i cmac.obj
 0001:0000c4db       ??1CMAC_Base@CryptoPP@@UAE@XZ 4290d4db f i cmac.obj
 0001:0000c501       ?UncheckedSetKey@CMAC_Base@CryptoPP@@UAEXPBEIABVNameValuePairs@2@@Z 4290d501 f   cmac.obj
 0001:0000c65d       ?Update@CMAC_Base@CryptoPP@@UAEXPBEI@Z 4290d65d f   cmac.obj
 0001:0000c71b       ?TruncatedFinal@CMAC_Base@CryptoPP@@UAEXPAEI@Z 4290d71b f   cmac.obj
 0001:0000c796       ?IntToString@CryptoPP@@YA?AV?$basic_string@DU?$char_traits@D@std@@V?$allocator@D@2@@std@@II@Z 4290d796 f i cmac.obj
 0001:0000c89c       ?CpuId@CryptoPP@@YA_NIPAI@Z 4290d89c f   cpu.obj
 0001:0000c8fc       ?DetectX86Features@CryptoPP@@YAXXZ 4290d8fc f   cpu.obj
 0001:0000cadf       ??0SelfTestFailure@CryptoPP@@QAE@ABV?$basic_string@DU?$char_traits@D@std@@V?$allocator@D@2@@std@@@Z 4290dadf f i cryptlib.obj
 0001:0000caf9       ??0SelfTestFailure@CryptoPP@@QAE@ABV01@@Z 4290daf9 f i cryptlib.obj
 0001:0000cb11       ?SupportsPrecomputation@?$DL_PrivateKeyImpl@V?$DL_GroupParameters_EC@VEC2N@CryptoPP@@@CryptoPP@@@CryptoPP@@UBE_NXZ 4290db11 f i cryptlib.obj
 0001:0000cb11       ?IsRandomized@RandomizedTrapdoorFunctionInverse@CryptoPP@@UBE_NXZ 4290db11 f i cryptlib.obj
 0001:0000cb11       ?NeedConversions@?$EcPrecomputation@VECP@CryptoPP@@@CryptoPP@@UBE_NXZ 4290db11 f i cryptlib.obj
 0001:0000cb11       ?InversionIsFast@ECP@CryptoPP@@UBE_NXZ 4290db11 f i cryptlib.obj
 0001:0000cb11       ?RequireAlignedInput@BlockOrientedCipherModeBase@CryptoPP@@IBE_NXZ 4290db11 f i cryptlib.obj
 0001:0000cb11       ?IsForwardTransformation@?$CFB_EncryptionTemplate@V?$AbstractPolicyHolder@VCFB_CipherAbstractPolicy@CryptoPP@@VCFB_ModePolicy@2@@CryptoPP@@@CryptoPP@@EBE_NXZ 4290db11 f i cryptlib.obj
 0001:0000cb11       ?SupportsPrecomputation@?$DL_PrivateKeyImpl@VDL_GroupParameters_DSA@CryptoPP@@@CryptoPP@@UBE_NXZ 4290db11 f i cryptlib.obj
 0001:0000cb11       ?IsMontgomeryRepresentation@MontgomeryRepresentation@CryptoPP@@UBE_NXZ 4290db11 f i cryptlib.obj
 0001:0000cb11       ?IsProbabilistic@?$DL_SignatureSchemeBase@VPK_Signer@CryptoPP@@V?$DL_PrivateKey@UEC2NPoint@CryptoPP@@@2@@CryptoPP@@UBE_NXZ 4290db11 f i cryptlib.obj
 0001:0000cb11       ?do_always_noconv@codecvt_base@std@@MBE_NXZ 4290db11 f i cryptlib.obj
 0001:0000cb11       ?IsRandomized@RandomizedTrapdoorFunction@CryptoPP@@UBE_NXZ 4290db11 f i cryptlib.obj
 0001:0000cb11       ?IsProbabilistic@?$DL_SignatureSchemeBase@VPK_Verifier@CryptoPP@@V?$DL_PublicKey@UEC2NPoint@CryptoPP@@@2@@CryptoPP@@UBE_NXZ 4290db11 f i cryptlib.obj
 0001:0000cb11       ?IsForwardTransformation@?$AdditiveCipherTemplate@V?$AbstractPolicyHolder@UAdditiveCipherAbstractPolicy@CryptoPP@@VSymmetricCipher@2@@CryptoPP@@@CryptoPP@@UBE_NXZ 4290db11 f i cryptlib.obj
 0001:0000cb11       ?IsForwardTransformation@?$CFB_EncryptionTemplate@V?$AbstractPolicyHolder@VCFB_CipherAbstractPolicy@CryptoPP@@VSymmetricCipher@2@@CryptoPP@@@CryptoPP@@EBE_NXZ 4290db11 f i cryptlib.obj
 0001:0000cb11       ?IsForwardTransformation@?$BlockCipherFinal@$0A@VBase@DES_EDE3@CryptoPP@@@CryptoPP@@UBE_NXZ 4290db11 f i cryptlib.obj
 0001:0000cb11       ?ShouldPropagateMessageSeriesEnd@Filter@CryptoPP@@MBE_NXZ 4290db11 f i cryptlib.obj
 0001:0000cb11       ?IsProbabilistic@?$DL_SignatureSchemeBase@VPK_Verifier@CryptoPP@@V?$DL_PublicKey@VInteger@CryptoPP@@@2@@CryptoPP@@UBE_NXZ 4290db11 f i cryptlib.obj
 0001:0000cb11       ?CipherIsRandomAccess@CTR_ModePolicy@CryptoPP@@UBE_NXZ 4290db11 f i cryptlib.obj
 0001:0000cb11       ?SupportsPrecomputation@?$DL_PrivateKeyImpl@V?$DL_GroupParameters_EC@VECP@CryptoPP@@@CryptoPP@@@CryptoPP@@UBE_NXZ 4290db11 f i cryptlib.obj
 0001:0000cb11       ?AuthenticationIsOnPlaintext@CCM_Base@CryptoPP@@MBE_NXZ 4290db11 f i cryptlib.obj
 0001:0000cb11       ?IsProbabilistic@?$DL_SignatureSchemeBase@VPK_Verifier@CryptoPP@@V?$DL_PublicKey@UECPPoint@CryptoPP@@@2@@CryptoPP@@UBE_NXZ 4290db11 f i cryptlib.obj
 0001:0000cb11       ?NeedsPrespecifiedDataLengths@CCM_Base@CryptoPP@@UBE_NXZ 4290db11 f i cryptlib.obj
 0001:0000cb11       ?IsProbabilistic@?$DL_SignatureSchemeBase@VPK_Signer@CryptoPP@@V?$DL_PrivateKey@VInteger@CryptoPP@@@2@@CryptoPP@@UBE_NXZ 4290db11 f i cryptlib.obj
 0001:0000cb11       ?SupportsPrecomputation@?$DL_PublicKeyImpl@V?$DL_GroupParameters_EC@VEC2N@CryptoPP@@@CryptoPP@@@CryptoPP@@UBE_NXZ 4290db11 f i cryptlib.obj
 0001:0000cb11       ?IsForwardTransformation@?$BlockCipherFinal@$0A@VEnc@Rijndael@CryptoPP@@@CryptoPP@@UBE_NXZ 4290db11 f i cryptlib.obj
 0001:0000cb11       ?IsForwardTransformation@?$BlockCipherFinal@$0A@VEnc@SKIPJACK@CryptoPP@@@CryptoPP@@UBE_NXZ 4290db11 f i cryptlib.obj
 0001:0000cb11       ?ShouldPropagateMessageEnd@Filter@CryptoPP@@MBE_NXZ 4290db11 f i cryptlib.obj
 0001:0000cb11       ?IsSelfInverting@AuthenticatedSymmetricCipherBase@CryptoPP@@UBE_NXZ 4290db11 f i cryptlib.obj
 0001:0000cb11       ?SupportsPrecomputation@?$DL_GroupParameters@UECPPoint@CryptoPP@@@CryptoPP@@UBE_NXZ 4290db11 f i cryptlib.obj
 0001:0000cb11       ?IsProbabilistic@?$DL_SignatureSchemeBase@VPK_Signer@CryptoPP@@V?$DL_PrivateKey@UECPPoint@CryptoPP@@@2@@CryptoPP@@UBE_NXZ 4290db11 f i cryptlib.obj
 0001:0000cb11       ?SupportsPrecomputation@?$DL_GroupParameters@UEC2NPoint@CryptoPP@@@CryptoPP@@UBE_NXZ 4290db11 f i cryptlib.obj
 0001:0000cb11       ?CanOperateKeystream@CTR_ModePolicy@CryptoPP@@MBE_NXZ 4290db11 f i cryptlib.obj
 0001:0000cb11       ?CanIncorporateEntropy@RandomPool@CryptoPP@@UBE_NXZ 4290db11 f i cryptlib.obj
 0001:0000cb11       ?NeedConversions@ModExpPrecomputation@CryptoPP@@UBE_NXZ 4290db11 f i cryptlib.obj
 0001:0000cb11       ?IsForwardTransformation@?$AdditiveCipherTemplate@V?$AbstractPolicyHolder@UAdditiveCipherAbstractPolicy@CryptoPP@@VCTR_ModePolicy@2@@CryptoPP@@@CryptoPP@@UBE_NXZ 4290db11 f i cryptlib.obj
 0001:0000cb11       ?IsPermutation@BlockTransformation@CryptoPP@@UBE_NXZ 4290db11 f i cryptlib.obj
 0001:0000cb11       ?IsSelfInverting@?$AdditiveCipherTemplate@V?$AbstractPolicyHolder@UAdditiveCipherAbstractPolicy@CryptoPP@@VCTR_ModePolicy@2@@CryptoPP@@@CryptoPP@@UBE_NXZ 4290db11 f i cryptlib.obj
 0001:0000cb11       ?SupportsPrecomputation@?$DL_GroupParameters@VInteger@CryptoPP@@@CryptoPP@@UBE_NXZ 4290db11 f i cryptlib.obj
 0001:0000cb11       ?SupportsPrecomputation@?$DL_PublicKeyImpl@VDL_GroupParameters_DSA@CryptoPP@@@CryptoPP@@UBE_NXZ 4290db11 f i cryptlib.obj
 0001:0000cb11       ?InversionIsFast@EC2N@CryptoPP@@UBE_NXZ 4290db11 f i cryptlib.obj
 0001:0000cb11       ?IsSelfInverting@?$AdditiveCipherTemplate@V?$AbstractPolicyHolder@UAdditiveCipherAbstractPolicy@CryptoPP@@VOFB_ModePolicy@2@@CryptoPP@@@CryptoPP@@UBE_NXZ 4290db11 f i cryptlib.obj
 0001:0000cb11       ?IsSelfInverting@?$AdditiveCipherTemplate@V?$AbstractPolicyHolder@UAdditiveCipherAbstractPolicy@CryptoPP@@VSymmetricCipher@2@@CryptoPP@@@CryptoPP@@UBE_NXZ 4290db11 f i cryptlib.obj
 0001:0000cb11       ?SupportsPrecomputation@?$DL_PublicKeyImpl@V?$DL_GroupParameters_EC@VECP@CryptoPP@@@CryptoPP@@@CryptoPP@@UBE_NXZ 4290db11 f i cryptlib.obj
 0001:0000cb11       ?Attachable@Filter@CryptoPP@@UAE_NXZ 4290db11 f i cryptlib.obj
 0001:0000cb11       ?CanIncorporateEntropy@?$AutoSeededX917RNG@VRijndael@CryptoPP@@@CryptoPP@@UBE_NXZ 4290db11 f i cryptlib.obj
 0001:0000cb11       ?IsForwardTransformation@?$AdditiveCipherTemplate@V?$AbstractPolicyHolder@UAdditiveCipherAbstractPolicy@CryptoPP@@VOFB_ModePolicy@2@@CryptoPP@@@CryptoPP@@UBE_NXZ 4290db11 f i cryptlib.obj
 0001:0000cb14       ?Put@RandomPool@CryptoPP@@QAEXPBEI@Z 4290db14 f i cryptlib.obj
 0001:0000cb24       ??1RandomPool@CryptoPP@@UAE@XZ 4290db24 f i cryptlib.obj
 0001:0000cb69       ??1?$FixedSizeSecBlock@E$0CA@V?$FixedSizeAllocatorWithCleanup@E$0CA@V?$NullAllocator@E@CryptoPP@@$0A@@CryptoPP@@@CryptoPP@@QAE@XZ 4290db69 f i cryptlib.obj
 0001:0000cb6e       ??1?$FixedSizeSecBlock@E$0BA@V?$FixedSizeAllocatorWithCleanup@E$0BA@V?$NullAllocator@E@CryptoPP@@$0A@@CryptoPP@@@CryptoPP@@QAE@XZ 4290db6e f i cryptlib.obj
 0001:0000cb73       ??1X917RNG@CryptoPP@@UAE@XZ 4290db73 f i cryptlib.obj
 0001:0000cbd0       ?StaticAlgorithmName@Rijndael_Info@CryptoPP@@SAPBDXZ 4290dbd0 f i cryptlib.obj
 0001:0000cbd6       ??0Base@Rijndael@CryptoPP@@QAE@XZ 4290dbd6 f i cryptlib.obj
 0001:0000cc15       ??0Base@Rijndael@CryptoPP@@QAE@ABV012@@Z 4290dc15 f i cryptlib.obj
 0001:0000cc71       ??4Base@Rijndael@CryptoPP@@QAEAAV012@ABV012@@Z 4290dc71 f i cryptlib.obj
 0001:0000ccb1       ??1Base@Rijndael@CryptoPP@@UAE@XZ 4290dcb1 f i cryptlib.obj
 0001:0000ccd7       ??0Dec@Rijndael@CryptoPP@@QAE@ABV012@@Z 4290dcd7 f i cryptlib.obj
 0001:0000ccd7       ??0Enc@Rijndael@CryptoPP@@QAE@ABV012@@Z 4290dcd7 f i cryptlib.obj
 0001:0000cce9       ??4Dec@Rijndael@CryptoPP@@QAEAAV012@ABV012@@Z 4290dce9 f i cryptlib.obj
 0001:0000cce9       ??4Enc@Rijndael@CryptoPP@@QAEAAV012@ABV012@@Z 4290dce9 f i cryptlib.obj
 0001:0000ccfb       ??0?$ClonableImpl@V?$BlockCipherFinal@$0A@VEnc@Rijndael@CryptoPP@@@CryptoPP@@VEnc@Rijndael@2@@CryptoPP@@QAE@XZ 4290dcfb f i cryptlib.obj
 0001:0000ccfb       ??0Enc@Rijndael@CryptoPP@@QAE@XZ 4290dcfb f i cryptlib.obj
 0001:0000ccfb       ??0Dec@Rijndael@CryptoPP@@QAE@XZ 4290dcfb f i cryptlib.obj
 0001:0000ccfb       ??0?$ClonableImpl@V?$BlockCipherFinal@$00VDec@Rijndael@CryptoPP@@@CryptoPP@@VDec@Rijndael@2@@CryptoPP@@QAE@XZ 4290dcfb f i cryptlib.obj
 0001:0000cd07       ??1Enc@Rijndael@CryptoPP@@UAE@XZ 4290dd07 f i cryptlib.obj
 0001:0000cd07       ??1?$ClonableImpl@V?$BlockCipherFinal@$0A@VEnc@Rijndael@CryptoPP@@@CryptoPP@@VEnc@Rijndael@2@@CryptoPP@@UAE@XZ 4290dd07 f i cryptlib.obj
 0001:0000cd07       ??1?$BlockCipherFinal@$0A@VEnc@Rijndael@CryptoPP@@@CryptoPP@@UAE@XZ 4290dd07 f i cryptlib.obj
 0001:0000cd07       ??1?$BlockCipherFinal@$00VDec@Rijndael@CryptoPP@@@CryptoPP@@UAE@XZ 4290dd07 f i cryptlib.obj
 0001:0000cd07       ??1Dec@Rijndael@CryptoPP@@UAE@XZ 4290dd07 f i cryptlib.obj
 0001:0000cd07       ??1?$ClonableImpl@V?$BlockCipherFinal@$00VDec@Rijndael@CryptoPP@@@CryptoPP@@VDec@Rijndael@2@@CryptoPP@@UAE@XZ 4290dd07 f i cryptlib.obj
 0001:0000cd0c       ??4Rijndael@CryptoPP@@QAEAAV01@ABV01@@Z 4290dd0c f i cryptlib.obj
 0001:0000cd1b       ??0HashInputTooLong@CryptoPP@@QAE@ABV?$basic_string@DU?$char_traits@D@std@@V?$allocator@D@2@@std@@@Z 4290dd1b f i cryptlib.obj
 0001:0000cd7b       ??0HashInputTooLong@CryptoPP@@QAE@ABV01@@Z 4290dd7b f i cryptlib.obj
 0001:0000cd93       ??4?$IteratedHashBase@_KVHashTransformation@CryptoPP@@@CryptoPP@@QAEAAV01@ABV01@@Z 4290dd93 f i cryptlib.obj
 0001:0000cd93       ??0?$IteratedHashBase@_KVHashTransformation@CryptoPP@@@CryptoPP@@QAE@ABV01@@Z 4290dd93 f i cryptlib.obj
 0001:0000cdb4       ??0?$IteratedHashBase@IVHashTransformation@CryptoPP@@@CryptoPP@@QAE@ABV01@@Z 4290ddb4 f i cryptlib.obj
 0001:0000cdb4       ??4?$IteratedHashBase@IVHashTransformation@CryptoPP@@@CryptoPP@@QAEAAV01@ABV01@@Z 4290ddb4 f i cryptlib.obj
 0001:0000cdc9       ?StaticAlgorithmName@SHA1@CryptoPP@@SAPBDXZ 4290ddc9 f i cryptlib.obj
 0001:0000cdcf       ??0SHA1@CryptoPP@@QAE@XZ   4290ddcf f i cryptlib.obj
 0001:0000cde1       ??0SHA1@CryptoPP@@QAE@ABV01@@Z 4290dde1 f i cryptlib.obj
 0001:0000ce24       ??4SHA1@CryptoPP@@QAEAAV01@ABV01@@Z 4290de24 f i cryptlib.obj
 0001:0000ce45       ??1SHA1@CryptoPP@@UAE@XZ   4290de45 f i cryptlib.obj
 0001:0000ce4a       ??_ESHA1@CryptoPP@@UAEPAXI@Z 4290de4a f i cryptlib.obj
 0001:0000ce98       ??1?$IteratedHashWithStaticTransform@IU?$EnumToType@W4ByteOrder@CryptoPP@@$00@CryptoPP@@$0EA@$0BE@VSHA1@2@$0A@$0A@@CryptoPP@@UAE@XZ 4290de98 f i cryptlib.obj
 0001:0000ced1       ??1?$ClonableImpl@VSHA1@CryptoPP@@V?$AlgorithmImpl@V?$IteratedHash@IU?$EnumToType@W4ByteOrder@CryptoPP@@$00@CryptoPP@@$0EA@VHashTransformation@2@@CryptoPP@@VSHA1@2@@2@@CryptoPP@@UAE@XZ 4290ded1 f i cryptlib.obj
 0001:0000cef7       ??0?$IteratedHash@IU?$EnumToType@W4ByteOrder@CryptoPP@@$00@CryptoPP@@$0EA@VHashTransformation@2@@CryptoPP@@QAE@ABV01@@Z 4290def7 f i cryptlib.obj
 0001:0000cf38       ??4?$IteratedHash@IU?$EnumToType@W4ByteOrder@CryptoPP@@$00@CryptoPP@@$0EA@VHashTransformation@2@@CryptoPP@@QAEAAV01@ABV01@@Z 4290df38 f i cryptlib.obj
 0001:0000cf5d       ?StaticAlgorithmName@SHA256@CryptoPP@@SAPBDXZ 4290df5d f i cryptlib.obj
 0001:0000cf63       ??0SHA256@CryptoPP@@QAE@XZ 4290df63 f i cryptlib.obj
 0001:0000cf75       ??0SHA256@CryptoPP@@QAE@ABV01@@Z 4290df75 f i cryptlib.obj
 0001:0000cfb8       ??1SHA256@CryptoPP@@UAE@XZ 4290dfb8 f i cryptlib.obj
 0001:0000cfbd       ??_ESHA256@CryptoPP@@UAEPAXI@Z 4290dfbd f i cryptlib.obj
 0001:0000d00b       ??1?$IteratedHashWithStaticTransform@IU?$EnumToType@W4ByteOrder@CryptoPP@@$00@CryptoPP@@$0EA@$0CA@VSHA256@2@$0CA@$00@CryptoPP@@UAE@XZ 4290e00b f i cryptlib.obj
 0001:0000d044       ??1?$ClonableImpl@VSHA256@CryptoPP@@V?$AlgorithmImpl@V?$IteratedHash@IU?$EnumToType@W4ByteOrder@CryptoPP@@$00@CryptoPP@@$0EA@VHashTransformation@2@@CryptoPP@@VSHA256@2@@2@@CryptoPP@@UAE@XZ 4290e044 f i cryptlib.obj
 0001:0000d06a       ?Transform@SHA224@CryptoPP@@SAXPAIPBI@Z 4290e06a f i cryptlib.obj
 0001:0000d07a       ?StaticAlgorithmName@SHA224@CryptoPP@@SAPBDXZ 4290e07a f i cryptlib.obj
 0001:0000d080       ??0SHA224@CryptoPP@@QAE@XZ 4290e080 f i cryptlib.obj
 0001:0000d092       ??0SHA224@CryptoPP@@QAE@ABV01@@Z 4290e092 f i cryptlib.obj
 0001:0000d0d5       ??4SHA224@CryptoPP@@QAEAAV01@ABV01@@Z 4290e0d5 f i cryptlib.obj
 0001:0000d0d5       ??4SHA256@CryptoPP@@QAEAAV01@ABV01@@Z 4290e0d5 f i cryptlib.obj
 0001:0000d0f6       ??1SHA224@CryptoPP@@UAE@XZ 4290e0f6 f i cryptlib.obj
 0001:0000d0fb       ??_ESHA224@CryptoPP@@UAEPAXI@Z 4290e0fb f i cryptlib.obj
 0001:0000d149       ??1?$IteratedHashWithStaticTransform@IU?$EnumToType@W4ByteOrder@CryptoPP@@$00@CryptoPP@@$0EA@$0CA@VSHA224@2@$0BM@$00@CryptoPP@@UAE@XZ 4290e149 f i cryptlib.obj
 0001:0000d182       ??1?$ClonableImpl@VSHA224@CryptoPP@@V?$AlgorithmImpl@V?$IteratedHash@IU?$EnumToType@W4ByteOrder@CryptoPP@@$00@CryptoPP@@$0EA@VHashTransformation@2@@CryptoPP@@VSHA224@2@@2@@CryptoPP@@UAE@XZ 4290e182 f i cryptlib.obj
 0001:0000d1a8       ?StaticAlgorithmName@SHA512@CryptoPP@@SAPBDXZ 4290e1a8 f i cryptlib.obj
 0001:0000d1ae       ??0SHA512@CryptoPP@@QAE@XZ 4290e1ae f i cryptlib.obj
 0001:0000d1c0       ??0SHA512@CryptoPP@@QAE@ABV01@@Z 4290e1c0 f i cryptlib.obj
 0001:0000d209       ??1SHA512@CryptoPP@@UAE@XZ 4290e209 f i cryptlib.obj
 0001:0000d20e       ?Final@HashTransformation@CryptoPP@@UAEXPAE@Z 4290e20e f i cryptlib.obj
 0001:0000d226       ??_ESHA512@CryptoPP@@UAEPAXI@Z 4290e226 f i cryptlib.obj
 0001:0000d274       ??1?$IteratedHashWithStaticTransform@_KU?$EnumToType@W4ByteOrder@CryptoPP@@$00@CryptoPP@@$0IA@$0EA@VSHA512@2@$0EA@$00@CryptoPP@@UAE@XZ 4290e274 f i cryptlib.obj
 0001:0000d2b0       ?CalculateDigest@HashTransformation@CryptoPP@@UAEXPAEPBEI@Z 4290e2b0 f i cryptlib.obj
 0001:0000d2cf       ?Verify@HashTransformation@CryptoPP@@UAE_NPBE@Z 4290e2cf f i cryptlib.obj
 0001:0000d2e7       ?VerifyDigest@HashTransformation@CryptoPP@@UAE_NPBE0I@Z 4290e2e7 f i cryptlib.obj
 0001:0000d306       ??1?$ClonableImpl@VSHA512@CryptoPP@@V?$AlgorithmImpl@V?$IteratedHash@_KU?$EnumToType@W4ByteOrder@CryptoPP@@$00@CryptoPP@@$0IA@VHashTransformation@2@@CryptoPP@@VSHA512@2@@2@@CryptoPP@@UAE@XZ 4290e306 f i cryptlib.obj
 0001:0000d32c       ?CalculateTruncatedDigest@HashTransformation@CryptoPP@@UAEXPAEIPBEI@Z 4290e32c f i cryptlib.obj
 0001:0000d34f       ?VerifyTruncatedDigest@HashTransformation@CryptoPP@@UAE_NPBEI0I@Z 4290e34f f i cryptlib.obj
 0001:0000d372       ??0?$IteratedHash@_KU?$EnumToType@W4ByteOrder@CryptoPP@@$00@CryptoPP@@$0IA@VHashTransformation@2@@CryptoPP@@QAE@ABV01@@Z 4290e372 f i cryptlib.obj
 0001:0000d3bf       ??4?$IteratedHash@_KU?$EnumToType@W4ByteOrder@CryptoPP@@$00@CryptoPP@@$0IA@VHashTransformation@2@@CryptoPP@@QAEAAV01@ABV01@@Z 4290e3bf f i cryptlib.obj
 0001:0000d3f0       ?Transform@SHA384@CryptoPP@@SAXPA_KPB_K@Z 4290e3f0 f i cryptlib.obj
 0001:0000d400       ?StaticAlgorithmName@SHA384@CryptoPP@@SAPBDXZ 4290e400 f i cryptlib.obj
 0001:0000d406       ??0SHA384@CryptoPP@@QAE@XZ 4290e406 f i cryptlib.obj
 0001:0000d418       ??0SHA384@CryptoPP@@QAE@ABV01@@Z 4290e418 f i cryptlib.obj
 0001:0000d461       ??4SHA512@CryptoPP@@QAEAAV01@ABV01@@Z 4290e461 f i cryptlib.obj
 0001:0000d461       ??4SHA384@CryptoPP@@QAEAAV01@ABV01@@Z 4290e461 f i cryptlib.obj
 0001:0000d488       ??1SHA384@CryptoPP@@UAE@XZ 4290e488 f i cryptlib.obj
 0001:0000d48d       ??_ESHA384@CryptoPP@@UAEPAXI@Z 4290e48d f i cryptlib.obj
 0001:0000d4db       ??1?$IteratedHashWithStaticTransform@_KU?$EnumToType@W4ByteOrder@CryptoPP@@$00@CryptoPP@@$0IA@$0EA@VSHA384@2@$0DA@$00@CryptoPP@@UAE@XZ 4290e4db f i cryptlib.obj
 0001:0000d517       ??1?$ClonableImpl@VSHA384@CryptoPP@@V?$AlgorithmImpl@V?$IteratedHash@_KU?$EnumToType@W4ByteOrder@CryptoPP@@$00@CryptoPP@@$0IA@VHashTransformation@2@@CryptoPP@@VSHA384@2@@2@@CryptoPP@@UAE@XZ 4290e517 f i cryptlib.obj
 0001:0000d53d       ??0OS_RNG_Err@CryptoPP@@QAE@ABV01@@Z 4290e53d f i cryptlib.obj
 0001:0000d555       ?GetProviderHandle@MicrosoftCryptoProvider@CryptoPP@@QBEKXZ 4290e555 f i cryptlib.obj
 0001:0000d558       ??4MicrosoftCryptoProvider@CryptoPP@@QAEAAV01@ABV01@@Z 4290e558 f i cryptlib.obj
 0001:0000d565       ??0NonblockingRng@CryptoPP@@QAE@ABV01@@Z 4290e565 f i cryptlib.obj
 0001:0000d570       ??_ENonblockingRng@CryptoPP@@UAEPAXI@Z 4290e570 f i cryptlib.obj
 0001:0000d5bb       ??0AutoSeededRandomPool@CryptoPP@@QAE@_NI@Z 4290e5bb f i cryptlib.obj
 0001:0000d5f9       ??1AutoSeededRandomPool@CryptoPP@@UAE@XZ 4290e5f9 f i cryptlib.obj
 0001:0000d5fe       ??_FAutoSeededRandomPool@CryptoPP@@QAEXXZ 4290e5fe f i cryptlib.obj
 0001:0000d608       ??_EAutoSeededRandomPool@CryptoPP@@UAEPAXI@Z 4290e608 f i cryptlib.obj
 0001:0000d653       ??1?$AutoSeededX917RNG@VRijndael@CryptoPP@@@CryptoPP@@UAE@XZ 4290e653 f i cryptlib.obj
 0001:0000d679       ??_F?$AutoSeededX917RNG@VRijndael@CryptoPP@@@CryptoPP@@QAEXXZ 4290e679 f i cryptlib.obj
 0001:0000d73c       ?GetVoidValue@NullNameValuePairs@CryptoPP@@UBE_NPBDABVtype_info@@PAX@Z 4290e73c f i cryptlib.obj
 0001:0000d756       ?TheBitBucket@CryptoPP@@YAAAVBufferedTransformation@1@XZ 4290e756 f   cryptlib.obj
 0001:0000d78b       ??0Algorithm@CryptoPP@@QAE@_N@Z 4290e78b f   cryptlib.obj
 0001:0000d87f       ?SetKey@SimpleKeyingInterface@CryptoPP@@UAEXPBEIABVNameValuePairs@2@@Z 4290e87f f   cryptlib.obj
 0001:0000d8a2       ?SetKeyWithRounds@SimpleKeyingInterface@CryptoPP@@QAEXPBEIH@Z 4290e8a2 f   cryptlib.obj
 0001:0000d8f9       ?SetKeyWithIV@SimpleKeyingInterface@CryptoPP@@QAEXPBEI0I@Z 4290e8f9 f   cryptlib.obj
 0001:0000d97c       ?ThrowIfInvalidKeyLength@SimpleKeyingInterface@CryptoPP@@IAEXI@Z 4290e97c f   cryptlib.obj
 0001:0000d9d7       ?ThrowIfResynchronizable@SimpleKeyingInterface@CryptoPP@@IAEXXZ 4290e9d7 f   cryptlib.obj
 0001:0000da4f       ?ThrowIfInvalidIV@SimpleKeyingInterface@CryptoPP@@IAEXPBE@Z 4290ea4f f   cryptlib.obj
 0001:0000daca       ?ThrowIfInvalidIVLength@SimpleKeyingInterface@CryptoPP@@IAEIH@Z 4290eaca f   cryptlib.obj
 0001:0000dc97       ?GetIVAndThrowIfInvalid@SimpleKeyingInterface@CryptoPP@@IAEPBEABVNameValuePairs@2@AAI@Z 4290ec97 f   cryptlib.obj
 0001:0000dd82       ?GetNextIV@SimpleKeyingInterface@CryptoPP@@UAEXAAVRandomNumberGenerator@2@PAE@Z 4290ed82 f   cryptlib.obj
 0001:0000dd9e       ?AdvancedProcessBlocks@BlockTransformation@CryptoPP@@UBEIPBE0PAEII@Z 4290ed9e f   cryptlib.obj
 0001:0000de83       ?OptimalDataAlignment@BlockTransformation@CryptoPP@@UBEIXZ 4290ee83 f   cryptlib.obj
 0001:0000de83       ?OptimalDataAlignment@HashTransformation@CryptoPP@@UBEIXZ 4290ee83 f   cryptlib.obj
 0001:0000de83       ?OptimalDataAlignment@StreamTransformation@CryptoPP@@UBEIXZ 4290ee83 f   cryptlib.obj
 0001:0000de8c       ?ProcessLastBlock@StreamTransformation@CryptoPP@@UAEXPAEPBEI@Z 4290ee8c f   cryptlib.obj
 0001:0000df10       ?SpecifyDataLengths@AuthenticatedSymmetricCipher@CryptoPP@@QAEX_K00@Z 4290ef10 f   cryptlib.obj
 0001:0000e1e1       ?EncryptAndAuthenticate@AuthenticatedSymmetricCipher@CryptoPP@@UAEXPAE0IPBEH1I1I@Z 4290f1e1 f   cryptlib.obj
 0001:0000e23c       ?DecryptAndVerify@AuthenticatedSymmetricCipher@CryptoPP@@UAE_NPAEPBEI1H1I1I@Z 4290f23c f   cryptlib.obj
 0001:0000e297       ?GenerateBit@RandomNumberGenerator@CryptoPP@@UAEIXZ 4290f297 f   cryptlib.obj
 0001:0000e2a0       ?GenerateByte@RandomNumberGenerator@CryptoPP@@UAEEXZ 4290f2a0 f   cryptlib.obj
 0001:0000e2b4       ?GenerateWord32@RandomNumberGenerator@CryptoPP@@UAEIII@Z 4290f2b4 f   cryptlib.obj
 0001:0000e306       ?GenerateBlock@RandomNumberGenerator@CryptoPP@@UAEXPAEI@Z 4290f306 f   cryptlib.obj
 0001:0000e367       ?DiscardBytes@RandomNumberGenerator@CryptoPP@@UAEXI@Z 4290f367 f   cryptlib.obj
 0001:0000e388       ?GenerateIntoBufferedTransformation@RandomNumberGenerator@CryptoPP@@UAEXAAVBufferedTransformation@2@ABV?$basic_string@DU?$char_traits@D@std@@V?$allocator@D@2@@std@@_K@Z 4290f388 f   cryptlib.obj
 0001:0000e41f       ??1?$FixedSizeSecBlock@E$0BAA@V?$FixedSizeAllocatorWithCleanup@E$0BAA@V?$NullAllocator@E@CryptoPP@@$0A@@CryptoPP@@@CryptoPP@@QAE@XZ 4290f41f f i cryptlib.obj
 0001:0000e424       ?NullRNG@CryptoPP@@YAAAVRandomNumberGenerator@1@XZ 4290f424 f   cryptlib.obj
 0001:0000e45a       ??0ClassNullRNG@CryptoPP@@QAE@XZ 4290f45a f i cryptlib.obj
 0001:0000e46e       ?AlgorithmName@ClassNullRNG@CryptoPP@@UBE?AV?$basic_string@DU?$char_traits@D@std@@V?$allocator@D@2@@std@@XZ 4290f46e f i cryptlib.obj
 0001:0000e4a6       ?GenerateBlock@ClassNullRNG@CryptoPP@@UAEXPAEI@Z 4290f4a6 f i cryptlib.obj
 0001:0000e502       ?TruncatedVerify@HashTransformation@CryptoPP@@UAE_NPBEI@Z 4290f502 f   cryptlib.obj
 0001:0000e565       ?ThrowIfInvalidTruncatedSize@HashTransformation@CryptoPP@@IBEXI@Z 4290f565 f   cryptlib.obj
 0001:0000e650       ?GetMaxWaitObjectCount@BufferedTransformation@CryptoPP@@UBEIXZ 4290f650 f   cryptlib.obj
 0001:0000e66d       ?GetWaitObjects@BufferedTransformation@CryptoPP@@UAEXAAVWaitObjectContainer@2@ABVCallStack@2@@Z 4290f66d f   cryptlib.obj
 0001:0000e691       ?Initialize@BufferedTransformation@CryptoPP@@UAEXABVNameValuePairs@2@H@Z 4290f691 f   cryptlib.obj
 0001:0000e69d       ?Flush@BufferedTransformation@CryptoPP@@UAE_N_NH0@Z 4290f69d f   cryptlib.obj
 0001:0000e6ad       ?MessageSeriesEnd@BufferedTransformation@CryptoPP@@UAE_NH_N@Z 4290f6ad f   cryptlib.obj
 0001:0000e6b9       ?ChannelCreatePutSpace@BufferedTransformation@CryptoPP@@UAEPAEABV?$basic_string@DU?$char_traits@D@std@@V?$allocator@D@2@@std@@AAI@Z 4290f6b9 f   cryptlib.obj
 0001:0000e707       ??0NoChannelSupport@BufferedTransformation@CryptoPP@@QAE@ABV?$basic_string@DU?$char_traits@D@std@@V?$allocator@D@2@@std@@@Z 4290f707 f i cryptlib.obj
 0001:0000e767       ??0NoChannelSupport@BufferedTransformation@CryptoPP@@QAE@ABU012@@Z 4290f767 f i cryptlib.obj
 0001:0000e77f       ?ChannelPut2@BufferedTransformation@CryptoPP@@UAEIABV?$basic_string@DU?$char_traits@D@std@@V?$allocator@D@2@@std@@PBEIH_N@Z 4290f77f f   cryptlib.obj
 0001:0000e7d6       ?ChannelPutModifiable2@BufferedTransformation@CryptoPP@@UAEIABV?$basic_string@DU?$char_traits@D@std@@V?$allocator@D@2@@std@@PAEIH_N@Z 4290f7d6 f   cryptlib.obj
 0001:0000e80e       ?ChannelFlush@BufferedTransformation@CryptoPP@@UAE_NABV?$basic_string@DU?$char_traits@D@std@@V?$allocator@D@2@@std@@_NH1@Z 4290f80e f   cryptlib.obj
 0001:0000e862       ?ChannelMessageSeriesEnd@BufferedTransformation@CryptoPP@@UAE_NABV?$basic_string@DU?$char_traits@D@std@@V?$allocator@D@2@@std@@H_N@Z 4290f862 f   cryptlib.obj
 0001:0000e8b3       ?MaxRetrievable@BufferedTransformation@CryptoPP@@UBE_KXZ 4290f8b3 f   cryptlib.obj
 0001:0000e90a       ?AnyRetrievable@BufferedTransformation@CryptoPP@@UBE_NXZ 4290f90a f   cryptlib.obj
 0001:0000e940       ?Get@BufferedTransformation@CryptoPP@@UAEIAAE@Z 4290f940 f   cryptlib.obj
 0001:0000e975       ?Get@BufferedTransformation@CryptoPP@@UAEIPAEI@Z 4290f975 f   cryptlib.obj
 0001:0000ea08       ?Peek@BufferedTransformation@CryptoPP@@UBEIAAE@Z 4290fa08 f   cryptlib.obj
 0001:0000ea3d       ?Peek@BufferedTransformation@CryptoPP@@UBEIPAEI@Z 4290fa3d f   cryptlib.obj
 0001:0000ead5       ?Skip@BufferedTransformation@CryptoPP@@UAE_K_K@Z 4290fad5 f   cryptlib.obj
 0001:0000eb31       ?TotalBytesRetrievable@BufferedTransformation@CryptoPP@@UBE_KXZ 4290fb31 f   cryptlib.obj
 0001:0000eb58       ?NumberOfMessages@BufferedTransformation@CryptoPP@@UBEIXZ 4290fb58 f   cryptlib.obj
 0001:0000ebb0       ?AnyMessages@BufferedTransformation@CryptoPP@@UBE_NXZ 4290fbb0 f   cryptlib.obj
 0001:0000ebdd       ?GetNextMessage@BufferedTransformation@CryptoPP@@UAE_NXZ 4290fbdd f   cryptlib.obj
 0001:0000ec03       ?SkipMessages@BufferedTransformation@CryptoPP@@UAEII@Z 4290fc03 f   cryptlib.obj
 0001:0000ec51       ?TransferMessagesTo2@BufferedTransformation@CryptoPP@@QAEIAAV12@AAIABV?$basic_string@DU?$char_traits@D@std@@V?$allocator@D@2@@std@@_N@Z 4290fc51 f   cryptlib.obj
 0001:0000ed07       ?CopyMessagesTo@BufferedTransformation@CryptoPP@@QBEIAAV12@IABV?$basic_string@DU?$char_traits@D@std@@V?$allocator@D@2@@std@@@Z 4290fd07 f   cryptlib.obj
 0001:0000ed2c       ?SkipAll@BufferedTransformation@CryptoPP@@UAEXXZ 4290fd2c f   cryptlib.obj
 0001:0000ed6e       ?TransferAllTo2@BufferedTransformation@CryptoPP@@QAEIAAV12@ABV?$basic_string@DU?$char_traits@D@std@@V?$allocator@D@2@@std@@_N@Z 4290fd6e f   cryptlib.obj
 0001:0000edec       ?CopyAllTo@BufferedTransformation@CryptoPP@@QBEXAAV12@ABV?$basic_string@DU?$char_traits@D@std@@V?$allocator@D@2@@std@@@Z 4290fdec f   cryptlib.obj
 0001:0000ee40       ?SetRetrievalChannel@BufferedTransformation@CryptoPP@@UAEXABV?$basic_string@DU?$char_traits@D@std@@V?$allocator@D@2@@std@@@Z 4290fe40 f   cryptlib.obj
 0001:0000ee6b       ?ChannelPutWord16@BufferedTransformation@CryptoPP@@QAEIABV?$basic_string@DU?$char_traits@D@std@@V?$allocator@D@2@@std@@GW4ByteOrder@2@_N@Z 4290fe6b f   cryptlib.obj
 0001:0000ee9e       ?ChannelPutWord32@BufferedTransformation@CryptoPP@@QAEIABV?$basic_string@DU?$char_traits@D@std@@V?$allocator@D@2@@std@@IW4ByteOrder@2@_N@Z 4290fe9e f   cryptlib.obj
 0001:0000eed7       ?PutWord16@BufferedTransformation@CryptoPP@@QAEIGW4ByteOrder@2@_N@Z 4290fed7 f   cryptlib.obj
 0001:0000eef0       ?PutWord32@BufferedTransformation@CryptoPP@@QAEIIW4ByteOrder@2@_N@Z 4290fef0 f   cryptlib.obj
 0001:0000ef09       ?PeekWord16@BufferedTransformation@CryptoPP@@QBEIAAGW4ByteOrder@2@@Z 4290ff09 f   cryptlib.obj
 0001:0000ef46       ?PeekWord32@BufferedTransformation@CryptoPP@@QBEIAAIW4ByteOrder@2@@Z 4290ff46 f   cryptlib.obj
 0001:0000efaf       ?GetWord16@BufferedTransformation@CryptoPP@@QAEIAAGW4ByteOrder@2@@Z 4290ffaf f   cryptlib.obj
 0001:0000efcf       ?GetWord32@BufferedTransformation@CryptoPP@@QAEIAAIW4ByteOrder@2@@Z 4290ffcf f   cryptlib.obj
 0001:0000efef       ?Attach@BufferedTransformation@CryptoPP@@UAEXPAV12@@Z 4290ffef f   cryptlib.obj
 0001:0000f042       ?GenerateRandomWithKeySize@GeneratableCryptoMaterial@CryptoPP@@QAEXAAVRandomNumberGenerator@2@I@Z 42910042 f   cryptlib.obj
 0001:0000f09b       ?CreateEncryptionFilter@PK_Encryptor@CryptoPP@@UBEPAVBufferedTransformation@2@AAVRandomNumberGenerator@2@PAV32@ABVNameValuePairs@2@@Z 4291009b f   cryptlib.obj
 0001:0000f0dd       ??0PK_DefaultEncryptionFilter@CryptoPP@@QAE@AAVRandomNumberGenerator@1@ABVPK_Encryptor@1@PAVBufferedTransformation@1@ABVNameValuePairs@1@@Z 429100dd f i cryptlib.obj
 0001:0000f14f       ?IsolatedInitialize@BufferedTransformation@CryptoPP@@UAEXABVNameValuePairs@2@@Z 4291014f f i cryptlib.obj
 0001:0000f1ab       ?Put2@PK_DefaultEncryptionFilter@CryptoPP@@UAEIPBEIH_N@Z 429101ab f i cryptlib.obj
 0001:0000f30d       ??_GPK_DefaultEncryptionFilter@CryptoPP@@UAEPAXI@Z 4291030d f i cryptlib.obj
 0001:0000f30d       ??_EPK_DefaultEncryptionFilter@CryptoPP@@UAEPAXI@Z 4291030d f i cryptlib.obj
 0001:0000f329       ??1PK_DefaultEncryptionFilter@CryptoPP@@UAE@XZ 42910329 f i cryptlib.obj
 0001:0000f371       ?CreateDecryptionFilter@PK_Decryptor@CryptoPP@@UBEPAVBufferedTransformation@2@AAVRandomNumberGenerator@2@PAV32@ABVNameValuePairs@2@@Z 42910371 f   cryptlib.obj
 0001:0000f3b3       ??0PK_DefaultDecryptionFilter@CryptoPP@@QAE@AAVRandomNumberGenerator@1@ABVPK_Decryptor@1@PAVBufferedTransformation@1@ABVNameValuePairs@1@@Z 429103b3 f i cryptlib.obj
 0001:0000f42b       ?Put2@PK_DefaultDecryptionFilter@CryptoPP@@UAEIPBEIH_N@Z 4291042b f i cryptlib.obj
 0001:0000f5f1       ??0InvalidCiphertext@CryptoPP@@QAE@ABV01@@Z 429105f1 f i cryptlib.obj
 0001:0000f609       ??_EPK_DefaultDecryptionFilter@CryptoPP@@UAEPAXI@Z 42910609 f i cryptlib.obj
 0001:0000f609       ??_GPK_DefaultDecryptionFilter@CryptoPP@@UAEPAXI@Z 42910609 f i cryptlib.obj
 0001:0000f625       ??1PK_DefaultDecryptionFilter@CryptoPP@@UAE@XZ 42910625 f i cryptlib.obj
 0001:0000f66d       ?Sign@PK_Signer@CryptoPP@@UBEIAAVRandomNumberGenerator@2@PAVPK_MessageAccumulator@2@PAE@Z 4291066d f   cryptlib.obj
 0001:0000f6b9       ?SignMessage@PK_Signer@CryptoPP@@UBEIAAVRandomNumberGenerator@2@PBEIPAE@Z 429106b9 f   cryptlib.obj
 0001:0000f71d       ?SignMessageWithRecovery@PK_Signer@CryptoPP@@UBEIAAVRandomNumberGenerator@2@PBEI1IPAE@Z 4291071d f   cryptlib.obj
 0001:0000f790       ?Verify@PK_Verifier@CryptoPP@@UBE_NPAVPK_MessageAccumulator@2@@Z 42910790 f   cryptlib.obj
 0001:0000f7d4       ?VerifyMessage@PK_Verifier@CryptoPP@@UBE_NPBEI0I@Z 429107d4 f   cryptlib.obj
 0001:0000f83e       ?Recover@PK_Verifier@CryptoPP@@UBE?AUDecodingResult@2@PAEPAVPK_MessageAccumulator@2@@Z 4291083e f   cryptlib.obj
 0001:0000f895       ?RecoverMessage@PK_Verifier@CryptoPP@@UBE?AUDecodingResult@2@PAEPBEI1I@Z 42910895 f   cryptlib.obj
 0001:0000f910       ?GenerateStaticKeyPair@AuthenticatedKeyAgreementDomain@CryptoPP@@UBEXAAVRandomNumberGenerator@2@PAE1@Z 42910910 f   cryptlib.obj
 0001:0000f910       ?GenerateKeyPair@SimpleKeyAgreementDomain@CryptoPP@@UBEXAAVRandomNumberGenerator@2@PAE1@Z 42910910 f   cryptlib.obj
 0001:0000f936       ?GenerateEphemeralKeyPair@AuthenticatedKeyAgreementDomain@CryptoPP@@UBEXAAVRandomNumberGenerator@2@PAE1@Z 42910936 f   cryptlib.obj
 0001:0000f95c       ??0InvalidKeyLength@CryptoPP@@QAE@ABV?$basic_string@DU?$char_traits@D@std@@V?$allocator@D@2@@std@@I@Z 4291095c f i cryptlib.obj
 0001:0000fa2d       ??0InvalidKeyLength@CryptoPP@@QAE@ABV01@@Z 42910a2d f i cryptlib.obj
 0001:0000fa45       ??0BitBucket@CryptoPP@@QAE@XZ 42910a45 f i cryptlib.obj
 0001:0000fa60       ?AlgorithmName@BitBucket@CryptoPP@@UBE?AV?$basic_string@DU?$char_traits@D@std@@V?$allocator@D@2@@std@@XZ 42910a60 f i cryptlib.obj
 0001:0000fa98       ?Put2@BitBucket@CryptoPP@@UAEIPBEIH_N@Z 42910a98 f i cryptlib.obj
 0001:0000fa9d       ??1?$SecBlock@EV?$FixedSizeAllocatorWithCleanup@E$0CA@V?$NullAllocator@E@CryptoPP@@$0A@@CryptoPP@@@CryptoPP@@QAE@XZ 42910a9d f i cryptlib.obj
 0001:0000fab4       ??1?$SecBlock@EV?$FixedSizeAllocatorWithCleanup@E$0BA@V?$NullAllocator@E@CryptoPP@@$0A@@CryptoPP@@@CryptoPP@@QAE@XZ 42910ab4 f i cryptlib.obj
 0001:0000facb       ??0?$SecBlock@IV?$FixedSizeAllocatorWithCleanup@I$0DM@V?$NullAllocator@I@CryptoPP@@$00@CryptoPP@@@CryptoPP@@QAE@ABV01@@Z 42910acb f i cryptlib.obj
 0001:0000fb1f       ??1?$SecBlock@IV?$FixedSizeAllocatorWithCleanup@I$0DM@V?$NullAllocator@I@CryptoPP@@$00@CryptoPP@@@CryptoPP@@QAE@XZ 42910b1f f i cryptlib.obj
 0001:0000fb3f       ?OptimalDataAlignment@Base@SKIPJACK@CryptoPP@@UBEIXZ 42910b3f f i cryptlib.obj
 0001:0000fb3f       ?OptimalDataAlignment@?$IteratedHashBase@_KVHashTransformation@CryptoPP@@@CryptoPP@@UBEIXZ 42910b3f f i cryptlib.obj
 0001:0000fb3f       ?OptimalDataAlignment@?$IteratedHashBase@IVHashTransformation@CryptoPP@@@CryptoPP@@UBEIXZ 42910b3f f i cryptlib.obj
 0001:0000fb48       ??0?$IteratedHashWithStaticTransform@IU?$EnumToType@W4ByteOrder@CryptoPP@@$00@CryptoPP@@$0EA@$0BE@VSHA1@2@$0A@$0A@@CryptoPP@@IAE@XZ 42910b48 f i cryptlib.obj
 0001:0000fb8b       ??1?$FixedSizeAlignedSecBlock@I$0BA@$00@CryptoPP@@QAE@XZ 42910b8b f i cryptlib.obj
 0001:0000fb8b       ??1?$FixedSizeAlignedSecBlock@I$0BA@$0A@@CryptoPP@@QAE@XZ 42910b8b f i cryptlib.obj
 0001:0000fb90       ?HashEndianCorrectedBlock@?$IteratedHashWithStaticTransform@IU?$EnumToType@W4ByteOrder@CryptoPP@@$00@CryptoPP@@$0EA@$0BE@VSHA1@2@$0A@$0A@@CryptoPP@@MAEXPBI@Z 42910b90 f i cryptlib.obj
 0001:0000fba4       ?Init@?$IteratedHashWithStaticTransform@IU?$EnumToType@W4ByteOrder@CryptoPP@@$00@CryptoPP@@$0EA@$0BE@VSHA1@2@$0A@$0A@@CryptoPP@@MAEXXZ 42910ba4 f i cryptlib.obj
 0001:0000fbb1       ?Clone@?$ClonableImpl@VSHA1@CryptoPP@@V?$AlgorithmImpl@V?$IteratedHash@IU?$EnumToType@W4ByteOrder@CryptoPP@@$00@CryptoPP@@$0EA@VHashTransformation@2@@CryptoPP@@VSHA1@2@@2@@CryptoPP@@UBEPAVClonable@2@XZ 42910bb1 f i cryptlib.obj
 0001:0000fc07       ?AlgorithmName@?$AlgorithmImpl@V?$IteratedHash@IU?$EnumToType@W4ByteOrder@CryptoPP@@$00@CryptoPP@@$0EA@VHashTransformation@2@@CryptoPP@@VSHA1@2@@CryptoPP@@UBE?AV?$basic_string@DU?$char_traits@D@std@@V?$allocator@D@2@@std@@XZ 42910c07 f i cryptlib.obj
 0001:0000fc3f       ?BlockSize@?$IteratedHash@IU?$EnumToType@W4ByteOrder@CryptoPP@@$00@CryptoPP@@$0EA@VHashTransformation@2@@CryptoPP@@UBEIXZ 42910c3f f i cryptlib.obj
 0001:0000fc3f       ?DigestSize@?$IteratedHashWithStaticTransform@_KU?$EnumToType@W4ByteOrder@CryptoPP@@$00@CryptoPP@@$0IA@$0EA@VSHA512@2@$0EA@$00@CryptoPP@@UBEIXZ 42910c3f f i cryptlib.obj
 0001:0000fc43       ?DataBuf@?$IteratedHash@IU?$EnumToType@W4ByteOrder@CryptoPP@@$00@CryptoPP@@$0EA@VHashTransformation@2@@CryptoPP@@MAEPAIXZ 42910c43 f i cryptlib.obj
 0001:0000fc47       ??0?$SecBlock@IV?$FixedSizeAllocatorWithCleanup@I$0BA@V?$NullAllocator@I@CryptoPP@@$00@CryptoPP@@@CryptoPP@@QAE@ABV01@@Z 42910c47 f i cryptlib.obj
 0001:0000fc47       ??0?$SecBlock@IV?$FixedSizeAllocatorWithCleanup@I$0BA@V?$NullAllocator@I@CryptoPP@@$0A@@CryptoPP@@@CryptoPP@@QAE@ABV01@@Z 42910c47 f i cryptlib.obj
 0001:0000fc81       ??1?$SecBlock@IV?$FixedSizeAllocatorWithCleanup@I$0BA@V?$NullAllocator@I@CryptoPP@@$0A@@CryptoPP@@@CryptoPP@@QAE@XZ 42910c81 f i cryptlib.obj
 0001:0000fc81       ??1?$SecBlock@IV?$FixedSizeAllocatorWithCleanup@I$0BA@V?$NullAllocator@I@CryptoPP@@$00@CryptoPP@@@CryptoPP@@QAE@XZ 42910c81 f i cryptlib.obj
 0001:0000fc98       ??0?$IteratedHashWithStaticTransform@IU?$EnumToType@W4ByteOrder@CryptoPP@@$00@CryptoPP@@$0EA@$0CA@VSHA256@2@$0CA@$00@CryptoPP@@IAE@XZ 42910c98 f i cryptlib.obj
 0001:0000fcdb       ?Init@?$IteratedHashWithStaticTransform@IU?$EnumToType@W4ByteOrder@CryptoPP@@$00@CryptoPP@@$0EA@$0CA@VSHA256@2@$0CA@$00@CryptoPP@@MAEXXZ 42910cdb f i cryptlib.obj
 0001:0000fce8       ?Clone@?$ClonableImpl@VSHA256@CryptoPP@@V?$AlgorithmImpl@V?$IteratedHash@IU?$EnumToType@W4ByteOrder@CryptoPP@@$00@CryptoPP@@$0EA@VHashTransformation@2@@CryptoPP@@VSHA256@2@@2@@CryptoPP@@UBEPAVClonable@2@XZ 42910ce8 f i cryptlib.obj
 0001:0000fd3e       ?AlgorithmName@?$AlgorithmImpl@V?$IteratedHash@IU?$EnumToType@W4ByteOrder@CryptoPP@@$00@CryptoPP@@$0EA@VHashTransformation@2@@CryptoPP@@VSHA256@2@@CryptoPP@@UBE?AV?$basic_string@DU?$char_traits@D@std@@V?$allocator@D@2@@std@@XZ 42910d3e f i cryptlib.obj
 0001:0000fd76       ?DigestSize@?$IteratedHashWithStaticTransform@IU?$EnumToType@W4ByteOrder@CryptoPP@@$00@CryptoPP@@$0EA@$0CA@VSHA224@2@$0BM@$00@CryptoPP@@UBEIXZ 42910d76 f i cryptlib.obj
 0001:0000fd7a       ??0?$IteratedHashWithStaticTransform@IU?$EnumToType@W4ByteOrder@CryptoPP@@$00@CryptoPP@@$0EA@$0CA@VSHA224@2@$0BM@$00@CryptoPP@@IAE@XZ 42910d7a f i cryptlib.obj
 0001:0000fdbd       ?HashEndianCorrectedBlock@?$IteratedHashWithStaticTransform@IU?$EnumToType@W4ByteOrder@CryptoPP@@$00@CryptoPP@@$0EA@$0CA@VSHA224@2@$0BM@$00@CryptoPP@@MAEXPBI@Z 42910dbd f i cryptlib.obj
 0001:0000fdbd       ?HashEndianCorrectedBlock@?$IteratedHashWithStaticTransform@IU?$EnumToType@W4ByteOrder@CryptoPP@@$00@CryptoPP@@$0EA@$0CA@VSHA256@2@$0CA@$00@CryptoPP@@MAEXPBI@Z 42910dbd f i cryptlib.obj
 0001:0000fdd1       ?Init@?$IteratedHashWithStaticTransform@IU?$EnumToType@W4ByteOrder@CryptoPP@@$00@CryptoPP@@$0EA@$0CA@VSHA224@2@$0BM@$00@CryptoPP@@MAEXXZ 42910dd1 f i cryptlib.obj
 0001:0000fdde       ?StateBuf@?$IteratedHashWithStaticTransform@IU?$EnumToType@W4ByteOrder@CryptoPP@@$00@CryptoPP@@$0EA@$0CA@VSHA256@2@$0CA@$00@CryptoPP@@MAEPAIXZ 42910dde f i cryptlib.obj
 0001:0000fdde       ?StateBuf@?$IteratedHashWithStaticTransform@IU?$EnumToType@W4ByteOrder@CryptoPP@@$00@CryptoPP@@$0EA@$0BE@VSHA1@2@$0A@$0A@@CryptoPP@@MAEPAIXZ 42910dde f i cryptlib.obj
 0001:0000fdde       ?StateBuf@?$IteratedHashWithStaticTransform@IU?$EnumToType@W4ByteOrder@CryptoPP@@$00@CryptoPP@@$0EA@$0CA@VSHA224@2@$0BM@$00@CryptoPP@@MAEPAIXZ 42910dde f i cryptlib.obj
 0001:0000fde5       ?Clone@?$ClonableImpl@VSHA224@CryptoPP@@V?$AlgorithmImpl@V?$IteratedHash@IU?$EnumToType@W4ByteOrder@CryptoPP@@$00@CryptoPP@@$0EA@VHashTransformation@2@@CryptoPP@@VSHA224@2@@2@@CryptoPP@@UBEPAVClonable@2@XZ 42910de5 f i cryptlib.obj
 0001:0000fe3b       ?AlgorithmName@?$AlgorithmImpl@V?$IteratedHash@IU?$EnumToType@W4ByteOrder@CryptoPP@@$00@CryptoPP@@$0EA@VHashTransformation@2@@CryptoPP@@VSHA224@2@@CryptoPP@@UBE?AV?$basic_string@DU?$char_traits@D@std@@V?$allocator@D@2@@std@@XZ 42910e3b f i cryptlib.obj
 0001:0000fe73       ??0?$IteratedHashWithStaticTransform@_KU?$EnumToType@W4ByteOrder@CryptoPP@@$00@CryptoPP@@$0IA@$0EA@VSHA512@2@$0EA@$00@CryptoPP@@IAE@XZ 42910e73 f i cryptlib.obj
 0001:0000feb9       ??1?$FixedSizeAlignedSecBlock@_K$0BA@$00@CryptoPP@@QAE@XZ 42910eb9 f i cryptlib.obj
 0001:0000febe       ?HashEndianCorrectedBlock@?$IteratedHashWithStaticTransform@_KU?$EnumToType@W4ByteOrder@CryptoPP@@$00@CryptoPP@@$0IA@$0EA@VSHA512@2@$0EA@$00@CryptoPP@@MAEXPB_K@Z 42910ebe f i cryptlib.obj
 0001:0000febe       ?HashEndianCorrectedBlock@?$IteratedHashWithStaticTransform@_KU?$EnumToType@W4ByteOrder@CryptoPP@@$00@CryptoPP@@$0IA@$0EA@VSHA384@2@$0DA@$00@CryptoPP@@MAEXPB_K@Z 42910ebe f i cryptlib.obj
 0001:0000fed2       ?Init@?$IteratedHashWithStaticTransform@_KU?$EnumToType@W4ByteOrder@CryptoPP@@$00@CryptoPP@@$0IA@$0EA@VSHA512@2@$0EA@$00@CryptoPP@@MAEXXZ 42910ed2 f i cryptlib.obj
 0001:0000fedf       ?Clone@?$ClonableImpl@VSHA512@CryptoPP@@V?$AlgorithmImpl@V?$IteratedHash@_KU?$EnumToType@W4ByteOrder@CryptoPP@@$00@CryptoPP@@$0IA@VHashTransformation@2@@CryptoPP@@VSHA512@2@@2@@CryptoPP@@UBEPAVClonable@2@XZ 42910edf f i cryptlib.obj
 0001:0000ff3b       ?AlgorithmName@?$AlgorithmImpl@V?$IteratedHash@_KU?$EnumToType@W4ByteOrder@CryptoPP@@$00@CryptoPP@@$0IA@VHashTransformation@2@@CryptoPP@@VSHA512@2@@CryptoPP@@UBE?AV?$basic_string@DU?$char_traits@D@std@@V?$allocator@D@2@@std@@XZ 42910f3b f i cryptlib.obj
 0001:0000ff73       ?BlockSize@?$IteratedHash@_KU?$EnumToType@W4ByteOrder@CryptoPP@@$00@CryptoPP@@$0IA@VHashTransformation@2@@CryptoPP@@UBEIXZ 42910f73 f i cryptlib.obj
 0001:0000ff79       ?DataBuf@?$IteratedHash@_KU?$EnumToType@W4ByteOrder@CryptoPP@@$00@CryptoPP@@$0IA@VHashTransformation@2@@CryptoPP@@MAEPA_KXZ 42910f79 f i cryptlib.obj
 0001:0000ff80       ??0?$SecBlock@_KV?$FixedSizeAllocatorWithCleanup@_K$0BA@V?$NullAllocator@_K@CryptoPP@@$0A@@CryptoPP@@@CryptoPP@@QAE@ABV01@@Z 42910f80 f i cryptlib.obj
 0001:0000ff80       ??0?$SecBlock@_KV?$FixedSizeAllocatorWithCleanup@_K$0BA@V?$NullAllocator@_K@CryptoPP@@$00@CryptoPP@@@CryptoPP@@QAE@ABV01@@Z 42910f80 f i cryptlib.obj
 0001:0000ffd4       ??1?$SecBlock@_KV?$FixedSizeAllocatorWithCleanup@_K$0BA@V?$NullAllocator@_K@CryptoPP@@$00@CryptoPP@@@CryptoPP@@QAE@XZ 42910fd4 f i cryptlib.obj
 0001:0000ffd4       ??1?$SecBlock@_KV?$FixedSizeAllocatorWithCleanup@_K$0BA@V?$NullAllocator@_K@CryptoPP@@$0A@@CryptoPP@@@CryptoPP@@QAE@XZ 42910fd4 f i cryptlib.obj
 0001:0000fff4       ?DigestSize@?$IteratedHashWithStaticTransform@_KU?$EnumToType@W4ByteOrder@CryptoPP@@$00@CryptoPP@@$0IA@$0EA@VSHA384@2@$0DA@$00@CryptoPP@@UBEIXZ 42910ff4 f i cryptlib.obj
 0001:0000fff8       ??0?$IteratedHashWithStaticTransform@_KU?$EnumToType@W4ByteOrder@CryptoPP@@$00@CryptoPP@@$0IA@$0EA@VSHA384@2@$0DA@$00@CryptoPP@@IAE@XZ 42910ff8 f i cryptlib.obj
 0001:0001003e       ?Init@?$IteratedHashWithStaticTransform@_KU?$EnumToType@W4ByteOrder@CryptoPP@@$00@CryptoPP@@$0IA@$0EA@VSHA384@2@$0DA@$00@CryptoPP@@MAEXXZ 4291103e f i cryptlib.obj
 0001:0001004b       ?StateBuf@?$IteratedHashWithStaticTransform@_KU?$EnumToType@W4ByteOrder@CryptoPP@@$00@CryptoPP@@$0IA@$0EA@VSHA384@2@$0DA@$00@CryptoPP@@MAEPA_KXZ 4291104b f i cryptlib.obj
 0001:0001004b       ?StateBuf@?$IteratedHashWithStaticTransform@_KU?$EnumToType@W4ByteOrder@CryptoPP@@$00@CryptoPP@@$0IA@$0EA@VSHA512@2@$0EA@$00@CryptoPP@@MAEPA_KXZ 4291104b f i cryptlib.obj
 0001:00010052       ?Clone@?$ClonableImpl@VSHA384@CryptoPP@@V?$AlgorithmImpl@V?$IteratedHash@_KU?$EnumToType@W4ByteOrder@CryptoPP@@$00@CryptoPP@@$0IA@VHashTransformation@2@@CryptoPP@@VSHA384@2@@2@@CryptoPP@@UBEPAVClonable@2@XZ 42911052 f i cryptlib.obj
 0001:000100ae       ?AlgorithmName@?$AlgorithmImpl@V?$IteratedHash@_KU?$EnumToType@W4ByteOrder@CryptoPP@@$00@CryptoPP@@$0IA@VHashTransformation@2@@CryptoPP@@VSHA384@2@@CryptoPP@@UBE?AV?$basic_string@DU?$char_traits@D@std@@V?$allocator@D@2@@std@@XZ 429110ae f i cryptlib.obj
 0001:000100e6       ??0?$AutoSeededX917RNG@VRijndael@CryptoPP@@@CryptoPP@@QAE@_N0@Z 429110e6 f i cryptlib.obj
 0001:00010132       ?IncorporateEntropy@?$AutoSeededX917RNG@VRijndael@CryptoPP@@@CryptoPP@@UAEXPBEI@Z 42911132 f i cryptlib.obj
 0001:00010144       ?GenerateIntoBufferedTransformation@?$AutoSeededX917RNG@VRijndael@CryptoPP@@@CryptoPP@@UAEXAAVBufferedTransformation@2@ABV?$basic_string@DU?$char_traits@D@std@@V?$allocator@D@2@@std@@_K@Z 42911144 f i cryptlib.obj
 0001:0001015f       ??1?$simple_ptr@VNullNameValuePairs@CryptoPP@@@CryptoPP@@QAE@XZ 4291115f f i cryptlib.obj
 0001:0001015f       ??1?$simple_ptr@VPKCS1v15_SignatureMessageEncodingMethod@CryptoPP@@@CryptoPP@@QAE@XZ 4291115f f i cryptlib.obj
 0001:0001015f       ??1?$simple_ptr@VDL_SignatureMessageEncodingMethod_DSA@CryptoPP@@@CryptoPP@@QAE@XZ 4291115f f i cryptlib.obj
 0001:0001015f       ??1?$simple_ptr@VInteger@CryptoPP@@@CryptoPP@@QAE@XZ 4291115f f i cryptlib.obj
 0001:0001015f       ??1?$simple_ptr@V?$PSSR_MEM@$0A@VP1363_MGF1@CryptoPP@@$0?0$0A@$0A@@CryptoPP@@@CryptoPP@@QAE@XZ 4291115f f i cryptlib.obj
 0001:0001015f       ??1?$simple_ptr@VEMSA2Pad@CryptoPP@@@CryptoPP@@QAE@XZ 4291115f f i cryptlib.obj
 0001:0001015f       ??1?$simple_ptr@V?$OAEP@VSHA1@CryptoPP@@VP1363_MGF1@2@@CryptoPP@@@CryptoPP@@QAE@XZ 4291115f f i cryptlib.obj
 0001:00010173       ??1?$SecBlock@EV?$FixedSizeAllocatorWithCleanup@E$0BAA@V?$NullAllocator@E@CryptoPP@@$0A@@CryptoPP@@@CryptoPP@@QAE@XZ 42911173 f i cryptlib.obj
 0001:00010193       ??_E?$AutoSeededX917RNG@VRijndael@CryptoPP@@@CryptoPP@@UAEPAXI@Z 42911193 f i cryptlib.obj
 0001:000101de       ??0?$IteratedHash@IU?$EnumToType@W4ByteOrder@CryptoPP@@$00@CryptoPP@@$0EA@VHashTransformation@2@@CryptoPP@@QAE@XZ 429111de f i cryptlib.obj
 0001:0001021a       ??0?$IteratedHash@_KU?$EnumToType@W4ByteOrder@CryptoPP@@$00@CryptoPP@@$0IA@VHashTransformation@2@@CryptoPP@@QAE@XZ 4291121a f i cryptlib.obj
 0001:0001025c       ??0?$SecBlock@IV?$FixedSizeAllocatorWithCleanup@I$0DM@V?$NullAllocator@I@CryptoPP@@$00@CryptoPP@@@CryptoPP@@QAE@I@Z 4291125c f i cryptlib.obj
 0001:0001028c       ?Assign@?$SecBlock@IV?$FixedSizeAllocatorWithCleanup@I$0DM@V?$NullAllocator@I@CryptoPP@@$00@CryptoPP@@@CryptoPP@@QAEXABV12@@Z 4291128c f i cryptlib.obj
 0001:000102c7       ??0?$IteratedHashBase@_KVHashTransformation@CryptoPP@@@CryptoPP@@QAE@XZ 429112c7 f i cryptlib.obj
 0001:000102e3       ??0?$IteratedHashBase@IVHashTransformation@CryptoPP@@@CryptoPP@@QAE@XZ 429112e3 f i cryptlib.obj
 0001:000102f9       ?Assign@?$SecBlock@IV?$FixedSizeAllocatorWithCleanup@I$0BA@V?$NullAllocator@I@CryptoPP@@$00@CryptoPP@@@CryptoPP@@QAEXABV12@@Z 429112f9 f i cryptlib.obj
 0001:000102f9       ?Assign@?$SecBlock@IV?$FixedSizeAllocatorWithCleanup@I$0BA@V?$NullAllocator@I@CryptoPP@@$0A@@CryptoPP@@@CryptoPP@@QAEXABV12@@Z 429112f9 f i cryptlib.obj
 0001:00010328       ?Assign@?$SecBlock@_KV?$FixedSizeAllocatorWithCleanup@_K$0BA@V?$NullAllocator@_K@CryptoPP@@$00@CryptoPP@@@CryptoPP@@QAEXABV12@@Z 42911328 f i cryptlib.obj
 0001:00010328       ?Assign@?$SecBlock@_KV?$FixedSizeAllocatorWithCleanup@_K$0BA@V?$NullAllocator@_K@CryptoPP@@$0A@@CryptoPP@@@CryptoPP@@QAEXABV12@@Z 42911328 f i cryptlib.obj
 0001:00010363       ??0?$SecBlock@EV?$FixedSizeAllocatorWithCleanup@E$0BAA@V?$NullAllocator@E@CryptoPP@@$0A@@CryptoPP@@@CryptoPP@@QAE@I@Z 42911363 f i cryptlib.obj
 0001:00010396       ?New@?$SecBlock@IV?$FixedSizeAllocatorWithCleanup@I$0DM@V?$NullAllocator@I@CryptoPP@@$00@CryptoPP@@@CryptoPP@@QAEXI@Z 42911396 f i cryptlib.obj
 0001:000103bf       ??0?$SecBlock@IV?$FixedSizeAllocatorWithCleanup@I$0BA@V?$NullAllocator@I@CryptoPP@@$0A@@CryptoPP@@@CryptoPP@@QAE@I@Z 429113bf f i cryptlib.obj
 0001:000103bf       ??0?$SecBlock@IV?$FixedSizeAllocatorWithCleanup@I$0BA@V?$NullAllocator@I@CryptoPP@@$00@CryptoPP@@@CryptoPP@@QAE@I@Z 429113bf f i cryptlib.obj
 0001:000103e1       ?New@?$SecBlock@IV?$FixedSizeAllocatorWithCleanup@I$0BA@V?$NullAllocator@I@CryptoPP@@$00@CryptoPP@@@CryptoPP@@QAEXI@Z 429113e1 f i cryptlib.obj
 0001:000103e1       ?New@?$SecBlock@IV?$FixedSizeAllocatorWithCleanup@I$0BA@V?$NullAllocator@I@CryptoPP@@$0A@@CryptoPP@@@CryptoPP@@QAEXI@Z 429113e1 f i cryptlib.obj
 0001:00010402       ??0?$SecBlock@_KV?$FixedSizeAllocatorWithCleanup@_K$0BA@V?$NullAllocator@_K@CryptoPP@@$00@CryptoPP@@@CryptoPP@@QAE@I@Z 42911402 f i cryptlib.obj
 0001:00010402       ??0?$SecBlock@_KV?$FixedSizeAllocatorWithCleanup@_K$0BA@V?$NullAllocator@_K@CryptoPP@@$0A@@CryptoPP@@@CryptoPP@@QAE@I@Z 42911402 f i cryptlib.obj
 0001:00010432       ?New@?$SecBlock@_KV?$FixedSizeAllocatorWithCleanup@_K$0BA@V?$NullAllocator@_K@CryptoPP@@$00@CryptoPP@@@CryptoPP@@QAEXI@Z 42911432 f i cryptlib.obj
 0001:00010432       ?New@?$SecBlock@_KV?$FixedSizeAllocatorWithCleanup@_K$0BA@V?$NullAllocator@_K@CryptoPP@@$0A@@CryptoPP@@@CryptoPP@@QAEXI@Z 42911432 f i cryptlib.obj
 0001:0001045b       ?reallocate@?$FixedSizeAllocatorWithCleanup@I$0DM@V?$NullAllocator@I@CryptoPP@@$00@CryptoPP@@QAEPAIPAIII_N@Z 4291145b f i cryptlib.obj
 0001:000104e8       ?reallocate@?$FixedSizeAllocatorWithCleanup@I$0BA@V?$NullAllocator@I@CryptoPP@@$0A@@CryptoPP@@QAEPAIPAIII_N@Z 429114e8 f i cryptlib.obj
 0001:000104e8       ?reallocate@?$FixedSizeAllocatorWithCleanup@I$0BA@V?$NullAllocator@I@CryptoPP@@$00@CryptoPP@@QAEPAIPAIII_N@Z 429114e8 f i cryptlib.obj
 0001:0001056a       ?reallocate@?$FixedSizeAllocatorWithCleanup@_K$0BA@V?$NullAllocator@_K@CryptoPP@@$00@CryptoPP@@QAEPA_KPA_KII_N@Z 4291156a f i cryptlib.obj
 0001:0001056a       ?reallocate@?$FixedSizeAllocatorWithCleanup@_K$0BA@V?$NullAllocator@_K@CryptoPP@@$0A@@CryptoPP@@QAEPA_KPA_KII_N@Z 4291156a f i cryptlib.obj
 0001:000105f7       ?IntToString@CryptoPP@@YA?AV?$basic_string@DU?$char_traits@D@std@@V?$allocator@D@2@@std@@HI@Z 429115f7 f i cryptlib.obj
 0001:0001072c       ?SecureWipeArray@CryptoPP@@YAXPA_KI@Z 4291172c f i cryptlib.obj
 0001:00010815       ??_EPK_DefaultEncryptionFilter@CryptoPP@@W3AEPAXI@Z 42911815 f i cryptlib.obj
 0001:0001081d       ??_EBitBucket@CryptoPP@@W3AEPAXI@Z 4291181d f i cryptlib.obj
 0001:00010825       ??_EPK_DefaultDecryptionFilter@CryptoPP@@W3AEPAXI@Z 42911825 f i cryptlib.obj
 0001:0001082d       ??0RawDES@CryptoPP@@QAE@XZ 4291182d f i des.obj
 0001:0001083b       ??0RawDES@CryptoPP@@QAE@ABV01@@Z 4291183b f i des.obj
 0001:0001084d       ??4RawDES@CryptoPP@@QAEAAV01@ABV01@@Z 4291184d f i des.obj
 0001:0001085f       ??1RawDES@CryptoPP@@QAE@XZ 4291185f f i des.obj
 0001:00010864       ?StaticAlgorithmName@DES_EDE2_Info@CryptoPP@@SAPBDXZ 42911864 f i des.obj
 0001:0001086a       ??0Base@DES_EDE2@CryptoPP@@QAE@XZ 4291186a f i des.obj
 0001:000108ba       ??0Base@DES_EDE2@CryptoPP@@QAE@ABV012@@Z 429118ba f i des.obj
 0001:00010932       ??4Base@DES_EDE2@CryptoPP@@QAEAAV012@ABV012@@Z 42911932 f i des.obj
 0001:00010980       ??1Base@DES_EDE2@CryptoPP@@UAE@XZ 42911980 f i des.obj
 0001:000109bc       ?StaticAlgorithmName@DES_EDE3_Info@CryptoPP@@SAPBDXZ 429119bc f i des.obj
 0001:000109c2       ??0Base@DES_EDE3@CryptoPP@@QAE@XZ 429119c2 f i des.obj
 0001:00010a21       ??0Base@DES_EDE3@CryptoPP@@QAE@ABV012@@Z 42911a21 f i des.obj
 0001:00010a9a       ??4Base@DES_EDE3@CryptoPP@@QAEAAV012@ABV012@@Z 42911a9a f i des.obj
 0001:00010afd       ??1Base@DES_EDE3@CryptoPP@@UAE@XZ 42911afd f i des.obj
 0001:00010b48       ?RawSetKey@RawDES@CryptoPP@@QAEXW4CipherDir@2@PBE@Z 42911b48 f   des.obj
 0001:00010cdd       ?RawProcessBlock@RawDES@CryptoPP@@QBEXAAI0@Z 42911cdd f   des.obj
 0001:00010e20       ?UncheckedSetKey@Base@DES_EDE2@CryptoPP@@UAEXPBEIABVNameValuePairs@3@@Z 42911e20 f   des.obj
 0001:00010e71       ?ProcessAndXorBlock@Base@DES_EDE2@CryptoPP@@UBEXPBE0PAE@Z 42911e71 f   des.obj
 0001:0001106d       ?UncheckedSetKey@Base@DES_EDE3@CryptoPP@@UAEXPBEIABVNameValuePairs@3@@Z 4291206d f   des.obj
 0001:00011104       ?ProcessAndXorBlock@Base@DES_EDE3@CryptoPP@@UBEXPBE0PAE@Z 42912104 f   des.obj
 0001:000111a4       ??0?$SecBlock@IV?$FixedSizeAllocatorWithCleanup@I$0CA@V?$NullAllocator@I@CryptoPP@@$0A@@CryptoPP@@@CryptoPP@@QAE@ABV01@@Z 429121a4 f i des.obj
 0001:000111f8       ??1?$SecBlock@IV?$FixedSizeAllocatorWithCleanup@I$0CA@V?$NullAllocator@I@CryptoPP@@$0A@@CryptoPP@@@CryptoPP@@QAE@XZ 429121f8 f i des.obj
 0001:00011218       ??0?$SecBlock@IV?$FixedSizeAllocatorWithCleanup@I$0CA@V?$NullAllocator@I@CryptoPP@@$0A@@CryptoPP@@@CryptoPP@@QAE@I@Z 42912218 f i des.obj
 0001:00011248       ?Assign@?$SecBlock@IV?$FixedSizeAllocatorWithCleanup@I$0CA@V?$NullAllocator@I@CryptoPP@@$0A@@CryptoPP@@@CryptoPP@@QAEXABV12@@Z 42912248 f i des.obj
 0001:00011283       ?New@?$SecBlock@IV?$FixedSizeAllocatorWithCleanup@I$0CA@V?$NullAllocator@I@CryptoPP@@$0A@@CryptoPP@@@CryptoPP@@QAEXI@Z 42912283 f i des.obj
 0001:000112ac       ?reallocate@?$FixedSizeAllocatorWithCleanup@I$0CA@V?$NullAllocator@I@CryptoPP@@$0A@@CryptoPP@@QAEPAIPAIII_N@Z 429122ac f i des.obj
 0001:00011339       ??R?$GetBlock@IU?$EnumToType@W4ByteOrder@CryptoPP@@$00@CryptoPP@@$0A@@CryptoPP@@QAEAAV01@AAI@Z 42912339 f i des.obj
 0001:00011355       ??R?$PutBlock@IU?$EnumToType@W4ByteOrder@CryptoPP@@$00@CryptoPP@@$0A@@CryptoPP@@QAEAAV01@I@Z 42912355 f i des.obj
 0001:0001138e       ?IsValidKeyLength@SimpleKeyingInterface@CryptoPP@@UBE_NI@Z 4291238e f i des.obj
 0001:000113a5       ?Resynchronize@SimpleKeyingInterface@CryptoPP@@UAEXPBEH@Z 429123a5 f i des.obj
 0001:000113fc       ??0PrivateKeyAlgorithm@CryptoPP@@QAE@XZ 429123fc f i des.obj
 0001:000113fc       ??0AuthenticatedKeyAgreementDomain@CryptoPP@@QAE@XZ 429123fc f i des.obj
 0001:000113fc       ??0PK_MessageAccumulator@CryptoPP@@QAE@XZ 429123fc f i des.obj
 0001:000113fc       ??0BlockTransformation@CryptoPP@@QAE@XZ 429123fc f i des.obj
 0001:000113fc       ??0AsymmetricAlgorithm@CryptoPP@@QAE@XZ 429123fc f i des.obj
 0001:000113fc       ??0HashTransformation@CryptoPP@@QAE@XZ 429123fc f i des.obj
 0001:000113fc       ??0StreamTransformation@CryptoPP@@QAE@XZ 429123fc f i des.obj
 0001:000113fc       ??0KeyAgreementAlgorithm@CryptoPP@@QAE@XZ 429123fc f i des.obj
 0001:000113fc       ??0SimpleKeyAgreementDomain@CryptoPP@@QAE@XZ 429123fc f i des.obj
 0001:000113fc       ??0PublicKeyAlgorithm@CryptoPP@@QAE@XZ 429123fc f i des.obj
 0001:000113fc       ??0RandomNumberGenerator@CryptoPP@@QAE@XZ 429123fc f i des.obj
 0001:0001140a       ??0BlockTransformation@CryptoPP@@QAE@ABV01@@Z 4291240a f i des.obj
 0001:0001140a       ??4BlockTransformation@CryptoPP@@QAEAAV01@ABV01@@Z 4291240a f i des.obj
 0001:00011435       ??0BlockCipher@CryptoPP@@QAE@ABV01@@Z 42912435 f i des.obj
 0001:00011435       ??4BlockCipher@CryptoPP@@QAEAAV01@ABV01@@Z 42912435 f i des.obj
 0001:0001146b       ??0?$AbstractEuclideanDomain@VInteger@CryptoPP@@@CryptoPP@@QAE@XZ 4291246b f i dh.obj
 0001:000114a1       ??0?$AbstractEuclideanDomain@VInteger@CryptoPP@@@CryptoPP@@QAE@ABV01@@Z 429124a1 f i dh.obj
 0001:000114e0       ??4?$AbstractEuclideanDomain@VInteger@CryptoPP@@@CryptoPP@@QAEAAV01@ABV01@@Z 429124e0 f i dh.obj
 0001:000114f9       ??1?$AbstractEuclideanDomain@VInteger@CryptoPP@@@CryptoPP@@UAE@XZ 429124f9 f i dh.obj
 0001:0001152a       ??0ModularArithmetic@CryptoPP@@QAE@ABVInteger@1@@Z 4291252a f i dh.obj
 0001:0001158b       ??0ModularArithmetic@CryptoPP@@QAE@ABV01@@Z 4291258b f i dh.obj
 0001:000115ed       ?Clone@ModularArithmetic@CryptoPP@@UBEPAV12@XZ 429125ed f i dh.obj
 0001:00011624       ?SetModulus@ModularArithmetic@CryptoPP@@QAEXABVInteger@2@@Z 42912624 f i dh.obj
 0001:00011642       ?ConvertIn@ModularArithmetic@CryptoPP@@UBE?AVInteger@2@ABV32@@Z 42912642 f i dh.obj
 0001:00011663       ??LCryptoPP@@YA?AVInteger@0@ABV10@0@Z 42912663 f i dh.obj
 0001:0001167e       ?Identity@ModularArithmetic@CryptoPP@@UBEABVInteger@2@XZ 4291267e f i dh.obj
 0001:00011683       ?MultiplicativeIdentity@ModularArithmetic@CryptoPP@@UBEABVInteger@2@XZ 42912683 f i dh.obj
 0001:00011688       ?Multiply@ModularArithmetic@CryptoPP@@UBEABVInteger@2@ABV32@0@Z 42912688 f i dh.obj
 0001:000116f7       ??DCryptoPP@@YA?AVInteger@0@ABV10@0@Z 429126f7 f i dh.obj
 0001:00011712       ?Square@ModularArithmetic@CryptoPP@@UBEABVInteger@2@ABV32@@Z 42912712 f i dh.obj
 0001:0001177e       ?IsUnit@ModularArithmetic@CryptoPP@@UBE_NABVInteger@2@@Z 4291277e f i dh.obj
 0001:000117cc       ?MultiplicativeInverse@ModularArithmetic@CryptoPP@@UBEABVInteger@2@ABV32@@Z 429127cc f i dh.obj
 0001:0001181b       ?Divide@ModularArithmetic@CryptoPP@@UBEABVInteger@2@ABV32@0@Z 4291281b f i dh.obj
 0001:00011837       ?MaxElementBitLength@ModularArithmetic@CryptoPP@@QBEIXZ 42912837 f i dh.obj
 0001:000118a0       ??GCryptoPP@@YA?AVInteger@0@ABV10@0@Z 429128a0 f i dh.obj
 0001:000118bb       ?MaxElementByteLength@ModularArithmetic@CryptoPP@@QBEIXZ 429128bb f i dh.obj
 0001:00011924       ?RandomElement@ModularArithmetic@CryptoPP@@QBE?AVInteger@2@AAVRandomNumberGenerator@2@ABH@Z 42912924 f i dh.obj
 0001:000119ca       ??8ModularArithmetic@CryptoPP@@QBE_NABV01@@Z 429129ca f i dh.obj
 0001:000119e2       ??4ModularArithmetic@CryptoPP@@QAEAAV01@ABV01@@Z 429129e2 f i dh.obj
 0001:00011a15       ??1ModularArithmetic@CryptoPP@@UAE@XZ 42912a15 f i dh.obj
 0001:00011a6e       ??_FModularArithmetic@CryptoPP@@QAEXXZ 42912a6e f i dh.obj
 0001:00011a80       ??_EModularArithmetic@CryptoPP@@UAEPAXI@Z 42912a80 f i dh.obj
 0001:00011acb       ?Clone@MontgomeryRepresentation@CryptoPP@@UBEPAVModularArithmetic@2@XZ 42912acb f i dh.obj
 0001:00011b02       ?ConvertIn@MontgomeryRepresentation@CryptoPP@@UBE?AVInteger@2@ABV32@@Z 42912b02 f i dh.obj
 0001:00011b65       ?MultiplicativeIdentity@MontgomeryRepresentation@CryptoPP@@UBEABVInteger@2@XZ 42912b65 f i dh.obj
 0001:00011bd3       ?CascadeExponentiate@MontgomeryRepresentation@CryptoPP@@UBE?AVInteger@2@ABV32@000@Z 42912bd3 f i dh.obj
 0001:00011bf6       ?SimultaneousExponentiate@MontgomeryRepresentation@CryptoPP@@UBEXPAVInteger@2@ABV32@PBV32@I@Z 42912bf6 f i dh.obj
 0001:00011c0e       ??0MontgomeryRepresentation@CryptoPP@@QAE@ABV01@@Z 42912c0e f i dh.obj
 0001:00011c61       ??4MontgomeryRepresentation@CryptoPP@@QAEAAV01@ABV01@@Z 42912c61 f i dh.obj
 0001:00011c8e       ??1MontgomeryRepresentation@CryptoPP@@UAE@XZ 42912c8e f i dh.obj
 0001:00011cd9       ??_EMontgomeryRepresentation@CryptoPP@@UAEPAXI@Z 42912cd9 f i dh.obj
 0001:00011d24       ?MaxPreimage@TrapdoorFunctionBounds@CryptoPP@@UBE?AVInteger@2@XZ 42912d24 f i dh.obj
 0001:00011d79       ?MaxImage@TrapdoorFunctionBounds@CryptoPP@@UBE?AVInteger@2@XZ 42912d79 f i dh.obj
 0001:00011dce       ?ApplyRandomizedFunction@TrapdoorFunction@CryptoPP@@UBE?AVInteger@2@AAVRandomNumberGenerator@2@ABV32@@Z 42912dce f i dh.obj
 0001:00011de8       ?CalculateRandomizedInverse@TrapdoorFunctionInverse@CryptoPP@@UBE?AVInteger@2@AAVRandomNumberGenerator@2@ABV32@@Z 42912de8 f i dh.obj
 0001:00011e05       ??0TF_DecryptorBase@CryptoPP@@QAE@XZ 42912e05 f i dh.obj
 0001:00011e33       ??0TF_EncryptorBase@CryptoPP@@QAE@XZ 42912e33 f i dh.obj
 0001:00011e61       ??0DL_SignatureMessageEncodingMethod_DSA@CryptoPP@@QAE@XZ 42912e61 f i dh.obj
 0001:00011e6a       ?NextPut@FilterWithBufferedInput@CryptoPP@@MAEHPBEI@Z 42912e6a f i dh.obj
 0001:00011e6a       ?do_open@?$messages@D@std@@MBEHABV?$basic_string@DU?$char_traits@D@std@@V?$allocator@D@2@@2@ABVlocale@2@@Z 42912e6a f i dh.obj
 0001:00011e6a       ?do_open@?$messages@G@std@@MBEHABV?$basic_string@DU?$char_traits@D@std@@V?$allocator@D@2@@2@ABVlocale@2@@Z 42912e6a f i dh.obj
 0001:00011e6a       ?MinRepresentativeBitLength@PK_SignatureMessageEncodingMethod@CryptoPP@@UBEIII@Z 42912e6a f i dh.obj
 0001:00011e6f       ?MaxRecoverableLength@PK_SignatureMessageEncodingMethod@CryptoPP@@UBEIIII@Z 42912e6f f i dh.obj
 0001:00011e74       ?RecoverablePartFirst@PK_SignatureMessageEncodingMethod@CryptoPP@@UBE_NXZ 42912e74 f i dh.obj
 0001:00011ed0       ?ProcessRecoverableMessage@PK_SignatureMessageEncodingMethod@CryptoPP@@UBEXAAVHashTransformation@2@PBEI1IAAV?$SecBlock@EV?$AllocatorWithCleanup@E$0A@@CryptoPP@@@2@@Z 42912ed0 f i dh.obj
 0001:00011ed8       ?RecoverMessageFromRepresentative@PK_SignatureMessageEncodingMethod@CryptoPP@@UBE?AUDecodingResult@2@AAVHashTransformation@2@U?$pair@PBEI@std@@_NPAEI3@Z 42912ed8 f i dh.obj
 0001:00011f34       ?RecoverMessageFromSemisignature@PK_SignatureMessageEncodingMethod@CryptoPP@@UBE?AUDecodingResult@2@AAVHashTransformation@2@U?$pair@PBEI@std@@PBEI2IPAE@Z 42912f34 f i dh.obj
 0001:00011f90       ??0DL_SignatureMessageEncodingMethod_DSA@CryptoPP@@QAE@ABV01@@Z 42912f90 f i dh.obj
 0001:00011f9b       ??0DL_SignatureMessageEncodingMethod_NR@CryptoPP@@QAE@XZ 42912f9b f i dh.obj
 0001:00011fa4       ??0DL_SignatureMessageEncodingMethod_NR@CryptoPP@@QAE@ABV01@@Z 42912fa4 f i dh.obj
 0001:00011faf       ??_EDL_SignatureMessageEncodingMethod_DSA@CryptoPP@@UAEPAXI@Z 42912faf f i dh.obj
 0001:00011faf       ??_EDL_SignatureMessageEncodingMethod_NR@CryptoPP@@UAEPAXI@Z 42912faf f i dh.obj
 0001:00011ffa       ??0PK_MessageAccumulatorBase@CryptoPP@@QAE@XZ 42912ffa f i dh.obj
 0001:00012074       ?Update@PK_MessageAccumulatorBase@CryptoPP@@UAEXPBEI@Z 42913074 f i dh.obj
 0001:000120a2       ??0PK_MessageAccumulatorBase@CryptoPP@@QAE@ABV01@@Z 429130a2 f i dh.obj
 0001:0001212f       ??4PK_MessageAccumulatorBase@CryptoPP@@QAEAAV01@ABV01@@Z 4291312f f i dh.obj
 0001:0001218c       ??1PK_MessageAccumulatorBase@CryptoPP@@UAE@XZ 4291318c f i dh.obj
 0001:00012203       ??0TF_SignerBase@CryptoPP@@QAE@XZ 42913203 f i dh.obj
 0001:00012231       ??0TF_VerifierBase@CryptoPP@@QAE@XZ 42913231 f i dh.obj
 0001:0001225f       ??0?$DL_FixedBasePrecomputationImpl@VInteger@CryptoPP@@@CryptoPP@@QAE@ABV01@@Z 4291325f f i dh.obj
 0001:000122c4       ??4?$DL_FixedBasePrecomputationImpl@VInteger@CryptoPP@@@CryptoPP@@QAEAAV01@ABV01@@Z 429132c4 f i dh.obj
 0001:000122fd       ??1?$DL_FixedBasePrecomputationImpl@VInteger@CryptoPP@@@CryptoPP@@QAE@XZ 429132fd f i dh.obj
 0001:00012352       ??0HMAC_Base@CryptoPP@@QAE@XZ 42913352 f i dh.obj
 0001:00012395       ?OptimalBlockSize@HMAC_Base@CryptoPP@@UBEIXZ 42913395 f i dh.obj
 0001:000123a5       ?DigestSize@HMAC_Base@CryptoPP@@UBEIXZ 429133a5 f i dh.obj
 0001:000123b5       ?AccessOpad@HMAC_Base@CryptoPP@@IAEPAEXZ 429133b5 f i dh.obj
 0001:000123c9       ?AccessInnerHash@HMAC_Base@CryptoPP@@IAEPAEXZ 429133c9 f i dh.obj
 0001:000123de       ??0HMAC_Base@CryptoPP@@QAE@ABV01@@Z 429133de f i dh.obj
 0001:00012427       ??4HMAC_Base@CryptoPP@@QAEAAV01@ABV01@@Z 42913427 f i dh.obj
 0001:00012454       ??1HMAC_Base@CryptoPP@@UAE@XZ 42913454 f i dh.obj
 0001:0001247a       ??0?$DL_GroupParameters@VInteger@CryptoPP@@@CryptoPP@@QAE@ABV01@@Z 4291347a f i dh.obj
 0001:000124cc       ??0CryptoParameters@CryptoPP@@QAE@ABV01@@Z 429134cc f i dh.obj
 0001:000124e7       ??4?$DL_GroupParameters@VInteger@CryptoPP@@@CryptoPP@@QAEAAV01@ABV01@@Z 429134e7 f i dh.obj
 0001:000124e7       ??4?$DL_GroupParameters@UEC2NPoint@CryptoPP@@@CryptoPP@@QAEAAV01@ABV01@@Z 429134e7 f i dh.obj
 0001:000124e7       ??4?$DL_GroupParameters@UECPPoint@CryptoPP@@@CryptoPP@@QAEAAV01@ABV01@@Z 429134e7 f i dh.obj
 0001:00012502       ??_D?$DL_GroupParameters@VInteger@CryptoPP@@@CryptoPP@@QAEXXZ 42913502 f i dh.obj
 0001:00012516       ?Initialize@DL_GroupParameters_IntegerBased@CryptoPP@@QAEXABV12@@Z 42913516 f i dh.obj
 0001:0001255a       ?Initialize@DL_GroupParameters_IntegerBased@CryptoPP@@QAEXAAVRandomNumberGenerator@2@I@Z 4291355a f i dh.obj
 0001:000125b5       ?Initialize@DL_GroupParameters_IntegerBased@CryptoPP@@QAEXABVInteger@2@0@Z 429135b5 f i dh.obj
 0001:0001262c       ??KCryptoPP@@YA?AVInteger@0@ABV10@I@Z 4291362c f i dh.obj
 0001:00012647       ?Initialize@DL_GroupParameters_IntegerBased@CryptoPP@@QAEXABVInteger@2@00@Z 42913647 f i dh.obj
 0001:0001266b       ?GetGroupOrder@DL_GroupParameters_IntegerBased@CryptoPP@@UBE?AVInteger@2@XZ 4291366b f i dh.obj
 0001:0001272a       ??HCryptoPP@@YA?AVInteger@0@ABV10@0@Z 4291372a f i dh.obj
 0001:00012745       ?FastSubgroupCheckAvailable@DL_GroupParameters_IntegerBased@CryptoPP@@UBE_NXZ 42913745 f i dh.obj
 0001:000127b1       ?EncodeElement@DL_GroupParameters_IntegerBased@CryptoPP@@UBEX_NABVInteger@2@PAE@Z 429137b1 f i dh.obj
 0001:000127d4       ?GetEncodedElementSize@DL_GroupParameters_IntegerBased@CryptoPP@@UBEI_N@Z 429137d4 f i dh.obj
 0001:000127e7       ?ConvertElementToInteger@DL_GroupParameters_IntegerBased@CryptoPP@@UBE?AVInteger@2@ABV32@@Z 429137e7 f i dh.obj
 0001:000127e7       ?ConvertIn@?$DL_GroupPrecomputation@VInteger@CryptoPP@@@CryptoPP@@UBE?AVInteger@2@ABV32@@Z 429137e7 f i dh.obj
 0001:000127e7       ?ConvertOut@?$DL_GroupPrecomputation@VInteger@CryptoPP@@@CryptoPP@@UBE?AVInteger@2@ABV32@@Z 429137e7 f i dh.obj
 0001:000127e7       ?ConvertOut@ModularArithmetic@CryptoPP@@UBE?AVInteger@2@ABV32@@Z 429137e7 f i dh.obj
 0001:00012801       ?StaticAlgorithmNamePrefix@DL_GroupParameters_IntegerBased@CryptoPP@@SA?AV?$basic_string@DU?$char_traits@D@std@@V?$allocator@D@2@@std@@XZ 42913801 f i dh.obj
 0001:00012837       ?SetSubgroupOrder@DL_GroupParameters_IntegerBased@CryptoPP@@QAEXABVInteger@2@@Z 42913837 f i dh.obj
 0001:0001284e       ?ComputeGroupOrder@DL_GroupParameters_IntegerBased@CryptoPP@@IBE?AVInteger@2@ABV32@@Z 4291384e f i dh.obj
 0001:000128b2       ??0DL_GroupParameters_IntegerBased@CryptoPP@@QAE@XZ 429138b2 f i dh.obj
 0001:0001290c       ??0DL_GroupParameters_IntegerBased@CryptoPP@@QAE@ABV01@@Z 4291390c f i dh.obj
 0001:00012968       ??4DL_GroupParameters_IntegerBased@CryptoPP@@QAEAAV01@ABV01@@Z 42913968 f i dh.obj
 0001:00012989       ??1DL_GroupParameters_IntegerBased@CryptoPP@@UAE@XZ 42913989 f i dh.obj
 0001:000129ba       ??_DDL_GroupParameters_IntegerBased@CryptoPP@@QAEXXZ 429139ba f i dh.obj
 0001:000129cc       ??0?$ASN1CryptoMaterial@V?$DL_GroupParameters@VInteger@CryptoPP@@@CryptoPP@@@CryptoPP@@QAE@ABV01@@Z 429139cc f i dh.obj
 0001:00012a21       ??4?$ASN1CryptoMaterial@V?$DL_GroupParameters@VInteger@CryptoPP@@@CryptoPP@@@CryptoPP@@QAEAAV01@ABV01@@Z 42913a21 f i dh.obj
 0001:00012a42       ??0?$DL_GroupParameters_IntegerBasedImpl@VModExpPrecomputation@CryptoPP@@V?$DL_FixedBasePrecomputationImpl@VInteger@CryptoPP@@@2@@CryptoPP@@QAE@XZ 42913a42 f i dh.obj
 0001:00012a88       ??0?$DL_GroupParameters_IntegerBasedImpl@VModExpPrecomputation@CryptoPP@@V?$DL_FixedBasePrecomputationImpl@VInteger@CryptoPP@@@2@@CryptoPP@@QAE@ABV01@@Z 42913a88 f i dh.obj
 0001:00012ad1       ??4?$DL_GroupParameters_IntegerBasedImpl@VModExpPrecomputation@CryptoPP@@V?$DL_FixedBasePrecomputationImpl@VInteger@CryptoPP@@@2@@CryptoPP@@QAEAAV01@ABV01@@Z 42913ad1 f i dh.obj
 0001:00012ae3       ??1DL_GroupParameters_GFP@CryptoPP@@UAE@XZ 42913ae3 f i dh.obj
 0001:00012ae3       ??1DL_GroupParameters_DSA@CryptoPP@@UAE@XZ 42913ae3 f i dh.obj
 0001:00012ae3       ??1DL_GroupParameters_GFP_DefaultSafePrime@CryptoPP@@UAE@XZ 42913ae3 f i dh.obj
 0001:00012ae3       ??1?$DL_GroupParameters_IntegerBasedImpl@VModExpPrecomputation@CryptoPP@@V?$DL_FixedBasePrecomputationImpl@VInteger@CryptoPP@@@2@@CryptoPP@@UAE@XZ 42913ae3 f i dh.obj
 0001:00012ae8       ??0?$DL_GroupParametersImpl@VModExpPrecomputation@CryptoPP@@V?$DL_FixedBasePrecomputationImpl@VInteger@CryptoPP@@@2@VDL_GroupParameters_IntegerBased@2@@CryptoPP@@QAE@XZ 42913ae8 f i dh.obj
 0001:00012b6f       ?ConvertIn@ModExpPrecomputation@CryptoPP@@UBE?AVInteger@2@ABV32@@Z 42913b6f f i dh.obj
 0001:00012b8c       ?ConvertOut@ModExpPrecomputation@CryptoPP@@UBE?AVInteger@2@ABV32@@Z 42913b8c f i dh.obj
 0001:00012ba9       ?GetGroup@ModExpPrecomputation@CryptoPP@@UBEABV?$AbstractGroup@VInteger@CryptoPP@@@2@XZ 42913ba9 f i dh.obj
 0001:00012bb1       ?BERDecodeElement@ModExpPrecomputation@CryptoPP@@UBE?AVInteger@2@AAVBufferedTransformation@2@@Z 42913bb1 f i dh.obj
 0001:00012bcb       ?DEREncodeElement@ModExpPrecomputation@CryptoPP@@UBEXAAVBufferedTransformation@2@ABVInteger@2@@Z 42913bcb f i dh.obj
 0001:00012bdb       ??1?$DL_GroupParametersImpl@VModExpPrecomputation@CryptoPP@@V?$DL_FixedBasePrecomputationImpl@VInteger@CryptoPP@@@2@VDL_GroupParameters_IntegerBased@2@@CryptoPP@@UAE@XZ 42913bdb f i dh.obj
 0001:00012c2e       ??0?$DL_GroupParametersImpl@VModExpPrecomputation@CryptoPP@@V?$DL_FixedBasePrecomputationImpl@VInteger@CryptoPP@@@2@VDL_GroupParameters_IntegerBased@2@@CryptoPP@@QAE@ABV01@@Z 42913c2e f i dh.obj
 0001:00012cce       ??4?$DL_GroupParametersImpl@VModExpPrecomputation@CryptoPP@@V?$DL_FixedBasePrecomputationImpl@VInteger@CryptoPP@@@2@VDL_GroupParameters_IntegerBased@2@@CryptoPP@@QAEAAV01@ABV01@@Z 42913cce f i dh.obj
 0001:00012cfb       ??_G?$DL_GroupParametersImpl@VModExpPrecomputation@CryptoPP@@V?$DL_FixedBasePrecomputationImpl@VInteger@CryptoPP@@@2@VDL_GroupParameters_IntegerBased@2@@CryptoPP@@UAEPAXI@Z 42913cfb f i dh.obj
 0001:00012cfb       ??_E?$DL_GroupParametersImpl@VModExpPrecomputation@CryptoPP@@V?$DL_FixedBasePrecomputationImpl@VInteger@CryptoPP@@@2@VDL_GroupParameters_IntegerBased@2@@CryptoPP@@UAEPAXI@Z 42913cfb f i dh.obj
 0001:00012d1f       ??1ModExpPrecomputation@CryptoPP@@QAE@XZ 42913d1f f i dh.obj
 0001:00012d27       ?IsIdentity@DL_GroupParameters_GFP@CryptoPP@@UBE_NABVInteger@2@@Z 42913d27 f i dh.obj
 0001:00012d3e       ?GetVoidValue@DL_GroupParameters_GFP@CryptoPP@@UBE_NPBDABVtype_info@@PAX@Z 42913d3e f i dh.obj
 0001:00012d78       ??0DL_GroupParameters_GFP@CryptoPP@@QAE@XZ 42913d78 f i dh.obj
 0001:00012de5       ??0DL_GroupParameters_GFP@CryptoPP@@QAE@ABV01@@Z 42913de5 f i dh.obj
 0001:00012e55       ??4DL_GroupParameters_GFP@CryptoPP@@QAEAAV01@ABV01@@Z 42913e55 f i dh.obj
 0001:00012e67       ?GetDefaultSubgroupOrderSize@DL_GroupParameters_GFP_DefaultSafePrime@CryptoPP@@MBEII@Z 42913e67 f i dh.obj
 0001:00012e6f       ??0DL_GroupParameters_GFP_DefaultSafePrime@CryptoPP@@QAE@XZ 42913e6f f i dh.obj
 0001:00012edc       ??0DL_GroupParameters_GFP_DefaultSafePrime@CryptoPP@@QAE@ABV01@@Z 42913edc f i dh.obj
 0001:00012f4c       ??4DL_GroupParameters_DSA@CryptoPP@@QAEAAV01@ABV01@@Z 42913f4c f i dh.obj
 0001:00012f4c       ??4DL_GroupParameters_GFP_DefaultSafePrime@CryptoPP@@QAEAAV01@ABV01@@Z 42913f4c f i dh.obj
 0001:00012f5e       ??_EDL_GroupParameters_GFP@CryptoPP@@UAEPAXI@Z 42913f5e f i dh.obj
 0001:00012f5e       ??_EDL_GroupParameters_DSA@CryptoPP@@UAEPAXI@Z 42913f5e f i dh.obj
 0001:00012f5e       ??_EDL_GroupParameters_GFP_DefaultSafePrime@CryptoPP@@UAEPAXI@Z 42913f5e f i dh.obj
 0001:00012fb1       ??0?$DL_Algorithm_GDSA@VInteger@CryptoPP@@@CryptoPP@@QAE@XZ 42913fb1 f i dh.obj
 0001:00012fba       ??0?$DL_Algorithm_GDSA@VInteger@CryptoPP@@@CryptoPP@@QAE@ABV01@@Z 42913fba f i dh.obj
 0001:00012fc5       ??0DL_GroupParameters_DSA@CryptoPP@@QAE@XZ 42913fc5 f i dh.obj
 0001:00013032       ??0DL_GroupParameters_DSA@CryptoPP@@QAE@ABV01@@Z 42914032 f i dh.obj
 0001:000130a2       ??_DDL_GroupParameters_DSA@CryptoPP@@QAEXXZ 429140a2 f i dh.obj
 0001:000130a2       ??_DDL_GroupParameters_GFP_DefaultSafePrime@CryptoPP@@QAEXXZ 429140a2 f i dh.obj
 0001:000130a2       ??_D?$DL_GroupParameters_IntegerBasedImpl@VModExpPrecomputation@CryptoPP@@V?$DL_FixedBasePrecomputationImpl@VInteger@CryptoPP@@@2@@CryptoPP@@QAEXXZ 429140a2 f i dh.obj
 0001:000130a2       ??_DDL_GroupParameters_GFP@CryptoPP@@QAEXXZ 429140a2 f i dh.obj
 0001:000130b4       ?StaticAlgorithmName@DSA@CryptoPP@@SAPBDXZ 429140b4 f i dh.obj
 0001:000130ba       ?IsValidPrimeLength@DSA@CryptoPP@@SA_NI@Z 429140ba f i dh.obj
 0001:000130d5       ??4?$AllocatorWithCleanup@E$0A@@CryptoPP@@QAEAAV01@ABV01@@Z 429140d5 f i dh.obj
 0001:000130d5       ??4Empty@CryptoPP@@QAEAAV01@ABV01@@Z 429140d5 f i dh.obj
 0001:000130d5       ??4?$AllocatorWithCleanup@I$00@CryptoPP@@QAEAAV01@ABV01@@Z 429140d5 f i dh.obj
 0001:000130d5       ??4RSA@CryptoPP@@QAEAAU01@ABU01@@Z 429140d5 f i dh.obj
 0001:000130d5       ??4?$EMSA2HashId@VSHA224@CryptoPP@@@CryptoPP@@QAEAAV01@ABV01@@Z 429140d5 f i dh.obj
 0001:000130d5       ??4DSA@CryptoPP@@QAEAAU01@ABU01@@Z 429140d5 f i dh.obj
 0001:000130d5       ??4?$AllocatorWithCleanup@I$0A@@CryptoPP@@QAEAAV01@ABV01@@Z 429140d5 f i dh.obj
 0001:000130d5       ??4?$EMSA2HashId@VSHA384@CryptoPP@@@CryptoPP@@QAEAAV01@ABV01@@Z 429140d5 f i dh.obj
 0001:000130d5       ??4?$AllocatorWithCleanup@G$0A@@CryptoPP@@QAEAAV01@ABV01@@Z 429140d5 f i dh.obj
 0001:000130d5       ??4RSA_ISO@CryptoPP@@QAEAAU01@ABU01@@Z 429140d5 f i dh.obj
 0001:000130d5       ??4?$AllocatorWithCleanup@_K$0A@@CryptoPP@@QAEAAV01@ABV01@@Z 429140d5 f i dh.obj
 0001:000130d5       ??4?$EMSA2HashId@VSHA512@CryptoPP@@@CryptoPP@@QAEAAV01@ABV01@@Z 429140d5 f i dh.obj
 0001:000130d5       ??4?$EMSA2HashId@VSHA1@CryptoPP@@@CryptoPP@@QAEAAV01@ABV01@@Z 429140d5 f i dh.obj
 0001:000130d5       ??4?$PKCS_DigestDecoration@VSHA256@CryptoPP@@@CryptoPP@@QAEAAV01@ABV01@@Z 429140d5 f i dh.obj
 0001:000130d5       ??4?$PKCS_DigestDecoration@VSHA1@CryptoPP@@@CryptoPP@@QAEAAV01@ABV01@@Z 429140d5 f i dh.obj
 0001:000130d5       ??4?$EMSA2HashId@VSHA256@CryptoPP@@@CryptoPP@@QAEAAV01@ABV01@@Z 429140d5 f i dh.obj
 0001:000130d5       ??4?$PKCS_DigestDecoration@VSHA512@CryptoPP@@@CryptoPP@@QAEAAV01@ABV01@@Z 429140d5 f i dh.obj
 0001:000130d5       ??4?$PKCS_DigestDecoration@VSHA224@CryptoPP@@@CryptoPP@@QAEAAV01@ABV01@@Z 429140d5 f i dh.obj
 0001:000130d5       ??4?$PKCS_DigestDecoration@VSHA384@CryptoPP@@@CryptoPP@@QAEAAV01@ABV01@@Z 429140d5 f i dh.obj
 0001:000130e2       ??0?$DL_PublicKey_GFP@VDL_GroupParameters_DSA@CryptoPP@@@CryptoPP@@QAE@XZ 429140e2 f i dh.obj
 0001:00013143       ??0?$DL_PublicKey_GFP@VDL_GroupParameters_DSA@CryptoPP@@@CryptoPP@@QAE@ABV01@@Z 42914143 f i dh.obj
 0001:000131a7       ??4?$DL_PublicKey_GFP@VDL_GroupParameters_DSA@CryptoPP@@@CryptoPP@@QAEAAV01@ABV01@@Z 429141a7 f i dh.obj
 0001:000131b9       ??1?$DL_PublicKey_GFP@VDL_GroupParameters_DSA@CryptoPP@@@CryptoPP@@UAE@XZ 429141b9 f i dh.obj
 0001:000131be       ??_D?$DL_PublicKey_GFP@VDL_GroupParameters_DSA@CryptoPP@@@CryptoPP@@QAEXXZ 429141be f i dh.obj
 0001:000131d6       ??_E?$DL_PublicKey_GFP@VDL_GroupParameters_DSA@CryptoPP@@@CryptoPP@@UAEPAXI@Z 429141d6 f i dh.obj
 0001:00013224       ??0?$DL_PublicKeyImpl@VDL_GroupParameters_DSA@CryptoPP@@@CryptoPP@@QAE@XZ 42914224 f i dh.obj
 0001:00013298       ??1?$DL_PublicKeyImpl@VDL_GroupParameters_DSA@CryptoPP@@@CryptoPP@@UAE@XZ 42914298 f i dh.obj
 0001:000132dd       ??0?$DL_PublicKeyImpl@VDL_GroupParameters_DSA@CryptoPP@@@CryptoPP@@QAE@ABV01@@Z 429142dd f i dh.obj
 0001:0001336c       ??4?$DL_PublicKeyImpl@VDL_GroupParameters_DSA@CryptoPP@@@CryptoPP@@QAEAAV01@ABV01@@Z 4291436c f i dh.obj
 0001:000133a1       ??_E?$DL_PublicKeyImpl@VDL_GroupParameters_DSA@CryptoPP@@@CryptoPP@@UAEPAXI@Z 429143a1 f i dh.obj
 0001:000133a1       ??_G?$DL_PublicKeyImpl@VDL_GroupParameters_DSA@CryptoPP@@@CryptoPP@@UAEPAXI@Z 429143a1 f i dh.obj
 0001:000133cc       ??0?$DL_KeyImpl@VX509PublicKey@CryptoPP@@VDL_GroupParameters_DSA@2@VOID@2@@CryptoPP@@QAE@XZ 429143cc f i dh.obj
 0001:00013430       ??1?$DL_KeyImpl@VX509PublicKey@CryptoPP@@VDL_GroupParameters_DSA@2@VOID@2@@CryptoPP@@UAE@XZ 42914430 f i dh.obj
 0001:00013456       ??0?$DL_KeyImpl@VX509PublicKey@CryptoPP@@VDL_GroupParameters_DSA@2@VOID@2@@CryptoPP@@QAE@ABV01@@Z 42914456 f i dh.obj
 0001:000134c7       ??4?$DL_KeyImpl@VX509PublicKey@CryptoPP@@VDL_GroupParameters_DSA@2@VOID@2@@CryptoPP@@QAEAAV01@ABV01@@Z 429144c7 f i dh.obj
 0001:000134e8       ??_E?$DL_KeyImpl@VX509PublicKey@CryptoPP@@VDL_GroupParameters_DSA@2@VOID@2@@CryptoPP@@UAEPAXI@Z 429144e8 f i dh.obj
 0001:000134e8       ??_G?$DL_KeyImpl@VX509PublicKey@CryptoPP@@VDL_GroupParameters_DSA@2@VOID@2@@CryptoPP@@UAEPAXI@Z 429144e8 f i dh.obj
 0001:0001350c       ??0?$DL_PrivateKey_GFP@VDL_GroupParameters_DSA@CryptoPP@@@CryptoPP@@QAE@XZ 4291450c f i dh.obj
 0001:00013574       ??0?$DL_PrivateKey_GFP@VDL_GroupParameters_DSA@CryptoPP@@@CryptoPP@@QAE@ABV01@@Z 42914574 f i dh.obj
 0001:000135df       ??4?$DL_PrivateKey_GFP@VDL_GroupParameters_DSA@CryptoPP@@@CryptoPP@@QAEAAV01@ABV01@@Z 429145df f i dh.obj
 0001:000135f1       ??1?$DL_PrivateKey_WithSignaturePairwiseConsistencyTest@V?$DL_PrivateKey_GFP@VDL_GroupParameters_DSA@CryptoPP@@@CryptoPP@@UDSA@2@@CryptoPP@@UAE@XZ 429145f1 f i dh.obj
 0001:000135f1       ??1?$DL_PrivateKey_GFP@VDL_GroupParameters_DSA@CryptoPP@@@CryptoPP@@UAE@XZ 429145f1 f i dh.obj
 0001:000135f6       ??0?$DL_PrivateKeyImpl@VDL_GroupParameters_DSA@CryptoPP@@@CryptoPP@@QAE@XZ 429145f6 f i dh.obj
 0001:00013671       ??1?$DL_PrivateKeyImpl@VDL_GroupParameters_DSA@CryptoPP@@@CryptoPP@@UAE@XZ 42914671 f i dh.obj
 0001:000136d5       ??0?$DL_PrivateKeyImpl@VDL_GroupParameters_DSA@CryptoPP@@@CryptoPP@@QAE@ABV01@@Z 429146d5 f i dh.obj
 0001:0001376b       ??4?$DL_PrivateKeyImpl@VDL_GroupParameters_DSA@CryptoPP@@@CryptoPP@@QAEAAV01@ABV01@@Z 4291476b f i dh.obj
 0001:000137a0       ??_G?$DL_PrivateKeyImpl@VDL_GroupParameters_DSA@CryptoPP@@@CryptoPP@@UAEPAXI@Z 429147a0 f i dh.obj
 0001:000137a0       ??_E?$DL_PrivateKeyImpl@VDL_GroupParameters_DSA@CryptoPP@@@CryptoPP@@UAEPAXI@Z 429147a0 f i dh.obj
 0001:000137cb       ??0?$DL_KeyImpl@VPKCS8PrivateKey@CryptoPP@@VDL_GroupParameters_DSA@2@VOID@2@@CryptoPP@@QAE@XZ 429147cb f i dh.obj
 0001:00013839       ??1?$DL_KeyImpl@VPKCS8PrivateKey@CryptoPP@@VDL_GroupParameters_DSA@2@VOID@2@@CryptoPP@@UAE@XZ 42914839 f i dh.obj
 0001:00013872       ??0?$DL_KeyImpl@VPKCS8PrivateKey@CryptoPP@@VDL_GroupParameters_DSA@2@VOID@2@@CryptoPP@@QAE@ABV01@@Z 42914872 f i dh.obj
 0001:000138ea       ??4?$DL_KeyImpl@VPKCS8PrivateKey@CryptoPP@@VDL_GroupParameters_DSA@2@VOID@2@@CryptoPP@@QAEAAV01@ABV01@@Z 429148ea f i dh.obj
 0001:0001390b       ??_G?$DL_KeyImpl@VPKCS8PrivateKey@CryptoPP@@VDL_GroupParameters_DSA@2@VOID@2@@CryptoPP@@UAEPAXI@Z 4291490b f i dh.obj
 0001:0001390b       ??_E?$DL_KeyImpl@VPKCS8PrivateKey@CryptoPP@@VDL_GroupParameters_DSA@2@VOID@2@@CryptoPP@@UAEPAXI@Z 4291490b f i dh.obj
 0001:00013932       ??0?$DL_PrivateKey_WithSignaturePairwiseConsistencyTest@V?$DL_PrivateKey_GFP@VDL_GroupParameters_DSA@CryptoPP@@@CryptoPP@@UDSA@2@@CryptoPP@@QAE@XZ 42914932 f i dh.obj
 0001:0001399a       ??0?$DL_PrivateKey_WithSignaturePairwiseConsistencyTest@V?$DL_PrivateKey_GFP@VDL_GroupParameters_DSA@CryptoPP@@@CryptoPP@@UDSA@2@@CryptoPP@@QAE@ABV01@@Z 4291499a f i dh.obj
 0001:00013a05       ??4?$DL_PrivateKey_WithSignaturePairwiseConsistencyTest@V?$DL_PrivateKey_GFP@VDL_GroupParameters_DSA@CryptoPP@@@CryptoPP@@UDSA@2@@CryptoPP@@QAEAAV01@ABV01@@Z 42914a05 f i dh.obj
 0001:00013a17       ??_D?$DL_PrivateKey_WithSignaturePairwiseConsistencyTest@V?$DL_PrivateKey_GFP@VDL_GroupParameters_DSA@CryptoPP@@@CryptoPP@@UDSA@2@@CryptoPP@@QAEXXZ 42914a17 f i dh.obj
 0001:00013a17       ??_D?$DL_PrivateKey_GFP@VDL_GroupParameters_DSA@CryptoPP@@@CryptoPP@@QAEXXZ 42914a17 f i dh.obj
 0001:00013a2f       ??_E?$DL_PrivateKey_GFP@VDL_GroupParameters_DSA@CryptoPP@@@CryptoPP@@UAEPAXI@Z 42914a2f f i dh.obj
 0001:00013a2f       ??_E?$DL_PrivateKey_WithSignaturePairwiseConsistencyTest@V?$DL_PrivateKey_GFP@VDL_GroupParameters_DSA@CryptoPP@@@CryptoPP@@UDSA@2@@CryptoPP@@UAEPAXI@Z 42914a2f f i dh.obj
 0001:00013a7d       ??0?$DH_Domain@VDL_GroupParameters_GFP_DefaultSafePrime@CryptoPP@@U?$EnumToType@W4CofactorMultiplicationOption@CryptoPP@@$0A@@2@@CryptoPP@@QAE@ABV01@@Z 42914a7d f i dh.obj
 0001:00013aba       ?AccessMaterial@PrivateKeyAlgorithm@CryptoPP@@UAEAAVCryptoMaterial@2@XZ 42914aba f i dh.obj
 0001:00013aba       ?AccessMaterial@KeyAgreementAlgorithm@CryptoPP@@UAEAAVCryptoMaterial@2@XZ 42914aba f i dh.obj
 0001:00013acf       ?GetMaterial@KeyAgreementAlgorithm@CryptoPP@@UBEABVCryptoMaterial@2@XZ 42914acf f i dh.obj
 0001:00013acf       ?GetMaterial@PrivateKeyAlgorithm@CryptoPP@@UBEABVCryptoMaterial@2@XZ 42914acf f i dh.obj
 0001:00013ae4       ??4?$DH_Domain@VDL_GroupParameters_GFP_DefaultSafePrime@CryptoPP@@U?$EnumToType@W4CofactorMultiplicationOption@CryptoPP@@$0A@@2@@CryptoPP@@QAEAAV01@ABV01@@Z 42914ae4 f i dh.obj
 0001:00013afd       ??1?$DH_Domain@VDL_GroupParameters_GFP_DefaultSafePrime@CryptoPP@@U?$EnumToType@W4CofactorMultiplicationOption@CryptoPP@@$0A@@2@@CryptoPP@@UAE@XZ 42914afd f i dh.obj
 0001:00013b23       ??_E?$DH_Domain@VDL_GroupParameters_GFP_DefaultSafePrime@CryptoPP@@U?$EnumToType@W4CofactorMultiplicationOption@CryptoPP@@$0A@@2@@CryptoPP@@UAEPAXI@Z 42914b23 f i dh.obj
 0001:00013b6e       ?resize@?$SecBlock@IV?$AllocatorWithCleanup@I$00@CryptoPP@@@CryptoPP@@QAEXI@Z 42914b6e f i dh.obj
 0001:00013b95       ??0?$AbstractRing@VInteger@CryptoPP@@@CryptoPP@@QAE@XZ 42914b95 f i dh.obj
 0001:00013ba2       ??0?$AbstractRing@VInteger@CryptoPP@@@CryptoPP@@QAE@ABV01@@Z 42914ba2 f i dh.obj
 0001:00013bb1       ??0KeyAgreementAlgorithm@CryptoPP@@QAE@ABV01@@Z 42914bb1 f i dh.obj
 0001:00013bb1       ??0?$AbstractPolicyHolder@UAdditiveCipherAbstractPolicy@CryptoPP@@VSymmetricCipher@2@@CryptoPP@@QAE@ABV01@@Z 42914bb1 f i dh.obj
 0001:00013bb1       ??4TF_SignerBase@CryptoPP@@QAEAAV01@ABV01@@Z 42914bb1 f i dh.obj
 0001:00013bb1       ??0RandomizedTrapdoorFunction@CryptoPP@@QAE@ABV01@@Z 42914bb1 f i dh.obj
 0001:00013bb1       ??4?$AbstractGroup@VInteger@CryptoPP@@@CryptoPP@@QAEAAV01@ABV01@@Z 42914bb1 f i dh.obj
 0001:00013bb1       ??4AdditiveCipherAbstractPolicy@CryptoPP@@QAEAAU01@ABU01@@Z 42914bb1 f i dh.obj
 0001:00013bb1       ??4CryptoParameters@CryptoPP@@QAEAAV01@ABV01@@Z 42914bb1 f i dh.obj
 0001:00013bb1       ??4DL_SignatureMessageEncodingMethod_NR@CryptoPP@@QAEAAV01@ABV01@@Z 42914bb1 f i dh.obj
 0001:00013bb1       ??4AsymmetricAlgorithm@CryptoPP@@QAEAAV01@ABV01@@Z 42914bb1 f i dh.obj
 0001:00013bb1       ??4TF_DecryptorBase@CryptoPP@@QAEAAV01@ABV01@@Z 42914bb1 f i dh.obj
 0001:00013bb1       ??4PK_RecoverableSignatureMessageEncodingMethod@CryptoPP@@QAEAAV01@ABV01@@Z 42914bb1 f i dh.obj
 0001:00013bb1       ??0AuthenticatedKeyAgreementDomain@CryptoPP@@QAE@ABV01@@Z 42914bb1 f i dh.obj
 0001:00013bb1       ??4?$AbstractRing@VInteger@CryptoPP@@@CryptoPP@@QAEAAV01@ABV01@@Z 42914bb1 f i dh.obj
 0001:00013bb1       ??0SymmetricCipher@CryptoPP@@QAE@ABV01@@Z 42914bb1 f i dh.obj
 0001:00013bb1       ??4AuthenticatedKeyAgreementDomain@CryptoPP@@QAEAAV01@ABV01@@Z 42914bb1 f i dh.obj
 0001:00013bb1       ??0PK_DeterministicSignatureMessageEncodingMethod@CryptoPP@@QAE@ABV01@@Z 42914bb1 f i dh.obj
 0001:00013bb1       ??0PK_RecoverableSignatureMessageEncodingMethod@CryptoPP@@QAE@ABV01@@Z 42914bb1 f i dh.obj
 0001:00013bb1       ??4TF_VerifierBase@CryptoPP@@QAEAAV01@ABV01@@Z 42914bb1 f i dh.obj
 0001:00013bb1       ??4PrivateKeyAlgorithm@CryptoPP@@QAEAAV01@ABV01@@Z 42914bb1 f i dh.obj
 0001:00013bb1       ??4PK_Signer@CryptoPP@@QAEAAV01@ABV01@@Z 42914bb1 f i dh.obj
 0001:00013bb1       ??4SymmetricCipher@CryptoPP@@QAEAAV01@ABV01@@Z 42914bb1 f i dh.obj
 0001:00013bb1       ??4PK_SignatureScheme@CryptoPP@@QAEAAV01@ABV01@@Z 42914bb1 f i dh.obj
 0001:00013bb1       ??0?$AbstractGroup@UECPPoint@CryptoPP@@@CryptoPP@@QAE@ABV01@@Z 42914bb1 f i dh.obj
 0001:00013bb1       ??0AsymmetricAlgorithm@CryptoPP@@QAE@ABV01@@Z 42914bb1 f i dh.obj
 0001:00013bb1       ??0?$AbstractGroup@UEC2NPoint@CryptoPP@@@CryptoPP@@QAE@ABV01@@Z 42914bb1 f i dh.obj
 0001:00013bb1       ??4?$AbstractPolicyHolder@UAdditiveCipherAbstractPolicy@CryptoPP@@VSymmetricCipher@2@@CryptoPP@@QAEAAV01@ABV01@@Z 42914bb1 f i dh.obj
 0001:00013bb1       ??0CryptoMaterial@CryptoPP@@QAE@ABV01@@Z 42914bb1 f i dh.obj
 0001:00013bb1       ??4HashTransformation@CryptoPP@@QAEAAV01@ABV01@@Z 42914bb1 f i dh.obj
 0001:00013bb1       ??0TF_SignerBase@CryptoPP@@QAE@ABV01@@Z 42914bb1 f i dh.obj
 0001:00013bb1       ??4TrapdoorFunctionInverse@CryptoPP@@QAEAAV01@ABV01@@Z 42914bb1 f i dh.obj
 0001:00013bb1       ??0TF_DecryptorBase@CryptoPP@@QAE@ABV01@@Z 42914bb1 f i dh.obj
 0001:00013bb1       ??0RandomizedTrapdoorFunctionInverse@CryptoPP@@QAE@ABV01@@Z 42914bb1 f i dh.obj
 0001:00013bb1       ??4PSSR_MEM_Base@CryptoPP@@QAEAAV01@ABV01@@Z 42914bb1 f i dh.obj
 0001:00013bb1       ??0TrapdoorFunctionInverse@CryptoPP@@QAE@ABV01@@Z 42914bb1 f i dh.obj
 0001:00013bb1       ??0PrivateKeyAlgorithm@CryptoPP@@QAE@ABV01@@Z 42914bb1 f i dh.obj
 0001:00013bb1       ??4PK_DeterministicSignatureMessageEncodingMethod@CryptoPP@@QAEAAV01@ABV01@@Z 42914bb1 f i dh.obj
 0001:00013bb1       ??4PublicKey@CryptoPP@@QAEAAV01@ABV01@@Z 42914bb1 f i dh.obj
 0001:00013bb1       ??0CFB_CipherAbstractPolicy@CryptoPP@@QAE@ABV01@@Z 42914bb1 f i dh.obj
 0001:00013bb1       ??4GeneratableCryptoMaterial@CryptoPP@@QAEAAV01@ABV01@@Z 42914bb1 f i dh.obj
 0001:00013bb1       ??4TF_EncryptorBase@CryptoPP@@QAEAAV01@ABV01@@Z 42914bb1 f i dh.obj
 0001:00013bb1       ??4TrapdoorFunctionBounds@CryptoPP@@QAEAAV01@ABV01@@Z 42914bb1 f i dh.obj
 0001:00013bb1       ??0TF_EncryptorBase@CryptoPP@@QAE@ABV01@@Z 42914bb1 f i dh.obj
 0001:00013bb1       ??4CryptoMaterial@CryptoPP@@QAEAAV01@ABV01@@Z 42914bb1 f i dh.obj
 0001:00013bb1       ??0ASN1Object@CryptoPP@@QAE@ABV01@@Z 42914bb1 f i dh.obj
 0001:00013bb1       ??4PKCS1v15_SignatureMessageEncodingMethod@CryptoPP@@QAEAAV01@ABV01@@Z 42914bb1 f i dh.obj
 0001:00013bb1       ??0RandomNumberGenerator@CryptoPP@@QAE@ABV01@@Z 42914bb1 f i dh.obj
 0001:00013bb1       ??0Algorithm@CryptoPP@@QAE@ABV01@@Z 42914bb1 f i dh.obj
 0001:00013bb1       ??4SimpleKeyAgreementDomain@CryptoPP@@QAEAAV01@ABV01@@Z 42914bb1 f i dh.obj
 0001:00013bb1       ??4StreamTransformation@CryptoPP@@QAEAAV01@ABV01@@Z 42914bb1 f i dh.obj
 0001:00013bb1       ??4?$DL_Algorithm_GDSA@VInteger@CryptoPP@@@CryptoPP@@QAEAAV01@ABV01@@Z 42914bb1 f i dh.obj
 0001:00013bb1       ??0?$AbstractGroup@VPolynomialMod2@CryptoPP@@@CryptoPP@@QAE@ABV01@@Z 42914bb1 f i dh.obj
 0001:00013bb1       ??4PrimeSelector@CryptoPP@@QAEAAV01@ABV01@@Z 42914bb1 f i dh.obj
 0001:00013bb1       ??4PK_Decryptor@CryptoPP@@QAEAAV01@ABV01@@Z 42914bb1 f i dh.obj
 0001:00013bb1       ??0SimpleKeyAgreementDomain@CryptoPP@@QAE@ABV01@@Z 42914bb1 f i dh.obj
 0001:00013bb1       ??4PK_CryptoSystem@CryptoPP@@QAEAAV01@ABV01@@Z 42914bb1 f i dh.obj
 0001:00013bb1       ??4PK_Verifier@CryptoPP@@QAEAAV01@ABV01@@Z 42914bb1 f i dh.obj
 0001:00013bb1       ??4AuthenticatedSymmetricCipher@CryptoPP@@QAEAAV01@ABV01@@Z 42914bb1 f i dh.obj
 0001:00013bb1       ??4Algorithm@CryptoPP@@QAEAAV01@ABV01@@Z 42914bb1 f i dh.obj
 0001:00013bb1       ??4?$DL_GroupPrecomputation@UECPPoint@CryptoPP@@@CryptoPP@@QAEAAV01@ABV01@@Z 42914bb1 f i dh.obj
 0001:00013bb1       ??4DL_SignatureMessageEncodingMethod_DSA@CryptoPP@@QAEAAV01@ABV01@@Z 42914bb1 f i dh.obj
 0001:00013bb1       ??4RandomNumberGenerator@CryptoPP@@QAEAAV01@ABV01@@Z 42914bb1 f i dh.obj
 0001:00013bb1       ??0PublicKeyAlgorithm@CryptoPP@@QAE@ABV01@@Z 42914bb1 f i dh.obj
 0001:00013bb1       ??0Clonable@CryptoPP@@QAE@ABV01@@Z 42914bb1 f i dh.obj
 0001:00013bb1       ??0PK_Decryptor@CryptoPP@@QAE@ABV01@@Z 42914bb1 f i dh.obj
 0001:00013bb1       ??4TrapdoorFunction@CryptoPP@@QAEAAV01@ABV01@@Z 42914bb1 f i dh.obj
 0001:00013bb1       ??4NonblockingRng@CryptoPP@@QAEAAV01@ABV01@@Z 42914bb1 f i dh.obj
 0001:00013bb1       ??0PK_SignatureScheme@CryptoPP@@QAE@ABV01@@Z 42914bb1 f i dh.obj
 0001:00013bb1       ??4RandomizedTrapdoorFunction@CryptoPP@@QAEAAV01@ABV01@@Z 42914bb1 f i dh.obj
 0001:00013bb1       ??0TrapdoorFunction@CryptoPP@@QAE@ABV01@@Z 42914bb1 f i dh.obj
 0001:00013bb1       ??0SimpleKeyingInterface@CryptoPP@@QAE@ABV01@@Z 42914bb1 f i dh.obj
 0001:00013bb1       ??0AdditiveCipherAbstractPolicy@CryptoPP@@QAE@ABU01@@Z 42914bb1 f i dh.obj
 0001:00013bb1       ??0?$AbstractGroup@VInteger@CryptoPP@@@CryptoPP@@QAE@ABV01@@Z 42914bb1 f i dh.obj
 0001:00013bb1       ??0PK_Verifier@CryptoPP@@QAE@ABV01@@Z 42914bb1 f i dh.obj
 0001:00013bb1       ??4SimpleKeyingInterface@CryptoPP@@QAEAAV01@ABV01@@Z 42914bb1 f i dh.obj
 0001:00013bb1       ??0TrapdoorFunctionBounds@CryptoPP@@QAE@ABV01@@Z 42914bb1 f i dh.obj
 0001:00013bb1       ??4?$DL_Algorithm_GDSA@UEC2NPoint@CryptoPP@@@CryptoPP@@QAEAAV01@ABV01@@Z 42914bb1 f i dh.obj
 0001:00013bb1       ??0HashTransformation@CryptoPP@@QAE@ABV01@@Z 42914bb1 f i dh.obj
 0001:00013bb1       ??4PK_Encryptor@CryptoPP@@QAEAAV01@ABV01@@Z 42914bb1 f i dh.obj
 0001:00013bb1       ??4OAEP_Base@CryptoPP@@QAEAAV01@ABV01@@Z 42914bb1 f i dh.obj
 0001:00013bb1       ??4?$AbstractRing@VPolynomialMod2@CryptoPP@@@CryptoPP@@QAEAAV01@ABV01@@Z 42914bb1 f i dh.obj
 0001:00013bb1       ??0AuthenticatedSymmetricCipher@CryptoPP@@QAE@ABV01@@Z 42914bb1 f i dh.obj
 0001:00013bb1       ??4?$AbstractGroup@UECPPoint@CryptoPP@@@CryptoPP@@QAEAAV01@ABV01@@Z 42914bb1 f i dh.obj
 0001:00013bb1       ??4KeyAgreementAlgorithm@CryptoPP@@QAEAAV01@ABV01@@Z 42914bb1 f i dh.obj
 0001:00013bb1       ??4PrivateKey@CryptoPP@@QAEAAV01@ABV01@@Z 42914bb1 f i dh.obj
 0001:00013bb1       ??0PK_MessageAccumulator@CryptoPP@@QAE@ABV01@@Z 42914bb1 f i dh.obj
 0001:00013bb1       ??0TF_VerifierBase@CryptoPP@@QAE@ABV01@@Z 42914bb1 f i dh.obj
 0001:00013bb1       ??4?$DL_Algorithm_GDSA@UECPPoint@CryptoPP@@@CryptoPP@@QAEAAV01@ABV01@@Z 42914bb1 f i dh.obj
 0001:00013bb1       ??0PK_CryptoSystem@CryptoPP@@QAE@ABV01@@Z 42914bb1 f i dh.obj
 0001:00013bb1       ??4?$ASN1CryptoMaterial@VPublicKey@CryptoPP@@@CryptoPP@@QAEAAV01@ABV01@@Z 42914bb1 f i dh.obj
 0001:00013bb1       ??4PK_MessageAccumulator@CryptoPP@@QAEAAV01@ABV01@@Z 42914bb1 f i dh.obj
 0001:00013bb1       ??0MessageAuthenticationCode@CryptoPP@@QAE@ABV01@@Z 42914bb1 f i dh.obj
 0001:00013bb1       ??0PK_Signer@CryptoPP@@QAE@ABV01@@Z 42914bb1 f i dh.obj
 0001:00013bb1       ??4?$AbstractGroup@UEC2NPoint@CryptoPP@@@CryptoPP@@QAEAAV01@ABV01@@Z 42914bb1 f i dh.obj
 0001:00013bb1       ??4?$AbstractGroup@VPolynomialMod2@CryptoPP@@@CryptoPP@@QAEAAV01@ABV01@@Z 42914bb1 f i dh.obj
 0001:00013bb1       ??0PK_Encryptor@CryptoPP@@QAE@ABV01@@Z 42914bb1 f i dh.obj
 0001:00013bb1       ??4?$DL_GroupPrecomputation@UEC2NPoint@CryptoPP@@@CryptoPP@@QAEAAV01@ABV01@@Z 42914bb1 f i dh.obj
 0001:00013bb1       ??4MessageAuthenticationCode@CryptoPP@@QAEAAV01@ABV01@@Z 42914bb1 f i dh.obj
 0001:00013bb1       ??4CFB_CipherAbstractPolicy@CryptoPP@@QAEAAV01@ABV01@@Z 42914bb1 f i dh.obj
 0001:00013bb1       ??4Clonable@CryptoPP@@QAEAAV01@ABV01@@Z 42914bb1 f i dh.obj
 0001:00013bb1       ??4ASN1Object@CryptoPP@@QAEAAV01@ABV01@@Z 42914bb1 f i dh.obj
 0001:00013bb1       ??4RandomizedTrapdoorFunctionInverse@CryptoPP@@QAEAAV01@ABV01@@Z 42914bb1 f i dh.obj
 0001:00013bb1       ??4EMSA2Pad@CryptoPP@@QAEAAV01@ABV01@@Z 42914bb1 f i dh.obj
 0001:00013bb1       ??0StreamTransformation@CryptoPP@@QAE@ABV01@@Z 42914bb1 f i dh.obj
 0001:00013bb1       ??4PublicKeyAlgorithm@CryptoPP@@QAEAAV01@ABV01@@Z 42914bb1 f i dh.obj
 0001:00013bb6       ?Equal@MultiplicativeGroupT@?$AbstractRing@VPolynomialMod2@CryptoPP@@@CryptoPP@@UBE_NABVPolynomialMod2@3@0@Z 42914bb6 f i dh.obj
 0001:00013bb6       ?Equal@MultiplicativeGroupT@?$AbstractRing@VInteger@CryptoPP@@@CryptoPP@@UBE_NABVInteger@3@0@Z 42914bb6 f i dh.obj
 0001:00013bc9       ?Identity@MultiplicativeGroupT@?$AbstractRing@VPolynomialMod2@CryptoPP@@@CryptoPP@@UBEABVPolynomialMod2@3@XZ 42914bc9 f i dh.obj
 0001:00013bc9       ?Identity@MultiplicativeGroupT@?$AbstractRing@VInteger@CryptoPP@@@CryptoPP@@UBEABVInteger@3@XZ 42914bc9 f i dh.obj
 0001:00013bd1       ?Add@MultiplicativeGroupT@?$AbstractRing@VPolynomialMod2@CryptoPP@@@CryptoPP@@UBEABVPolynomialMod2@3@ABV43@0@Z 42914bd1 f i dh.obj
 0001:00013bd1       ?Add@MultiplicativeGroupT@?$AbstractRing@VInteger@CryptoPP@@@CryptoPP@@UBEABVInteger@3@ABV43@0@Z 42914bd1 f i dh.obj
 0001:00013be4       ?Accumulate@MultiplicativeGroupT@?$AbstractRing@VInteger@CryptoPP@@@CryptoPP@@UBEAAVInteger@3@AAV43@ABV43@@Z 42914be4 f i dh.obj
 0001:00013c01       ?Reduce@MultiplicativeGroupT@?$AbstractRing@VInteger@CryptoPP@@@CryptoPP@@UBEAAVInteger@3@AAV43@ABV43@@Z 42914c01 f i dh.obj
 0001:00013c1e       ?SimultaneousMultiply@MultiplicativeGroupT@?$AbstractRing@VPolynomialMod2@CryptoPP@@@CryptoPP@@UBEXPAVPolynomialMod2@3@ABV43@PBVInteger@3@I@Z 42914c1e f i dh.obj
 0001:00013c1e       ?SimultaneousMultiply@MultiplicativeGroupT@?$AbstractRing@VInteger@CryptoPP@@@CryptoPP@@UBEXPAVInteger@3@ABV43@PBV43@I@Z 42914c1e f i dh.obj
 0001:00013c39       ??0?$DL_FixedBasePrecomputationImpl@VInteger@CryptoPP@@@CryptoPP@@QAE@XZ 42914c39 f i dh.obj
 0001:00013c8f       ?IsInitialized@?$DL_FixedBasePrecomputationImpl@VInteger@CryptoPP@@@CryptoPP@@UBE_NXZ 42914c8f f i dh.obj
 0001:00013caf       ?GetBase@?$DL_FixedBasePrecomputationImpl@VInteger@CryptoPP@@@CryptoPP@@UBEABVInteger@2@ABV?$DL_GroupPrecomputation@VInteger@CryptoPP@@@2@@Z 42914caf f i dh.obj
 0001:00013cc8       ??0?$vector@VInteger@CryptoPP@@V?$allocator@VInteger@CryptoPP@@@std@@@std@@QAE@ABV01@@Z 42914cc8 f i dh.obj
 0001:00013d36       ??1?$vector@VInteger@CryptoPP@@V?$allocator@VInteger@CryptoPP@@@std@@@std@@QAE@XZ 42914d36 f i dh.obj
 0001:00013d6b       ??4?$vector@VInteger@CryptoPP@@V?$allocator@VInteger@CryptoPP@@@std@@@std@@QAEAAV01@ABV01@@Z 42914d6b f i dh.obj
 0001:00013f47       ??0?$value_ptr@VMontgomeryRepresentation@CryptoPP@@@CryptoPP@@QAE@ABV01@@Z 42914f47 f i dh.obj
 0001:00013f91       ??0?$DL_GroupParameters@VInteger@CryptoPP@@@CryptoPP@@QAE@XZ 42914f91 f i dh.obj
 0001:00013faf       ?GetVoidValue@?$DL_GroupParameters@VInteger@CryptoPP@@@CryptoPP@@UBE_NPBDABVtype_info@@PAX@Z 42914faf f i dh.obj
 0001:0001402b       ?Precompute@?$DL_GroupParameters@UECPPoint@CryptoPP@@@CryptoPP@@UAEXI@Z 4291502b f i dh.obj
 0001:0001402b       ?Precompute@?$DL_GroupParameters@VInteger@CryptoPP@@@CryptoPP@@UAEXI@Z 4291502b f i dh.obj
 0001:0001402b       ?Precompute@?$DL_GroupParameters@UEC2NPoint@CryptoPP@@@CryptoPP@@UAEXI@Z 4291502b f i dh.obj
 0001:00014063       ?LoadPrecomputation@?$DL_GroupParameters@UECPPoint@CryptoPP@@@CryptoPP@@UAEXAAVBufferedTransformation@2@@Z 42915063 f i dh.obj
 0001:00014063       ?LoadPrecomputation@?$DL_GroupParameters@UEC2NPoint@CryptoPP@@@CryptoPP@@UAEXAAVBufferedTransformation@2@@Z 42915063 f i dh.obj
 0001:00014063       ?LoadPrecomputation@?$DL_GroupParameters@VInteger@CryptoPP@@@CryptoPP@@UAEXAAVBufferedTransformation@2@@Z 42915063 f i dh.obj
 0001:00014094       ?SetSubgroupGenerator@?$DL_GroupParameters@UECPPoint@CryptoPP@@@CryptoPP@@UAEXABUECPPoint@2@@Z 42915094 f i dh.obj
 0001:00014094       ?SetSubgroupGenerator@?$DL_GroupParameters@VInteger@CryptoPP@@@CryptoPP@@UAEXABVInteger@2@@Z 42915094 f i dh.obj
 0001:00014094       ?SetSubgroupGenerator@?$DL_GroupParameters@UEC2NPoint@CryptoPP@@@CryptoPP@@UAEXABUEC2NPoint@2@@Z 42915094 f i dh.obj
 0001:000140b9       ?ExponentiateBase@?$DL_GroupParameters@UECPPoint@CryptoPP@@@CryptoPP@@UBE?AUECPPoint@2@ABVInteger@2@@Z 429150b9 f i dh.obj
 0001:000140b9       ?ExponentiateBase@?$DL_GroupParameters@UEC2NPoint@CryptoPP@@@CryptoPP@@UBE?AUEC2NPoint@2@ABVInteger@2@@Z 429150b9 f i dh.obj
 0001:000140b9       ?ExponentiateBase@?$DL_GroupParameters@VInteger@CryptoPP@@@CryptoPP@@UBE?AVInteger@2@ABV32@@Z 429150b9 f i dh.obj
 0001:000140ec       ?ExponentiateElement@?$DL_GroupParameters@VInteger@CryptoPP@@@CryptoPP@@UBE?AVInteger@2@ABV32@0@Z 429150ec f i dh.obj
 0001:00014152       ?GetGroupOrder@?$DL_GroupParameters@VInteger@CryptoPP@@@CryptoPP@@UBE?AVInteger@2@XZ 42915152 f i dh.obj
 0001:000141b1       ?GetCofactor@?$DL_GroupParameters@VInteger@CryptoPP@@@CryptoPP@@UBE?AVInteger@2@XZ 429151b1 f i dh.obj
 0001:00014214       ??KCryptoPP@@YA?AVInteger@0@ABV10@0@Z 42915214 f i dh.obj
 0001:0001422f       ?ParametersChanged@?$DL_GroupParameters@VInteger@CryptoPP@@@CryptoPP@@IAEXXZ 4291522f f i dh.obj
 0001:00014234       ?GetVoidValue@?$DL_GroupParameters_IntegerBasedImpl@VModExpPrecomputation@CryptoPP@@V?$DL_FixedBasePrecomputationImpl@VInteger@CryptoPP@@@2@@CryptoPP@@UBE_NPBDABVtype_info@@PAX@Z 42915234 f i dh.obj
 0001:0001426e       ?AssignFrom@?$DL_GroupParameters_IntegerBasedImpl@VModExpPrecomputation@CryptoPP@@V?$DL_FixedBasePrecomputationImpl@VInteger@CryptoPP@@@2@@CryptoPP@@UAEXABVNameValuePairs@2@@Z 4291526e f i dh.obj
 0001:00014287       ?GetModulus@?$DL_GroupParameters_IntegerBasedImpl@VModExpPrecomputation@CryptoPP@@V?$DL_FixedBasePrecomputationImpl@VInteger@CryptoPP@@@2@@CryptoPP@@UBEABVInteger@2@XZ 42915287 f i dh.obj
 0001:0001428e       ?SetModulusAndSubgroupGenerator@?$DL_GroupParameters_IntegerBasedImpl@VModExpPrecomputation@CryptoPP@@V?$DL_FixedBasePrecomputationImpl@VInteger@CryptoPP@@@2@@CryptoPP@@UAEXABVInteger@2@0@Z 4291528e f i dh.obj
 0001:000142c2       ?SetModulus@ModExpPrecomputation@CryptoPP@@QAEXABVInteger@2@@Z 429152c2 f i dh.obj
 0001:00014318       ?Assignable@?$GetValueHelperClass@VDL_GroupParameters_GFP@CryptoPP@@VDL_GroupParameters_IntegerBased@2@@CryptoPP@@QAEAAV12@XZ 42915318 f i dh.obj
 0001:000143c7       ?Sign@?$DL_Algorithm_GDSA@VInteger@CryptoPP@@@CryptoPP@@UBEXABV?$DL_GroupParameters@VInteger@CryptoPP@@@2@ABVInteger@2@11AAV42@2@Z 429153c7 f i dh.obj
 0001:00014498       ?Verify@?$DL_Algorithm_GDSA@VInteger@CryptoPP@@@CryptoPP@@UBE_NABV?$DL_GroupParameters@VInteger@CryptoPP@@@2@ABV?$DL_PublicKey@VInteger@CryptoPP@@@2@ABVInteger@2@22@Z 42915498 f i dh.obj
 0001:00014688       ?RecoverPresignature@?$DL_ElgamalLikeSignatureAlgorithm@VInteger@CryptoPP@@@CryptoPP@@UBE?AVInteger@2@ABV?$DL_GroupParameters@VInteger@CryptoPP@@@2@ABV?$DL_PublicKey@VInteger@CryptoPP@@@2@ABV32@2@Z 42915688 f i dh.obj
 0001:000146e4       ?BERDecodePublicKey@?$DL_PublicKey_GFP@VDL_GroupParameters_DSA@CryptoPP@@@CryptoPP@@UAEXAAVBufferedTransformation@2@_NI@Z 429156e4 f i dh.obj
 0001:0001472b       ?DEREncodePublicKey@?$DL_PublicKey_GFP@VDL_GroupParameters_DSA@CryptoPP@@@CryptoPP@@UBEXAAVBufferedTransformation@2@@Z 4291572b f i dh.obj
 0001:00014742       ?Validate@?$DL_PublicKeyImpl@VDL_GroupParameters_DSA@CryptoPP@@@CryptoPP@@UBE_NAAVRandomNumberGenerator@2@I@Z 42915742 f i dh.obj
 0001:000147a3       ?GetVoidValue@?$DL_PublicKeyImpl@VDL_GroupParameters_DSA@CryptoPP@@@CryptoPP@@UBE_NPBDABVtype_info@@PAX@Z 429157a3 f i dh.obj
 0001:000147e0       ?AssignFrom@?$DL_PublicKeyImpl@VDL_GroupParameters_DSA@CryptoPP@@@CryptoPP@@UAEXABVNameValuePairs@2@@Z 429157e0 f i dh.obj
 0001:000147fc       ?Precompute@?$DL_PublicKeyImpl@VDL_GroupParameters_DSA@CryptoPP@@@CryptoPP@@UAEXI@Z 429157fc f i dh.obj
 0001:00014866       ?LoadPrecomputation@?$DL_PublicKeyImpl@VDL_GroupParameters_DSA@CryptoPP@@@CryptoPP@@UAEXAAVBufferedTransformation@2@@Z 42915866 f i dh.obj
 0001:000148b7       ?SavePrecomputation@?$DL_PublicKeyImpl@VDL_GroupParameters_DSA@CryptoPP@@@CryptoPP@@UBEXAAVBufferedTransformation@2@@Z 429158b7 f i dh.obj
 0001:00014907       ?GetAbstractGroupParameters@?$DL_PublicKeyImpl@VDL_GroupParameters_DSA@CryptoPP@@@CryptoPP@@UBEABV?$DL_GroupParameters@VInteger@CryptoPP@@@2@XZ 42915907 f i dh.obj
 0001:00014907       ?AccessAbstractGroupParameters@?$DL_PublicKeyImpl@VDL_GroupParameters_DSA@CryptoPP@@@CryptoPP@@UAEAAV?$DL_GroupParameters@VInteger@CryptoPP@@@2@XZ 42915907 f i dh.obj
 0001:00014914       ?GetPublicElement@?$DL_PublicKey@VInteger@CryptoPP@@@CryptoPP@@UBEABVInteger@2@XZ 42915914 f i dh.obj
 0001:00014914       ?GetPublicElement@?$DL_PublicKey@UECPPoint@CryptoPP@@@CryptoPP@@UBEABUECPPoint@2@XZ 42915914 f i dh.obj
 0001:00014914       ?GetPublicElement@?$DL_PublicKey@UEC2NPoint@CryptoPP@@@CryptoPP@@UBEABUEC2NPoint@2@XZ 42915914 f i dh.obj
 0001:0001493b       ?GetAlgorithmID@?$DL_KeyImpl@VX509PublicKey@CryptoPP@@VDL_GroupParameters_DSA@2@VOID@2@@CryptoPP@@UBE?AVOID@2@XZ 4291593b f i dh.obj
 0001:00014955       ?BERDecodeAlgorithmParameters@?$DL_KeyImpl@VX509PublicKey@CryptoPP@@VDL_GroupParameters_DSA@2@VOID@2@@CryptoPP@@UAE_NAAVBufferedTransformation@2@@Z 42915955 f i dh.obj
 0001:00014967       ?DEREncodeAlgorithmParameters@?$DL_KeyImpl@VX509PublicKey@CryptoPP@@VDL_GroupParameters_DSA@2@VOID@2@@CryptoPP@@UBE_NAAVBufferedTransformation@2@@Z 42915967 f i dh.obj
 0001:00014979       ?Validate@?$DL_PrivateKeyImpl@VDL_GroupParameters_DSA@CryptoPP@@@CryptoPP@@UBE_NAAVRandomNumberGenerator@2@I@Z 42915979 f i dh.obj
 0001:00014a49       ?GetVoidValue@?$DL_PrivateKeyImpl@VDL_GroupParameters_DSA@CryptoPP@@@CryptoPP@@UBE_NPBDABVtype_info@@PAX@Z 42915a49 f i dh.obj
 0001:00014a86       ?AssignFrom@?$DL_PrivateKeyImpl@VDL_GroupParameters_DSA@CryptoPP@@@CryptoPP@@UAEXABVNameValuePairs@2@@Z 42915a86 f i dh.obj
 0001:00014aa2       ?GenerateRandom@?$DL_PrivateKeyImpl@VDL_GroupParameters_DSA@CryptoPP@@@CryptoPP@@UAEXAAVRandomNumberGenerator@2@ABVNameValuePairs@2@@Z 42915aa2 f i dh.obj
 0001:00014b46       ?Precompute@?$DL_PrivateKeyImpl@VDL_GroupParameters_DSA@CryptoPP@@@CryptoPP@@UAEXI@Z 42915b46 f i dh.obj
 0001:00014b6b       ?LoadPrecomputation@?$DL_PrivateKeyImpl@VDL_GroupParameters_DSA@CryptoPP@@@CryptoPP@@UAEXAAVBufferedTransformation@2@@Z 42915b6b f i dh.obj
 0001:00014b90       ?SavePrecomputation@?$DL_PrivateKeyImpl@VDL_GroupParameters_DSA@CryptoPP@@@CryptoPP@@UBEXAAVBufferedTransformation@2@@Z 42915b90 f i dh.obj
 0001:00014bb4       ?GetAbstractGroupParameters@?$DL_PrivateKeyImpl@VDL_GroupParameters_DSA@CryptoPP@@@CryptoPP@@UBEABV?$DL_GroupParameters@VInteger@CryptoPP@@@2@XZ 42915bb4 f i dh.obj
 0001:00014bb4       ?AccessAbstractGroupParameters@?$DL_PrivateKeyImpl@VDL_GroupParameters_DSA@CryptoPP@@@CryptoPP@@UAEAAV?$DL_GroupParameters@VInteger@CryptoPP@@@2@XZ 42915bb4 f i dh.obj
 0001:00014bc1       ?GetPrivateExponent@?$DL_PrivateKeyImpl@VDL_GroupParameters_DSA@CryptoPP@@@CryptoPP@@UBEABVInteger@2@XZ 42915bc1 f i dh.obj
 0001:00014bc8       ?SetPrivateExponent@?$DL_PrivateKeyImpl@VDL_GroupParameters_DSA@CryptoPP@@@CryptoPP@@UAEXABVInteger@2@@Z 42915bc8 f i dh.obj
 0001:00014bda       ?BERDecodePrivateKey@?$DL_PrivateKeyImpl@VDL_GroupParameters_DSA@CryptoPP@@@CryptoPP@@UAEXAAVBufferedTransformation@2@_NI@Z 42915bda f i dh.obj
 0001:00014bf0       ?DEREncodePrivateKey@?$DL_PrivateKeyImpl@VDL_GroupParameters_DSA@CryptoPP@@@CryptoPP@@UBEXAAVBufferedTransformation@2@@Z 42915bf0 f i dh.obj
 0001:00014c06       ?GetAlgorithmID@?$DL_KeyImpl@VPKCS8PrivateKey@CryptoPP@@VDL_GroupParameters_DSA@2@VOID@2@@CryptoPP@@UBE?AVOID@2@XZ 42915c06 f i dh.obj
 0001:00014c20       ?BERDecodeAlgorithmParameters@?$DL_KeyImpl@VPKCS8PrivateKey@CryptoPP@@VDL_GroupParameters_DSA@2@VOID@2@@CryptoPP@@UAE_NAAVBufferedTransformation@2@@Z 42915c20 f i dh.obj
 0001:00014c32       ?DEREncodeAlgorithmParameters@?$DL_KeyImpl@VPKCS8PrivateKey@CryptoPP@@VDL_GroupParameters_DSA@2@VOID@2@@CryptoPP@@UBE_NAAVBufferedTransformation@2@@Z 42915c32 f i dh.obj
 0001:00014c44       ?GenerateRandom@?$DL_PrivateKey_WithSignaturePairwiseConsistencyTest@V?$DL_PrivateKey_GFP@VDL_GroupParameters_DSA@CryptoPP@@@CryptoPP@@UDSA@2@@CryptoPP@@UAEXAAVRandomNumberGenerator@2@ABVNameValuePairs@2@@Z 42915c44 f i dh.obj
 0001:00014cf0       ??0?$DH_Domain@VDL_GroupParameters_GFP_DefaultSafePrime@CryptoPP@@U?$EnumToType@W4CofactorMultiplicationOption@CryptoPP@@$0A@@2@@CryptoPP@@QAE@XZ 42915cf0 f i dh.obj
 0001:00014d2b       ?GeneratePublicKey@?$DH_Domain@VDL_GroupParameters_GFP_DefaultSafePrime@CryptoPP@@U?$EnumToType@W4CofactorMultiplicationOption@CryptoPP@@$0A@@2@@CryptoPP@@UBEXAAVRandomNumberGenerator@2@PBEPAE@Z 42915d2b f i dh.obj
 0001:00014ea1       ?AlgorithmName@?$DH_Domain@VDL_GroupParameters_GFP_DefaultSafePrime@CryptoPP@@U?$EnumToType@W4CofactorMultiplicationOption@CryptoPP@@$0A@@2@@CryptoPP@@UBE?AV?$basic_string@DU?$char_traits@D@std@@V?$allocator@D@2@@std@@XZ 42915ea1 f i dh.obj
 0001:00014eb9       ?GetKeyAgreementAlgorithm@?$DH_Domain@VDL_GroupParameters_GFP_DefaultSafePrime@CryptoPP@@U?$EnumToType@W4CofactorMultiplicationOption@CryptoPP@@$0A@@2@@CryptoPP@@EBEABV?$DL_KeyAgreementAlgorithm@VInteger@CryptoPP@@@2@XZ 42915eb9 f i dh.obj
 0001:00014ecf       ?AccessAbstractGroupParameters@?$DH_Domain@VDL_GroupParameters_GFP_DefaultSafePrime@CryptoPP@@U?$EnumToType@W4CofactorMultiplicationOption@CryptoPP@@$0A@@2@@CryptoPP@@EAEAAV?$DL_GroupParameters@VInteger@CryptoPP@@@2@XZ 42915ecf f i dh.obj
 0001:00014edc       ?GetCipher@CMAC_Base@CryptoPP@@IBEABVBlockCipher@2@XZ 42915edc f i dh.obj
 0001:00014edc       ?AccessCryptoParameters@?$DL_SimpleKeyAgreementDomainBase@VInteger@CryptoPP@@@CryptoPP@@UAEAAVCryptoParameters@2@XZ 42915edc f i dh.obj
 0001:00014ee1       ?AgreedValueLength@?$DL_SimpleKeyAgreementDomainBase@VInteger@CryptoPP@@@CryptoPP@@UBEIXZ 42915ee1 f i dh.obj
 0001:00014ef0       ?PrivateKeyLength@?$DL_SimpleKeyAgreementDomainBase@VInteger@CryptoPP@@@CryptoPP@@UBEIXZ 42915ef0 f i dh.obj
 0001:00014f03       ?PublicKeyLength@?$DL_SimpleKeyAgreementDomainBase@VInteger@CryptoPP@@@CryptoPP@@UBEIXZ 42915f03 f i dh.obj
 0001:00014f12       ?GeneratePrivateKey@?$DL_SimpleKeyAgreementDomainBase@VInteger@CryptoPP@@@CryptoPP@@UBEXAAVRandomNumberGenerator@2@PAE@Z 42915f12 f i dh.obj
 0001:00014f9d       ?GeneratePublicKey@?$DL_SimpleKeyAgreementDomainBase@VInteger@CryptoPP@@@CryptoPP@@UBEXAAVRandomNumberGenerator@2@PBEPAE@Z 42915f9d f i dh.obj
 0001:0001501c       ?Agree@?$DL_SimpleKeyAgreementDomainBase@VInteger@CryptoPP@@@CryptoPP@@UBE_NPAEPBE1_N@Z 4291601c f i dh.obj
 0001:000150e6       ??1?$PK_FinalTemplate@V?$DL_SignerImpl@U?$DL_SignatureSchemeOptions@UDSA@CryptoPP@@UDL_Keys_DSA@2@V?$DL_Algorithm_GDSA@VInteger@CryptoPP@@@2@VDL_SignatureMessageEncodingMethod_DSA@2@VSHA1@2@@CryptoPP@@@CryptoPP@@@CryptoPP@@UAE@XZ 429160e6 f i dh.obj
 0001:00015120       ??1?$PK_FinalTemplate@V?$DL_VerifierImpl@U?$DL_SignatureSchemeOptions@UDSA@CryptoPP@@UDL_Keys_DSA@2@V?$DL_Algorithm_GDSA@VInteger@CryptoPP@@@2@VDL_SignatureMessageEncodingMethod_DSA@2@VSHA1@2@@CryptoPP@@@CryptoPP@@@CryptoPP@@UAE@XZ 42916120 f i dh.obj
 0001:00015120       ??1?$DL_VerifierImpl@U?$DL_SignatureSchemeOptions@UDSA@CryptoPP@@UDL_Keys_DSA@2@V?$DL_Algorithm_GDSA@VInteger@CryptoPP@@@2@VDL_SignatureMessageEncodingMethod_DSA@2@VSHA1@2@@CryptoPP@@@CryptoPP@@UAE@XZ 42916120 f i dh.obj
 0001:00015125       ??1?$DL_ObjectImplBase@V?$DL_SignerBase@VInteger@CryptoPP@@@CryptoPP@@U?$DL_SignatureSchemeOptions@UDSA@CryptoPP@@UDL_Keys_DSA@2@V?$DL_Algorithm_GDSA@VInteger@CryptoPP@@@2@VDL_SignatureMessageEncodingMethod_DSA@2@VSHA1@2@@2@V?$DL_PrivateKey_WithSignaturePairwiseConsistencyTest@V?$DL_PrivateKey_GFP@VDL_GroupParameters_DSA@CryptoPP@@@CryptoPP@@UDSA@2@@2@@CryptoPP@@UAE@XZ 42916125 f i dh.obj
 0001:0001514b       ??1?$DL_ObjectImplBase@V?$DL_VerifierBase@VInteger@CryptoPP@@@CryptoPP@@U?$DL_SignatureSchemeOptions@UDSA@CryptoPP@@UDL_Keys_DSA@2@V?$DL_Algorithm_GDSA@VInteger@CryptoPP@@@2@VDL_SignatureMessageEncodingMethod_DSA@2@VSHA1@2@@2@V?$DL_PublicKey_GFP@VDL_GroupParameters_DSA@CryptoPP@@@2@@CryptoPP@@UAE@XZ 4291614b f i dh.obj
 0001:00015171       ?StaticAlgorithmName@?$DH_Domain@VDL_GroupParameters_GFP_DefaultSafePrime@CryptoPP@@U?$EnumToType@W4CofactorMultiplicationOption@CryptoPP@@$0A@@2@@CryptoPP@@SA?AV?$basic_string@DU?$char_traits@D@std@@V?$allocator@D@2@@std@@XZ 42916171 f i dh.obj
 0001:000151bb       ?Assignable@?$GetValueHelperClass@V?$DL_GroupParameters_IntegerBasedImpl@VModExpPrecomputation@CryptoPP@@V?$DL_FixedBasePrecomputationImpl@VInteger@CryptoPP@@@2@@CryptoPP@@VDL_GroupParameters_IntegerBased@2@@CryptoPP@@QAEAAV12@XZ 429161bb f i dh.obj
 0001:0001526a       ?Assignable@?$GetValueHelperClass@V?$DL_PublicKeyImpl@VDL_GroupParameters_DSA@CryptoPP@@@CryptoPP@@V?$DL_PublicKey@VInteger@CryptoPP@@@2@@CryptoPP@@QAEAAV12@XZ 4291626a f i dh.obj
 0001:00015319       ?Assignable@?$GetValueHelperClass@V?$DL_PrivateKeyImpl@VDL_GroupParameters_DSA@CryptoPP@@@CryptoPP@@V?$DL_PrivateKey@VInteger@CryptoPP@@@2@@CryptoPP@@QAEAAV12@XZ 42916319 f i dh.obj
 0001:000153c8       ??0?$PK_FinalTemplate@V?$DL_SignerImpl@U?$DL_SignatureSchemeOptions@UDSA@CryptoPP@@UDL_Keys_DSA@2@V?$DL_Algorithm_GDSA@VInteger@CryptoPP@@@2@VDL_SignatureMessageEncodingMethod_DSA@2@VSHA1@2@@CryptoPP@@@CryptoPP@@@CryptoPP@@QAE@ABVCryptoMaterial@1@@Z 429163c8 f i dh.obj
 0001:0001541b       ??_9@$BBE@AE               4291641b f i dh.obj
 0001:0001541b       ?GetPublicKey@PublicKeyAlgorithm@CryptoPP@@UBEABVPublicKey@2@XZ 4291641b f i dh.obj
 0001:0001541b       ?GetCryptoParameters@KeyAgreementAlgorithm@CryptoPP@@UBEABVCryptoParameters@2@XZ 4291641b f i dh.obj
 0001:0001541b       ?GetPrivateKey@PrivateKeyAlgorithm@CryptoPP@@UBEABVPrivateKey@2@XZ 4291641b f i dh.obj
 0001:00015420       ?MaxSignatureLength@PK_SignatureScheme@CryptoPP@@UBEII@Z 42916420 f i dh.obj
 0001:00015428       ??1?$DL_SignerImpl@U?$DL_SignatureSchemeOptions@UDSA@CryptoPP@@UDL_Keys_DSA@2@V?$DL_Algorithm_GDSA@VInteger@CryptoPP@@@2@VDL_SignatureMessageEncodingMethod_DSA@2@VSHA1@2@@CryptoPP@@@CryptoPP@@UAE@XZ 42916428 f i dh.obj
 0001:00015462       ?NewSignatureAccumulator@?$DL_SignerImpl@U?$DL_SignatureSchemeOptions@UDSA@CryptoPP@@UDL_Keys_DSA@2@V?$DL_Algorithm_GDSA@VInteger@CryptoPP@@@2@VDL_SignatureMessageEncodingMethod_DSA@2@VSHA1@2@@CryptoPP@@@CryptoPP@@UBEPAVPK_MessageAccumulator@2@AAVRandomNumberGenerator@2@@Z 42916462 f i dh.obj
 0001:000154b7       ?SignAndRestart@?$DL_SignerBase@VInteger@CryptoPP@@@CryptoPP@@UBEIAAVRandomNumberGenerator@2@AAVPK_MessageAccumulator@2@PAE_N@Z 429164b7 f i dh.obj
 0001:0001576c       ?AllowNonrecoverablePart@?$DL_SignatureSchemeBase@VPK_Signer@CryptoPP@@V?$DL_PrivateKey@VInteger@CryptoPP@@@2@@CryptoPP@@UBE_NXZ 4291676c f i dh.obj
 0001:0001576c       ?AllowNonrecoverablePart@?$DL_SignatureSchemeBase@VPK_Signer@CryptoPP@@V?$DL_PrivateKey@UECPPoint@CryptoPP@@@2@@CryptoPP@@UBE_NXZ 4291676c f i dh.obj
 0001:0001576c       ?AllowNonrecoverablePart@?$DL_SignatureSchemeBase@VPK_Signer@CryptoPP@@V?$DL_PrivateKey@UEC2NPoint@CryptoPP@@@2@@CryptoPP@@UBE_NXZ 4291676c f i dh.obj
 0001:00015778       ?AllowNonrecoverablePart@PK_SignatureMessageEncodingMethod@CryptoPP@@QBE_NXZ 42916778 f i dh.obj
 0001:000157d4       ??0?$PK_FinalTemplate@V?$DL_VerifierImpl@U?$DL_SignatureSchemeOptions@UDSA@CryptoPP@@UDL_Keys_DSA@2@V?$DL_Algorithm_GDSA@VInteger@CryptoPP@@@2@VDL_SignatureMessageEncodingMethod_DSA@2@VSHA1@2@@CryptoPP@@@CryptoPP@@@CryptoPP@@QAE@ABVAsymmetricAlgorithm@1@@Z 429167d4 f i dh.obj
 0001:00015826       ??0?$PK_MessageAccumulatorImpl@VSHA1@CryptoPP@@@CryptoPP@@QAE@XZ 42916826 f i dh.obj
 0001:00015867       ?Restart@HashTransformation@CryptoPP@@UAEXXZ 42916867 f i dh.obj
 0001:00015871       ?DigestSize@PK_MessageAccumulator@CryptoPP@@UBEIXZ 42916871 f i dh.obj
 0001:000158cd       ?TruncatedFinal@PK_MessageAccumulator@CryptoPP@@UAEXPAEI@Z 429168cd f i dh.obj
 0001:00015929       ??0?$DL_VerifierImpl@U?$DL_SignatureSchemeOptions@UDSA@CryptoPP@@UDL_Keys_DSA@2@V?$DL_Algorithm_GDSA@VInteger@CryptoPP@@@2@VDL_SignatureMessageEncodingMethod_DSA@2@VSHA1@2@@CryptoPP@@@CryptoPP@@QAE@XZ 42916929 f i dh.obj
 0001:00015950       ?AccessMaterial@PublicKeyAlgorithm@CryptoPP@@UAEAAVCryptoMaterial@2@XZ 42916950 f i dh.obj
 0001:00015964       ?GetMaterial@PublicKeyAlgorithm@CryptoPP@@UBEABVCryptoMaterial@2@XZ 42916964 f i dh.obj
 0001:00015978       ?NewVerificationAccumulator@?$DL_VerifierImpl@U?$DL_SignatureSchemeOptions@UDSA@CryptoPP@@UDL_Keys_DSA@2@V?$DL_Algorithm_GDSA@VInteger@CryptoPP@@@2@VDL_SignatureMessageEncodingMethod_DSA@2@VSHA1@2@@CryptoPP@@@CryptoPP@@UBEPAVPK_MessageAccumulator@2@XZ 42916978 f i dh.obj
 0001:000159ad       ?GetSignatureAlgorithm@?$DL_ObjectImpl@V?$DL_VerifierBase@VInteger@CryptoPP@@@CryptoPP@@U?$DL_SignatureSchemeOptions@UDSA@CryptoPP@@UDL_Keys_DSA@2@V?$DL_Algorithm_GDSA@VInteger@CryptoPP@@@2@VDL_SignatureMessageEncodingMethod_DSA@2@VSHA1@2@@2@V?$DL_PublicKey_GFP@VDL_GroupParameters_DSA@CryptoPP@@@2@@CryptoPP@@MBEABV?$DL_ElgamalLikeSignatureAlgorithm@VInteger@CryptoPP@@@2@XZ 429169ad f i dh.obj
 0001:000159ad       ?GetSignatureAlgorithm@?$DL_ObjectImpl@V?$DL_SignerBase@VInteger@CryptoPP@@@CryptoPP@@U?$DL_SignatureSchemeOptions@UDSA@CryptoPP@@UDL_Keys_DSA@2@V?$DL_Algorithm_GDSA@VInteger@CryptoPP@@@2@VDL_SignatureMessageEncodingMethod_DSA@2@VSHA1@2@@2@V?$DL_PrivateKey_WithSignaturePairwiseConsistencyTest@V?$DL_PrivateKey_GFP@VDL_GroupParameters_DSA@CryptoPP@@@CryptoPP@@UDSA@2@@2@@CryptoPP@@MBEABV?$DL_ElgamalLikeSignatureAlgorithm@VInteger@CryptoPP@@@2@XZ 429169ad f i dh.obj
 0001:000159c3       ?AlgorithmName@?$AlgorithmImpl@V?$DL_SignerBase@VInteger@CryptoPP@@@CryptoPP@@UDSA@2@@CryptoPP@@UBE?AV?$basic_string@DU?$char_traits@D@std@@V?$allocator@D@2@@std@@XZ 429169c3 f i dh.obj
 0001:000159c3       ?AlgorithmName@?$AlgorithmImpl@V?$DL_VerifierBase@VInteger@CryptoPP@@@CryptoPP@@UDSA@2@@CryptoPP@@UBE?AV?$basic_string@DU?$char_traits@D@std@@V?$allocator@D@2@@std@@XZ 429169c3 f i dh.obj
 0001:000159fb       ?VerifyAndRestart@?$DL_VerifierBase@VInteger@CryptoPP@@@CryptoPP@@UBE_NAAVPK_MessageAccumulator@2@@Z 429169fb f i dh.obj
 0001:00015b43       ?RecoverAndRestart@?$DL_VerifierBase@VInteger@CryptoPP@@@CryptoPP@@UBE?AUDecodingResult@2@PAEAAVPK_MessageAccumulator@2@@Z 42916b43 f i dh.obj
 0001:00015d36       ?SignatureLength@?$DL_SignatureSchemeBase@VPK_Verifier@CryptoPP@@V?$DL_PublicKey@UECPPoint@CryptoPP@@@2@@CryptoPP@@UBEIXZ 42916d36 f i dh.obj
 0001:00015d36       ?SignatureLength@?$DL_SignatureSchemeBase@VPK_Verifier@CryptoPP@@V?$DL_PublicKey@VInteger@CryptoPP@@@2@@CryptoPP@@UBEIXZ 42916d36 f i dh.obj
 0001:00015d36       ?SignatureLength@?$DL_SignatureSchemeBase@VPK_Verifier@CryptoPP@@V?$DL_PublicKey@UEC2NPoint@CryptoPP@@@2@@CryptoPP@@UBEIXZ 42916d36 f i dh.obj
 0001:00015d89       ?RecoverablePartFirst@?$DL_SignatureSchemeBase@VPK_Verifier@CryptoPP@@V?$DL_PublicKey@UEC2NPoint@CryptoPP@@@2@@CryptoPP@@UBE_NXZ 42916d89 f i dh.obj
 0001:00015d89       ?RecoverablePartFirst@?$DL_SignatureSchemeBase@VPK_Verifier@CryptoPP@@V?$DL_PublicKey@UECPPoint@CryptoPP@@@2@@CryptoPP@@UBE_NXZ 42916d89 f i dh.obj
 0001:00015d89       ?RecoverablePartFirst@?$DL_SignatureSchemeBase@VPK_Verifier@CryptoPP@@V?$DL_PublicKey@VInteger@CryptoPP@@@2@@CryptoPP@@UBE_NXZ 42916d89 f i dh.obj
 0001:00015d95       ??_E?$DL_SignerImpl@U?$DL_SignatureSchemeOptions@UDSA@CryptoPP@@UDL_Keys_DSA@2@V?$DL_Algorithm_GDSA@VInteger@CryptoPP@@@2@VDL_SignatureMessageEncodingMethod_DSA@2@VSHA1@2@@CryptoPP@@@CryptoPP@@UAEPAXI@Z 42916d95 f i dh.obj
 0001:00015d95       ??_G?$DL_SignerImpl@U?$DL_SignatureSchemeOptions@UDSA@CryptoPP@@UDL_Keys_DSA@2@V?$DL_Algorithm_GDSA@VInteger@CryptoPP@@@2@VDL_SignatureMessageEncodingMethod_DSA@2@VSHA1@2@@CryptoPP@@@CryptoPP@@UAEPAXI@Z 42916d95 f i dh.obj
 0001:00015db1       ??_E?$PK_MessageAccumulatorImpl@VSHA1@CryptoPP@@@CryptoPP@@UAEPAXI@Z 42916db1 f i dh.obj
 0001:00015db1       ??_G?$PK_MessageAccumulatorImpl@VSHA1@CryptoPP@@@CryptoPP@@UAEPAXI@Z 42916db1 f i dh.obj
 0001:00015dcd       ??_E?$DL_VerifierImpl@U?$DL_SignatureSchemeOptions@UDSA@CryptoPP@@UDL_Keys_DSA@2@V?$DL_Algorithm_GDSA@VInteger@CryptoPP@@@2@VDL_SignatureMessageEncodingMethod_DSA@2@VSHA1@2@@CryptoPP@@@CryptoPP@@UAEPAXI@Z 42916dcd f i dh.obj
 0001:00015dcd       ??_G?$DL_VerifierImpl@U?$DL_SignatureSchemeOptions@UDSA@CryptoPP@@UDL_Keys_DSA@2@V?$DL_Algorithm_GDSA@VInteger@CryptoPP@@@2@VDL_SignatureMessageEncodingMethod_DSA@2@VSHA1@2@@CryptoPP@@@CryptoPP@@UAEPAXI@Z 42916dcd f i dh.obj
 0001:00015de9       ??0?$DL_ObjectImplBase@V?$DL_SignerBase@VInteger@CryptoPP@@@CryptoPP@@U?$DL_SignatureSchemeOptions@UDSA@CryptoPP@@UDL_Keys_DSA@2@V?$DL_Algorithm_GDSA@VInteger@CryptoPP@@@2@VDL_SignatureMessageEncodingMethod_DSA@2@VSHA1@2@@2@V?$DL_PrivateKey_WithSignaturePairwiseConsistencyTest@V?$DL_PrivateKey_GFP@VDL_GroupParameters_DSA@CryptoPP@@@CryptoPP@@UDSA@2@@2@@CryptoPP@@QAE@XZ 42916de9 f i dh.obj
 0001:00015e28       ??1?$PK_MessageAccumulatorImpl@VSHA1@CryptoPP@@@CryptoPP@@UAE@XZ 42916e28 f i dh.obj
 0001:00015e7d       ??1?$IteratedHash@IU?$EnumToType@W4ByteOrder@CryptoPP@@$00@CryptoPP@@$0EA@VHashTransformation@2@@CryptoPP@@UAE@XZ 42916e7d f i dh.obj
 0001:00015ea3       ??0?$DL_ObjectImplBase@V?$DL_VerifierBase@VInteger@CryptoPP@@@CryptoPP@@U?$DL_SignatureSchemeOptions@UDSA@CryptoPP@@UDL_Keys_DSA@2@V?$DL_Algorithm_GDSA@VInteger@CryptoPP@@@2@VDL_SignatureMessageEncodingMethod_DSA@2@VSHA1@2@@2@V?$DL_PublicKey_GFP@VDL_GroupParameters_DSA@CryptoPP@@@2@@CryptoPP@@QAE@XZ 42916ea3 f i dh.obj
 0001:00015ee7       ?append@?$basic_string@DU?$char_traits@D@std@@V?$allocator@D@2@@std@@QAEAAV12@ID@Z 42916ee7 f i dh.obj
 0001:00015f40       ?CheckSize@?$AllocatorBase@I@CryptoPP@@KAXI@Z 42916f40 f i dh.obj
 0001:00015fb1       ??8?$SecBlock@EV?$AllocatorWithCleanup@E$0A@@CryptoPP@@@CryptoPP@@QBE_NABV01@@Z 42916fb1 f i dh.obj
 0001:00015fda       ?MessageRepresentativeBitLength@?$DL_SignatureSchemeBase@VPK_Verifier@CryptoPP@@V?$DL_PublicKey@UEC2NPoint@CryptoPP@@@2@@CryptoPP@@IBEIXZ 42916fda f i dh.obj
 0001:00015fda       ?MessageRepresentativeBitLength@?$DL_SignatureSchemeBase@VPK_Signer@CryptoPP@@V?$DL_PrivateKey@UEC2NPoint@CryptoPP@@@2@@CryptoPP@@IBEIXZ 42916fda f i dh.obj
 0001:00015fda       ?MessageRepresentativeBitLength@?$DL_SignatureSchemeBase@VPK_Verifier@CryptoPP@@V?$DL_PublicKey@VInteger@CryptoPP@@@2@@CryptoPP@@IBEIXZ 42916fda f i dh.obj
 0001:00015fda       ?MessageRepresentativeBitLength@?$DL_SignatureSchemeBase@VPK_Verifier@CryptoPP@@V?$DL_PublicKey@UECPPoint@CryptoPP@@@2@@CryptoPP@@IBEIXZ 42916fda f i dh.obj
 0001:00015fda       ?MessageRepresentativeBitLength@?$DL_SignatureSchemeBase@VPK_Signer@CryptoPP@@V?$DL_PrivateKey@UECPPoint@CryptoPP@@@2@@CryptoPP@@IBEIXZ 42916fda f i dh.obj
 0001:00015fda       ?MessageRepresentativeBitLength@?$DL_SignatureSchemeBase@VPK_Signer@CryptoPP@@V?$DL_PrivateKey@VInteger@CryptoPP@@@2@@CryptoPP@@IBEIXZ 42916fda f i dh.obj
 0001:00015ff7       ??4?$value_ptr@VMontgomeryRepresentation@CryptoPP@@@CryptoPP@@QAEAAV01@ABV01@@Z 42916ff7 f i dh.obj
 0001:00016056       ??0?$DH_Domain@VDL_GroupParameters_GFP_DefaultSafePrime@CryptoPP@@U?$EnumToType@W4CofactorMultiplicationOption@CryptoPP@@$0A@@2@@CryptoPP@@QAE@AAVRandomNumberGenerator@1@ABH@Z 42917056 f i dh.obj
 0001:000160aa       ?GetThisObject@NameValuePairs@CryptoPP@@QBE_NAAVDL_GroupParameters_DSA@2@@Z 429170aa f i dh.obj
 0001:0001614a       ?Ref@?$Singleton@V?$DL_KeyAgreementAlgorithm_DH@VInteger@CryptoPP@@U?$EnumToType@W4CofactorMultiplicationOption@CryptoPP@@$0A@@2@@CryptoPP@@U?$NewObject@V?$DL_KeyAgreementAlgorithm_DH@VInteger@CryptoPP@@U?$EnumToType@W4CofactorMultiplicationOption@CryptoPP@@$0A@@2@@CryptoPP@@@2@$0A@@CryptoPP@@QBAABV?$DL_KeyAgreementAlgorithm_DH@VInteger@CryptoPP@@U?$EnumToType@W4CofactorMultiplicationOption@CryptoPP@@$0A@@2@@2@ZZ 4291714a f i dh.obj
 0001:0001619b       ?StandardReallocate@CryptoPP@@YAPAIAAV?$AllocatorWithCleanup@I$0A@@1@PAIII_N@Z 4291719b f i dh.obj
 0001:0001619b       ?StandardReallocate@CryptoPP@@YAPAIAAV?$AllocatorWithCleanup@I$00@1@PAIII_N@Z 4291719b f i dh.obj
 0001:00016240       ?Ref@?$Singleton@V?$DL_Algorithm_GDSA@VInteger@CryptoPP@@@CryptoPP@@U?$NewObject@V?$DL_Algorithm_GDSA@VInteger@CryptoPP@@@CryptoPP@@@2@$0A@@CryptoPP@@QBAABV?$DL_Algorithm_GDSA@VInteger@CryptoPP@@@2@ZZ 42917240 f i dh.obj
 0001:00016291       ?Ref@?$Singleton@VDL_SignatureMessageEncodingMethod_DSA@CryptoPP@@U?$NewObject@VDL_SignatureMessageEncodingMethod_DSA@CryptoPP@@@2@$0A@@CryptoPP@@QBAABVDL_SignatureMessageEncodingMethod_DSA@2@ZZ 42917291 f i dh.obj
 0001:000162e7       ?_Construct@std@@YAXPAVInteger@CryptoPP@@ABV23@@Z 429172e7 f i dh.obj
 0001:00016314       ?s_pObject@?1??Ref@?$Singleton@VDL_SignatureMessageEncodingMethod_DSA@CryptoPP@@U?$NewObject@VDL_SignatureMessageEncodingMethod_DSA@CryptoPP@@@2@$0A@@CryptoPP@@QBAABVDL_SignatureMessageEncodingMethod_DSA@2@ZZ@$AV?$simple_ptr@VDL_SignatureMessageEncodingMethod_DSA@CryptoPP@@@2@C 42917314 f i dh.obj
 0001:0001631e       ?s_pObject@?1??Ref@?$Singleton@V?$DL_Algorithm_GDSA@VInteger@CryptoPP@@@CryptoPP@@U?$NewObject@V?$DL_Algorithm_GDSA@VInteger@CryptoPP@@@CryptoPP@@@2@$0A@@CryptoPP@@QBAABV?$DL_Algorithm_GDSA@VInteger@CryptoPP@@@2@ZZ@$AV?$simple_ptr@V?$DL_Algorithm_GDSA@VInteger@CryptoPP@@@CryptoPP@@@2@C 4291731e f i dh.obj
 0001:00016332       ?s_pObject@?1??Ref@?$Singleton@V?$DL_KeyAgreementAlgorithm_DH@VInteger@CryptoPP@@U?$EnumToType@W4CofactorMultiplicationOption@CryptoPP@@$0A@@2@@CryptoPP@@U?$NewObject@V?$DL_KeyAgreementAlgorithm_DH@VInteger@CryptoPP@@U?$EnumToType@W4CofactorMultiplicationOption@CryptoPP@@$0A@@2@@CryptoPP@@@2@$0A@@CryptoPP@@QBAABV?$DL_KeyAgreementAlgorithm_DH@VInteger@CryptoPP@@U?$EnumToType@W4CofactorMultiplicationOption@CryptoPP@@$0A@@2@@2@ZZ@$AV?$simple_ptr@V?$DL_KeyAgreementAlgorithm_DH@VInteger@CryptoPP@@U?$EnumToType@W4CofactorMultiplicationOption@CryptoPP@@$0A@@2@@CryptoPP@@@2@C 42917332 f i dh.obj
 0001:00016346       ??0?$GetValueHelperClass@VDL_GroupParameters_GFP@CryptoPP@@VDL_GroupParameters_IntegerBased@2@@CryptoPP@@QAE@PBVDL_GroupParameters_GFP@1@PBDABVtype_info@@PAXPBVNameValuePairs@1@@Z 42917346 f i dh.obj
 0001:000164ce       ??0?$GetValueHelperClass@V?$DL_GroupParameters@VInteger@CryptoPP@@@CryptoPP@@V12@@CryptoPP@@QAE@PBV?$DL_GroupParameters@VInteger@CryptoPP@@@1@PBDABVtype_info@@PAXPBVNameValuePairs@1@@Z 429174ce f i dh.obj
 0001:00016656       ??0?$GetValueHelperClass@V?$DL_GroupParameters_IntegerBasedImpl@VModExpPrecomputation@CryptoPP@@V?$DL_FixedBasePrecomputationImpl@VInteger@CryptoPP@@@2@@CryptoPP@@VDL_GroupParameters_IntegerBased@2@@CryptoPP@@QAE@PBV?$DL_GroupParameters_IntegerBasedImpl@VModExpPrecomputation@CryptoPP@@V?$DL_FixedBasePrecomputationImpl@VInteger@CryptoPP@@@2@@1@PBDABVtype_info@@PAXPBVNameValuePairs@1@@Z 42917656 f i dh.obj
 0001:000167de       ??0?$AssignFromHelperClass@V?$DL_GroupParameters_IntegerBasedImpl@VModExpPrecomputation@CryptoPP@@V?$DL_FixedBasePrecomputationImpl@VInteger@CryptoPP@@@2@@CryptoPP@@VDL_GroupParameters_IntegerBased@2@@CryptoPP@@QAE@PAV?$DL_GroupParameters_IntegerBasedImpl@VModExpPrecomputation@CryptoPP@@V?$DL_FixedBasePrecomputationImpl@VInteger@CryptoPP@@@2@@1@ABVNameValuePairs@1@@Z 429177de f i dh.obj
 0001:0001682a       ??0?$GetValueHelperClass@V?$DL_PublicKeyImpl@VDL_GroupParameters_DSA@CryptoPP@@@CryptoPP@@V?$DL_PublicKey@VInteger@CryptoPP@@@2@@CryptoPP@@QAE@PBV?$DL_PublicKeyImpl@VDL_GroupParameters_DSA@CryptoPP@@@1@PBDABVtype_info@@PAXPBVNameValuePairs@1@@Z 4291782a f i dh.obj
 0001:000169ac       ??0?$AssignFromHelperClass@V?$DL_PublicKeyImpl@VDL_GroupParameters_DSA@CryptoPP@@@CryptoPP@@V?$DL_PublicKey@VInteger@CryptoPP@@@2@@CryptoPP@@QAE@PAV?$DL_PublicKeyImpl@VDL_GroupParameters_DSA@CryptoPP@@@1@ABVNameValuePairs@1@@Z 429179ac f i dh.obj
 0001:000169f7       ??0?$GetValueHelperClass@V?$DL_PrivateKeyImpl@VDL_GroupParameters_DSA@CryptoPP@@@CryptoPP@@V?$DL_PrivateKey@VInteger@CryptoPP@@@2@@CryptoPP@@QAE@PBV?$DL_PrivateKeyImpl@VDL_GroupParameters_DSA@CryptoPP@@@1@PBDABVtype_info@@PAXPBVNameValuePairs@1@@Z 429179f7 f i dh.obj
 0001:00016b79       ??0?$AssignFromHelperClass@V?$DL_PrivateKeyImpl@VDL_GroupParameters_DSA@CryptoPP@@@CryptoPP@@V?$DL_PrivateKey@VInteger@CryptoPP@@@2@@CryptoPP@@QAE@PAV?$DL_PrivateKeyImpl@VDL_GroupParameters_DSA@CryptoPP@@@1@ABVNameValuePairs@1@@Z 42917b79 f i dh.obj
 0001:00016bc4       ??R?$NewObject@V?$DL_KeyAgreementAlgorithm_DH@VInteger@CryptoPP@@U?$EnumToType@W4CofactorMultiplicationOption@CryptoPP@@$0A@@2@@CryptoPP@@@CryptoPP@@QBEPAV?$DL_KeyAgreementAlgorithm_DH@VInteger@CryptoPP@@U?$EnumToType@W4CofactorMultiplicationOption@CryptoPP@@$0A@@2@@1@XZ 42917bc4 f i dh.obj
 0001:00016bda       ?AgreeWithEphemeralPrivateKey@?$DL_KeyAgreementAlgorithm_DH@VInteger@CryptoPP@@U?$EnumToType@W4CofactorMultiplicationOption@CryptoPP@@$0A@@2@@CryptoPP@@UBE?AVInteger@2@ABV?$DL_GroupParameters@VInteger@CryptoPP@@@2@ABV?$DL_FixedBasePrecomputation@VInteger@CryptoPP@@@2@ABV32@@Z 42917bda f i dh.obj
 0001:00016c17       ?AgreeWithStaticPrivateKey@?$DL_KeyAgreementAlgorithm_DH@VInteger@CryptoPP@@U?$EnumToType@W4CofactorMultiplicationOption@CryptoPP@@$0A@@2@@CryptoPP@@UBE?AVInteger@2@ABV?$DL_GroupParameters@VInteger@CryptoPP@@@2@ABV32@_N1@Z 42917c17 f i dh.obj
 0001:00016d57       ??0DL_BadElement@CryptoPP@@QAE@XZ 42917d57 f i dh.obj
 0001:00016dc5       ??0DL_BadElement@CryptoPP@@QAE@ABV01@@Z 42917dc5 f i dh.obj
 0001:00016ddd       ??R?$NewObject@V?$DL_Algorithm_GDSA@VInteger@CryptoPP@@@CryptoPP@@@CryptoPP@@QBEPAV?$DL_Algorithm_GDSA@VInteger@CryptoPP@@@1@XZ 42917ddd f i dh.obj
 0001:00016df3       ??R?$NewObject@VDL_SignatureMessageEncodingMethod_DSA@CryptoPP@@@CryptoPP@@QBEPAVDL_SignatureMessageEncodingMethod_DSA@1@XZ 42917df3 f i dh.obj
 0001:00016e09       ?GetVoidValue@?$DL_PublicKey@VInteger@CryptoPP@@@CryptoPP@@QBE_NPBDABVtype_info@@PAX@Z 42917e09 f i dh.obj
 0001:00016e5d       ?GetVoidValue@?$DL_PrivateKey@VInteger@CryptoPP@@@CryptoPP@@QBE_NPBDABVtype_info@@PAX@Z 42917e5d f i dh.obj
 0001:00016eb1       ?AssignFrom@?$DL_PrivateKey@VInteger@CryptoPP@@@CryptoPP@@QAEXABVNameValuePairs@2@@Z 42917eb1 f i dh.obj
 0001:00016efe       ?GetThisObject@NameValuePairs@CryptoPP@@QBE_NAAV?$DL_GroupParameters_IntegerBasedImpl@VModExpPrecomputation@CryptoPP@@V?$DL_FixedBasePrecomputationImpl@VInteger@CryptoPP@@@2@@2@@Z 42917efe f i dh.obj
 0001:00016f9e       ?AssignFrom@?$DL_PublicKey@VInteger@CryptoPP@@@CryptoPP@@QAEXABVNameValuePairs@2@@Z 42917f9e f i dh.obj
 0001:0001700c       ?GetThisObject@NameValuePairs@CryptoPP@@QBE_NAAV?$DL_PublicKeyImpl@VDL_GroupParameters_DSA@CryptoPP@@@2@@Z 4291800c f i dh.obj
 0001:000170ac       ?GetThisObject@NameValuePairs@CryptoPP@@QBE_NAAV?$DL_PrivateKeyImpl@VDL_GroupParameters_DSA@CryptoPP@@@2@@Z 429180ac f i dh.obj
 0001:0001714c       ??R?$GetValueHelperClass@V?$DL_PrivateKey@UECPPoint@CryptoPP@@@CryptoPP@@V12@@CryptoPP@@QAEAAV01@PBDP8?$DL_PrivateKey@UECPPoint@CryptoPP@@@1@BEABVInteger@1@XZ@Z 4291814c f i dh.obj
 0001:0001714c       ??R?$GetValueHelperClass@V?$DL_PrivateKey@VInteger@CryptoPP@@@CryptoPP@@V12@@CryptoPP@@QAEAAV01@PBDP8?$DL_PrivateKey@VInteger@CryptoPP@@@1@BEABVInteger@1@XZ@Z 4291814c f i dh.obj
 0001:0001714c       ??R?$GetValueHelperClass@V?$DL_PrivateKey@UEC2NPoint@CryptoPP@@@CryptoPP@@V12@@CryptoPP@@QAEAAV01@PBDP8?$DL_PrivateKey@UEC2NPoint@CryptoPP@@@1@BEABVInteger@1@XZ@Z 4291814c f i dh.obj
 0001:0001714c       ??R?$GetValueHelperClass@V?$DL_PublicKey@VInteger@CryptoPP@@@CryptoPP@@V12@@CryptoPP@@QAEAAV01@PBDP8?$DL_PublicKey@VInteger@CryptoPP@@@1@BEABVInteger@1@XZ@Z 4291814c f i dh.obj
 0001:000171ca       ??R?$AssignFromHelperClass@V?$DL_PrivateKey@VInteger@CryptoPP@@@CryptoPP@@V12@@CryptoPP@@QAEAAV01@PBDP8?$DL_PrivateKey@VInteger@CryptoPP@@@1@AEXABVInteger@1@@Z@Z 429181ca f i dh.obj
 0001:000172fb       ?MakePublicKey@?$DL_PrivateKey@VInteger@CryptoPP@@@CryptoPP@@QBEXAAV?$DL_PublicKey@VInteger@CryptoPP@@@2@@Z 429182fb f i dh.obj
 0001:0001738a       ??0?$GetValueHelperClass@V?$DL_PublicKey@VInteger@CryptoPP@@@CryptoPP@@V12@@CryptoPP@@QAE@PBV?$DL_PublicKey@VInteger@CryptoPP@@@1@PBDABVtype_info@@PAXPBVNameValuePairs@1@@Z 4291838a f i dh.obj
 0001:0001750c       ??0?$GetValueHelperClass@V?$DL_PrivateKey@VInteger@CryptoPP@@@CryptoPP@@V12@@CryptoPP@@QAE@PBV?$DL_PrivateKey@VInteger@CryptoPP@@@1@PBDABVtype_info@@PAXPBVNameValuePairs@1@@Z 4291850c f i dh.obj
 0001:0001768e       ??0?$AssignFromHelperClass@V?$DL_PrivateKey@VInteger@CryptoPP@@@CryptoPP@@V12@@CryptoPP@@QAE@PAV?$DL_PrivateKey@VInteger@CryptoPP@@@1@ABVNameValuePairs@1@@Z 4291868e f i dh.obj
 0001:000176d9       ?GetThisPointer@NameValuePairs@CryptoPP@@QBE_NAAPAV?$DL_PrivateKey@VInteger@CryptoPP@@@2@@Z 429186d9 f i dh.obj
 0001:00017779       ??R?$AssignFromHelperClass@V?$DL_PublicKey@VInteger@CryptoPP@@@CryptoPP@@V12@@CryptoPP@@QAEAAV01@PBDP8?$DL_PublicKey@VInteger@CryptoPP@@@1@AEXABVInteger@1@@Z@Z 42918779 f i dh.obj
 0001:0001788e       ?Hack_DefaultValueFromConstReferenceType@CryptoPP@@YA?AVInteger@1@ABV21@@Z 4291888e f i dh.obj
 0001:000178a3       ?GetThisObject@NameValuePairs@CryptoPP@@QBE_NAAV?$DL_PrivateKey@VInteger@CryptoPP@@@2@@Z 429188a3 f i dh.obj
 0001:00017943       ??0?$AssignFromHelperClass@V?$DL_PublicKey@VInteger@CryptoPP@@@CryptoPP@@V12@@CryptoPP@@QAE@PAV?$DL_PublicKey@VInteger@CryptoPP@@@1@ABVNameValuePairs@1@@Z 42918943 f i dh.obj
 0001:0001798e       ?GetThisObject@NameValuePairs@CryptoPP@@QBE_NAAV?$DL_PublicKey@VInteger@CryptoPP@@@2@@Z 4291898e f i dh.obj
 0001:00017a2e       ?DefaultIVLength@SimpleKeyingInterface@CryptoPP@@QBEIXZ 42918a2e f i dh.obj
 0001:00017a2e       ?OptimalBlockSize@?$IteratedHashBase@IVHashTransformation@CryptoPP@@@CryptoPP@@UBEIXZ 42918a2e f i dh.obj
 0001:00017a2e       ?MaxIVLength@SimpleKeyingInterface@CryptoPP@@UBEIXZ 42918a2e f i dh.obj
 0001:00017a2e       ?MinIVLength@SimpleKeyingInterface@CryptoPP@@UBEIXZ 42918a2e f i dh.obj
 0001:00017a2e       ?OptimalBlockSize@?$IteratedHashBase@_KVHashTransformation@CryptoPP@@@CryptoPP@@UBEIXZ 42918a2e f i dh.obj
 0001:00017a2e       ??_9@$BCA@AE               42918a2e f i dh.obj
 0001:00017a33       ??_9@$B3AE                 42918a33 f i dh.obj
 0001:00017a38       ??_9@$B7AE                 42918a38 f i dh.obj
 0001:00017a38       ?GetOptimalBlockSize@AdditiveCipherAbstractPolicy@CryptoPP@@UBEIXZ 42918a38 f i dh.obj
 0001:00017a3d       ??_E?$DL_KeyImpl@VPKCS8PrivateKey@CryptoPP@@VDL_GroupParameters_DSA@2@VOID@2@@CryptoPP@@WKI@AEPAXI@Z 42918a3d f i dh.obj
 0001:00017a48       ?Save@?$ASN1CryptoMaterial@VPrivateKey@CryptoPP@@@CryptoPP@@WJM@BEXAAVBufferedTransformation@2@@Z 42918a48 f i dh.obj
 0001:00017a53       ?Load@?$ASN1CryptoMaterial@VPrivateKey@CryptoPP@@@CryptoPP@@WJM@AEXAAVBufferedTransformation@2@@Z 42918a53 f i dh.obj
 0001:00017a5e       ??_E?$DL_KeyImpl@VX509PublicKey@CryptoPP@@VDL_GroupParameters_DSA@2@VOID@2@@CryptoPP@@WHM@AEPAXI@Z 42918a5e f i dh.obj
 0001:00017a66       ?Save@?$ASN1CryptoMaterial@VPublicKey@CryptoPP@@@CryptoPP@@WHE@BEXAAVBufferedTransformation@2@@Z 42918a66 f i dh.obj
 0001:00017a6e       ?Load@?$ASN1CryptoMaterial@VPublicKey@CryptoPP@@@CryptoPP@@WHE@AEXAAVBufferedTransformation@2@@Z 42918a6e f i dh.obj
 0001:00017a76       ??_E?$DL_PublicKey_GFP@VDL_GroupParameters_DSA@CryptoPP@@@CryptoPP@@WLM@AEPAXI@Z 42918a76 f i dh.obj
 0001:00017a81       ?Save@?$ASN1CryptoMaterial@VPublicKey@CryptoPP@@@CryptoPP@@WLE@BEXAAVBufferedTransformation@2@@Z 42918a81 f i dh.obj
 0001:00017a8c       ?Load@?$ASN1CryptoMaterial@VPublicKey@CryptoPP@@@CryptoPP@@WLE@AEXAAVBufferedTransformation@2@@Z 42918a8c f i dh.obj
 0001:00017a97       ?Save@?$ASN1CryptoMaterial@VPrivateKey@CryptoPP@@@CryptoPP@@WLA@BEXAAVBufferedTransformation@2@@Z 42918a97 f i dh.obj
 0001:00017aa2       ?Load@?$ASN1CryptoMaterial@VPrivateKey@CryptoPP@@@CryptoPP@@WLA@AEXAAVBufferedTransformation@2@@Z 42918aa2 f i dh.obj
 0001:00017aad       ?AssignFrom@?$DL_GroupParameters_IntegerBasedImpl@VModExpPrecomputation@CryptoPP@@V?$DL_FixedBasePrecomputationImpl@VInteger@CryptoPP@@@2@@CryptoPP@@$4PPPPPPPM@A@AEXABVNameValuePairs@2@@Z 42918aad f i dh.obj
 0001:00017ab5       ?Validate@?$DL_GroupParameters@VInteger@CryptoPP@@@CryptoPP@@$4PPPPPPPM@FM@BE_NAAVRandomNumberGenerator@2@I@Z 42918ab5 f i dh.obj
 0001:00017ac0       ?Save@?$ASN1CryptoMaterial@V?$DL_GroupParameters@VInteger@CryptoPP@@@CryptoPP@@@CryptoPP@@$4PPPPPPPM@FM@BEXAAVBufferedTransformation@2@@Z 42918ac0 f i dh.obj
 0001:00017acb       ?Save@?$ASN1CryptoMaterial@V?$DL_GroupParameters@VInteger@CryptoPP@@@CryptoPP@@@CryptoPP@@UBEXAAVBufferedTransformation@2@@Z 42918acb f i dh.obj
 0001:00017adb       ?Load@?$ASN1CryptoMaterial@V?$DL_GroupParameters@VInteger@CryptoPP@@@CryptoPP@@@CryptoPP@@$4PPPPPPPM@FM@AEXAAVBufferedTransformation@2@@Z 42918adb f i dh.obj
 0001:00017ae6       ?Load@?$ASN1CryptoMaterial@V?$DL_GroupParameters@VInteger@CryptoPP@@@CryptoPP@@@CryptoPP@@UAEXAAVBufferedTransformation@2@@Z 42918ae6 f i dh.obj
 0001:00017af6       ?SupportsPrecomputation@?$DL_GroupParameters@VInteger@CryptoPP@@@CryptoPP@@$4PPPPPPPM@FM@BE_NXZ 42918af6 f i dh.obj
 0001:00017b01       ?Precompute@?$DL_GroupParameters@VInteger@CryptoPP@@@CryptoPP@@$4PPPPPPPM@FM@AEXI@Z 42918b01 f i dh.obj
 0001:00017b0c       ?LoadPrecomputation@?$DL_GroupParameters@VInteger@CryptoPP@@@CryptoPP@@$4PPPPPPPM@FM@AEXAAVBufferedTransformation@2@@Z 42918b0c f i dh.obj
 0001:00017b17       ?SavePrecomputation@?$DL_GroupParameters@VInteger@CryptoPP@@@CryptoPP@@$4PPPPPPPM@FM@BEXAAVBufferedTransformation@2@@Z 42918b17 f i dh.obj
 0001:00017b22       ??_E?$DL_PrivateKey_GFP@VDL_GroupParameters_DSA@CryptoPP@@@CryptoPP@@WLM@AEPAXI@Z 42918b22 f i dh.obj
 0001:00017b22       ??_E?$DL_PrivateKey_WithSignaturePairwiseConsistencyTest@V?$DL_PrivateKey_GFP@VDL_GroupParameters_DSA@CryptoPP@@@CryptoPP@@UDSA@2@@CryptoPP@@WLM@AEPAXI@Z 42918b22 f i dh.obj
 0001:00017b2d       ??_E?$DL_GroupParametersImpl@VModExpPrecomputation@CryptoPP@@V?$DL_FixedBasePrecomputationImpl@VInteger@CryptoPP@@@2@VDL_GroupParameters_IntegerBased@2@@CryptoPP@@$4PPPPPPPM@HA@AEPAXI@Z 42918b2d f i dh.obj
 0001:00017b38       ?GetVoidValue@DL_GroupParameters_IntegerBased@CryptoPP@@$4PPPPPPPM@EI@BE_NPBDABVtype_info@@PAX@Z 42918b38 f i dh.obj
 0001:00017b43       ?AssignFrom@DL_GroupParameters_IntegerBased@CryptoPP@@$4PPPPPPPM@EI@AEXABVNameValuePairs@2@@Z 42918b43 f i dh.obj
 0001:00017b4e       ??_E?$DL_SignerImpl@U?$DL_SignatureSchemeOptions@UDSA@CryptoPP@@UDL_Keys_DSA@2@V?$DL_Algorithm_GDSA@VInteger@CryptoPP@@@2@VDL_SignatureMessageEncodingMethod_DSA@2@VSHA1@2@@CryptoPP@@@CryptoPP@@W3AEPAXI@Z 42918b4e f i dh.obj
 0001:00017b56       ??_E?$DL_VerifierImpl@U?$DL_SignatureSchemeOptions@UDSA@CryptoPP@@UDL_Keys_DSA@2@V?$DL_Algorithm_GDSA@VInteger@CryptoPP@@@2@VDL_SignatureMessageEncodingMethod_DSA@2@VSHA1@2@@CryptoPP@@@CryptoPP@@W3AEPAXI@Z 42918b56 f i dh.obj
 0001:00017b5e       ??_EDL_GroupParameters_GFP_DefaultSafePrime@CryptoPP@@$4PPPPPPPM@HA@AEPAXI@Z 42918b5e f i dh.obj
 0001:00017b5e       ??_EDL_GroupParameters_GFP@CryptoPP@@$4PPPPPPPM@HA@AEPAXI@Z 42918b5e f i dh.obj
 0001:00017b5e       ??_EDL_GroupParameters_DSA@CryptoPP@@$4PPPPPPPM@HA@AEPAXI@Z 42918b5e f i dh.obj
 0001:00017b69       ?GetVoidValue@DL_GroupParameters_GFP@CryptoPP@@$4PPPPPPPM@A@BE_NPBDABVtype_info@@PAX@Z 42918b69 f i dh.obj
 0001:00017b71       ??_E?$DL_PublicKeyImpl@VDL_GroupParameters_DSA@CryptoPP@@@CryptoPP@@WLM@AEPAXI@Z 42918b71 f i dh.obj
 0001:00017b7c       ??_E?$DL_PrivateKeyImpl@VDL_GroupParameters_DSA@CryptoPP@@@CryptoPP@@WLM@AEPAXI@Z 42918b7c f i dh.obj
 0001:00017b87       ?SetWhat@Exception@CryptoPP@@QAEXABV?$basic_string@DU?$char_traits@D@std@@V?$allocator@D@2@@std@@@Z 42918b87 f i dll.obj
 0001:00017b9e       ?SetAutoSignalPropagation@?$AutoSignaling@V?$InputRejecting@VBufferedTransformation@CryptoPP@@@CryptoPP@@@CryptoPP@@UAEXH@Z 42918b9e f i dll.obj
 0001:00017b9e       ?SetAutoSignalPropagation@?$AutoSignaling@VBufferedTransformation@CryptoPP@@@CryptoPP@@UAEXH@Z 42918b9e f i dll.obj
 0001:00017b9e       ?Redirect@Redirector@CryptoPP@@QAEXAAVBufferedTransformation@2@@Z 42918b9e f i dll.obj
 0001:00017b9e       ?SetErrorType@Exception@CryptoPP@@QAEXW4ErrorType@12@@Z 42918b9e f i dll.obj
 0001:00017ba8       ??0InvalidArgument@CryptoPP@@QAE@ABV?$basic_string@DU?$char_traits@D@std@@V?$allocator@D@2@@std@@@Z 42918ba8 f i dll.obj
 0001:00017bc2       ??0InvalidDataFormat@CryptoPP@@QAE@ABV?$basic_string@DU?$char_traits@D@std@@V?$allocator@D@2@@std@@@Z 42918bc2 f i dll.obj
 0001:00017bdc       ??0InvalidCiphertext@CryptoPP@@QAE@ABV?$basic_string@DU?$char_traits@D@std@@V?$allocator@D@2@@std@@@Z 42918bdc f i dll.obj
 0001:00017bf6       ??0NotImplemented@CryptoPP@@QAE@ABV?$basic_string@DU?$char_traits@D@std@@V?$allocator@D@2@@std@@@Z 42918bf6 f i dll.obj
 0001:00017c10       ??0CannotFlush@CryptoPP@@QAE@ABV?$basic_string@DU?$char_traits@D@std@@V?$allocator@D@2@@std@@@Z 42918c10 f i dll.obj
 0001:00017c2a       ??0OS_Error@CryptoPP@@QAE@W4ErrorType@Exception@1@ABV?$basic_string@DU?$char_traits@D@std@@V?$allocator@D@2@@std@@1H@Z 42918c2a f i dll.obj
 0001:00017c8e       ?GetGroupPrecomputation@?$DL_GroupParametersImpl@VModExpPrecomputation@CryptoPP@@V?$DL_FixedBasePrecomputationImpl@VInteger@CryptoPP@@@2@VDL_GroupParameters_IntegerBased@2@@CryptoPP@@UBEABV?$DL_GroupPrecomputation@VInteger@CryptoPP@@@2@XZ 42918c8e f i dll.obj
 0001:00017c8e       ?GetOperation@OS_Error@CryptoPP@@QBEABV?$basic_string@DU?$char_traits@D@std@@V?$allocator@D@2@@std@@XZ 42918c8e f i dll.obj
 0001:00017c8e       ?GetPublicExponent@RSAFunction@CryptoPP@@QBEABVInteger@2@XZ 42918c8e f i dll.obj
 0001:00017c92       ??0OS_Error@CryptoPP@@QAE@ABV01@@Z 42918c92 f i dll.obj
 0001:00017cf5       ??4OS_Error@CryptoPP@@QAEAAV01@ABV01@@Z 42918cf5 f i dll.obj
 0001:00017d24       ??0DecodingResult@CryptoPP@@QAE@XZ 42918d24 f i dll.obj
 0001:00017d2e       ??0DecodingResult@CryptoPP@@QAE@I@Z 42918d2e f i dll.obj
 0001:00017d3d       ??8DecodingResult@CryptoPP@@QBE_NABU01@@Z 42918d3d f i dll.obj
 0001:00017d59       ??9DecodingResult@CryptoPP@@QBE_NABU01@@Z 42918d59 f i dll.obj
 0001:00017d7e       ??4DecodingResult@CryptoPP@@QAEAAU01@ABU01@@Z 42918d7e f i dll.obj
 0001:00017d91       ?GetStoredTypeInfo@ValueTypeMismatch@NameValuePairs@CryptoPP@@QBEABVtype_info@@XZ 42918d91 f i dll.obj
 0001:00017d95       ?GetRetrievingTypeInfo@ValueTypeMismatch@NameValuePairs@CryptoPP@@QBEABVtype_info@@XZ 42918d95 f i dll.obj
 0001:00017d99       ?GetValueNames@NameValuePairs@CryptoPP@@QBE?AV?$basic_string@DU?$char_traits@D@std@@V?$allocator@D@2@@std@@XZ 42918d99 f i dll.obj
 0001:00017e1e       ?GetIntValue@NameValuePairs@CryptoPP@@QBE_NPBDAAH@Z 42918e1e f i dll.obj
 0001:00017e33       ?GetIntValueWithDefault@NameValuePairs@CryptoPP@@QBEHPBDH@Z 42918e33 f i dll.obj
 0001:00017e54       ??_FAlgorithm@CryptoPP@@QAEXXZ 42918e54 f i dll.obj
 0001:00017e5c       ?SetKeyWithIV@SimpleKeyingInterface@CryptoPP@@QAEXPBEI0@Z 42918e5c f i dll.obj
 0001:00017e7c       ?IsResynchronizable@SimpleKeyingInterface@CryptoPP@@QBE_NXZ 42918e7c f i dll.obj
 0001:00017e8c       ?CanUseRandomIVs@SimpleKeyingInterface@CryptoPP@@QBE_NXZ 42918e8c f i dll.obj
 0001:00017e9c       ?CanUsePredictableIVs@SimpleKeyingInterface@CryptoPP@@QBE_NXZ 42918e9c f i dll.obj
 0001:00017eac       ?CanUseStructuredIVs@SimpleKeyingInterface@CryptoPP@@QBE_NXZ 42918eac f i dll.obj
 0001:00017ebb       ?IVSize@SimpleKeyingInterface@CryptoPP@@UBEIXZ 42918ebb f i dll.obj
 0001:00017f12       ?ProcessBlock@BlockTransformation@CryptoPP@@QBEXPBEPAE@Z 42918f12 f i dll.obj
 0001:00017f24       ?ProcessBlock@BlockTransformation@CryptoPP@@QBEXPAE@Z 42918f24 f i dll.obj
 0001:00017f36       ?GetCipherDirection@BlockTransformation@CryptoPP@@QBE?AW4CipherDir@2@XZ 42918f36 f i dll.obj
 0001:00017f41       ?ProcessString@StreamTransformation@CryptoPP@@QAEXPAEI@Z 42918f41 f i dll.obj
 0001:00017f55       ?ProcessString@StreamTransformation@CryptoPP@@QAEXPAEPBEI@Z 42918f55 f i dll.obj
 0001:00017f69       ?ProcessByte@StreamTransformation@CryptoPP@@QAEEE@Z 42918f69 f i dll.obj
 0001:00017f81       ?TagSize@HashTransformation@CryptoPP@@QBEIXZ 42918f81 f i dll.obj
 0001:00017f86       ??0BlockCipher@CryptoPP@@QAE@XZ 42918f86 f i dll.obj
 0001:00017fb4       ??0SymmetricCipher@CryptoPP@@QAE@XZ 42918fb4 f i dll.obj
 0001:00017fe2       ?GetAlgorithm@SymmetricCipher@CryptoPP@@MBEABVAlgorithm@2@XZ 42918fe2 f i dll.obj
 0001:00017fe2       ?GetAlgorithm@AuthenticatedSymmetricCipher@CryptoPP@@MBEABVAlgorithm@2@XZ 42918fe2 f i dll.obj
 0001:00017fe2       ?GetAlgorithm@BlockCipher@CryptoPP@@MBEABVAlgorithm@2@XZ 42918fe2 f i dll.obj
 0001:00017fe2       ?GetAlgorithm@MessageAuthenticationCode@CryptoPP@@MBEABVAlgorithm@2@XZ 42918fe2 f i dll.obj
 0001:00017fee       ??0MessageAuthenticationCode@CryptoPP@@QAE@XZ 42918fee f i dll.obj
 0001:0001801c       ?MaxFooterLength@AuthenticatedSymmetricCipher@CryptoPP@@UBE_KXZ 4291901c f i dll.obj
 0001:00018021       ?UncheckedSpecifyDataLengths@AuthenticatedSymmetricCipher@CryptoPP@@MAEX_K00@Z 42919021 f i dll.obj
 0001:00018024       ?Put@BufferedTransformation@CryptoPP@@QAEIE_N@Z 42919024 f i dll.obj
 0001:00018039       ?Put@BufferedTransformation@CryptoPP@@QAEIPBEI_N@Z 42919039 f i dll.obj
 0001:0001804f       ?PutModifiable@BufferedTransformation@CryptoPP@@QAEIPAEI_N@Z 4291904f f i dll.obj
 0001:00018065       ?MessageEnd@BufferedTransformation@CryptoPP@@QAE_NH_N@Z 42919065 f i dll.obj
 0001:0001808a       ?PutMessageEnd@BufferedTransformation@CryptoPP@@QAEIPBEIH_N@Z 4291908a f i dll.obj
 0001:000180ad       ?TransferTo@BufferedTransformation@CryptoPP@@QAE_KAAV12@_KABV?$basic_string@DU?$char_traits@D@std@@V?$allocator@D@2@@std@@@Z 429190ad f i dll.obj
 0001:000180cb       ?CopyTo@BufferedTransformation@CryptoPP@@QBE_KAAV12@_KABV?$basic_string@DU?$char_traits@D@std@@V?$allocator@D@2@@std@@@Z 429190cb f i dll.obj
 0001:000180fc       ?CopyRangeTo@BufferedTransformation@CryptoPP@@QBE_KAAV12@_K1ABV?$basic_string@DU?$char_traits@D@std@@V?$allocator@D@2@@std@@@Z 429190fc f i dll.obj
 0001:00018141       ?TransferMessagesTo@BufferedTransformation@CryptoPP@@QAEIAAV12@IABV?$basic_string@DU?$char_traits@D@std@@V?$allocator@D@2@@std@@@Z 42919141 f i dll.obj
 0001:0001815c       ?TransferAllTo@BufferedTransformation@CryptoPP@@QAEXAAV12@ABV?$basic_string@DU?$char_traits@D@std@@V?$allocator@D@2@@std@@@Z 4291915c f i dll.obj
 0001:0001816e       ?ChannelPut@BufferedTransformation@CryptoPP@@QAEIABV?$basic_string@DU?$char_traits@D@std@@V?$allocator@D@2@@std@@E_N@Z 4291916e f i dll.obj
 0001:0001818a       ?ChannelPut@BufferedTransformation@CryptoPP@@QAEIABV?$basic_string@DU?$char_traits@D@std@@V?$allocator@D@2@@std@@PBEI_N@Z 4291918a f i dll.obj
 0001:000181a7       ?ChannelPutModifiable@BufferedTransformation@CryptoPP@@QAEIABV?$basic_string@DU?$char_traits@D@std@@V?$allocator@D@2@@std@@PAEI_N@Z 429191a7 f i dll.obj
 0001:000181c4       ?ChannelMessageEnd@BufferedTransformation@CryptoPP@@QAE_NABV?$basic_string@DU?$char_traits@D@std@@V?$allocator@D@2@@std@@H_N@Z 429191c4 f i dll.obj
 0001:000181f0       ?ChannelPutMessageEnd@BufferedTransformation@CryptoPP@@QAEIABV?$basic_string@DU?$char_traits@D@std@@V?$allocator@D@2@@std@@PBEIH_N@Z 429191f0 f i dll.obj
 0001:00018219       ?DecrementPropagation@BufferedTransformation@CryptoPP@@KAHH@Z 42919219 f i dll.obj
 0001:00018227       ??4Sink@CryptoPP@@QAEAAV01@ABV01@@Z 42919227 f i dll.obj
 0001:00018227       ??4BitBucket@CryptoPP@@QAEAAV01@ABV01@@Z 42919227 f i dll.obj
 0001:00018227       ??4BufferedTransformation@CryptoPP@@QAEAAV01@ABV01@@Z 42919227 f i dll.obj
 0001:0001824c       ??0InvalidMaterial@CryptoMaterial@CryptoPP@@QAE@ABV?$basic_string@DU?$char_traits@D@std@@V?$allocator@D@2@@std@@@Z 4291924c f i dll.obj
 0001:00018266       ?Save@CryptoMaterial@CryptoPP@@UBEXAAVBufferedTransformation@2@@Z 42919266 f i dll.obj
 0001:000182c2       ?Load@CryptoMaterial@CryptoPP@@UAEXAAVBufferedTransformation@2@@Z 429192c2 f i dll.obj
 0001:0001831e       ?DoQuickSanityCheck@CryptoMaterial@CryptoPP@@QBEXXZ 4291931e f i dll.obj
 0001:00018334       ??4InvalidRounds@CryptoPP@@QAEAAV01@ABV01@@Z 42919334 f i dll.obj
 0001:00018334       ??4KeyTooShort@PK_SignatureScheme@CryptoPP@@QAEAAV012@ABV012@@Z 42919334 f i dll.obj
 0001:00018334       ??4InvalidPlaintextLength@PK_Encryptor@CryptoPP@@QAEAAV012@ABV012@@Z 42919334 f i dll.obj
 0001:00018334       ??4InvalidKeyLength@PK_SignatureScheme@CryptoPP@@QAEAAV012@ABV012@@Z 42919334 f i dll.obj
 0001:00018334       ??4InvalidCiphertext@CryptoPP@@QAEAAV01@ABV01@@Z 42919334 f i dll.obj
 0001:00018334       ??4InvalidArgument@CryptoPP@@QAEAAV01@ABV01@@Z 42919334 f i dll.obj
 0001:00018334       ??4BERDecodeErr@CryptoPP@@QAEAAV01@ABV01@@Z 42919334 f i dll.obj
 0001:00018334       ??4HashInputTooLong@CryptoPP@@QAEAAV01@ABV01@@Z 42919334 f i dll.obj
 0001:00018334       ??4InvalidDataFormat@CryptoPP@@QAEAAV01@ABV01@@Z 42919334 f i dll.obj
 0001:00018334       ??4NotImplemented@CryptoPP@@QAEAAV01@ABV01@@Z 42919334 f i dll.obj
 0001:00018334       ??4InvalidKeyLength@CryptoPP@@QAEAAV01@ABV01@@Z 42919334 f i dll.obj
 0001:00018334       ??4SelfTestFailure@CryptoPP@@QAEAAV01@ABV01@@Z 42919334 f i dll.obj
 0001:00018334       ??4InvalidMaterial@CryptoMaterial@CryptoPP@@QAEAAV012@ABV012@@Z 42919334 f i dll.obj
 0001:00018334       ??4CannotFlush@CryptoPP@@QAEAAV01@ABV01@@Z 42919334 f i dll.obj
 0001:00018334       ??4UnknownOID@CryptoPP@@QAEAAV01@ABV01@@Z 42919334 f i dll.obj
 0001:00018334       ??4OS_RNG_Err@CryptoPP@@QAEAAV01@ABV01@@Z 42919334 f i dll.obj
 0001:00018346       ??0GeneratableCryptoMaterial@CryptoPP@@QAE@XZ 42919346 f i dll.obj
 0001:00018361       ??0GeneratableCryptoMaterial@CryptoPP@@QAE@ABV01@@Z 42919361 f i dll.obj
 0001:0001837c       ??0PublicKey@CryptoPP@@QAE@XZ 4291937c f i dll.obj
 0001:00018396       ??0PublicKey@CryptoPP@@QAE@ABV01@@Z 42919396 f i dll.obj
 0001:000183b0       ??0PrivateKey@CryptoPP@@QAE@XZ 429193b0 f i dll.obj
 0001:000183cb       ??0CryptoParameters@CryptoPP@@QAE@XZ 429193cb f i dll.obj
 0001:000183e6       ?BERDecode@AsymmetricAlgorithm@CryptoPP@@QAEXAAVBufferedTransformation@2@@Z 429193e6 f i dll.obj
 0001:000183f9       ?DEREncode@AsymmetricAlgorithm@CryptoPP@@QBEXAAVBufferedTransformation@2@@Z 429193f9 f i dll.obj
 0001:0001840c       ??0InvalidPlaintextLength@PK_Encryptor@CryptoPP@@QAE@XZ 4291940c f i dll.obj
 0001:0001847b       ??0InvalidPlaintextLength@PK_Encryptor@CryptoPP@@QAE@ABV012@@Z 4291947b f i dll.obj
 0001:00018493       ??0PK_Encryptor@CryptoPP@@QAE@XZ 42919493 f i dll.obj
 0001:000184c1       ?FixedLengthDecrypt@PK_Decryptor@CryptoPP@@QBE?AUDecodingResult@2@AAVRandomNumberGenerator@2@PBEPAEABVNameValuePairs@2@@Z 429194c1 f i dll.obj
 0001:000184fa       ??0PK_Decryptor@CryptoPP@@QAE@XZ 429194fa f i dll.obj
 0001:00018528       ??0InvalidKeyLength@PK_SignatureScheme@CryptoPP@@QAE@ABV?$basic_string@DU?$char_traits@D@std@@V?$allocator@D@2@@std@@@Z 42919528 f i dll.obj
 0001:00018542       ??0KeyTooShort@PK_SignatureScheme@CryptoPP@@QAE@XZ 42919542 f i dll.obj
 0001:000185b7       ??0InvalidKeyLength@PK_SignatureScheme@CryptoPP@@QAE@ABV012@@Z 429195b7 f i dll.obj
 0001:000185cf       ??0KeyTooShort@PK_SignatureScheme@CryptoPP@@QAE@ABV012@@Z 429195cf f i dll.obj
 0001:000185e7       ??0PK_Signer@CryptoPP@@QAE@XZ 429195e7 f i dll.obj
 0001:00018615       ??0PK_Verifier@CryptoPP@@QAE@XZ 42919615 f i dll.obj
 0001:00018643       ??0BERDecodeErr@CryptoPP@@QAE@ABV?$basic_string@DU?$char_traits@D@std@@V?$allocator@D@2@@std@@@Z 42919643 f i dll.obj
 0001:0001865d       ??0InvalidRounds@CryptoPP@@QAE@ABV?$basic_string@DU?$char_traits@D@std@@V?$allocator@D@2@@std@@I@Z 4291965d f i dll.obj
 0001:0001872e       ??0InvalidRounds@CryptoPP@@QAE@ABV01@@Z 4291972e f i dll.obj
 0001:00018746       ??0Store@CryptoPP@@QAE@XZ  42919746 f i dll.obj
 0001:0001875c       ??0Store@CryptoPP@@QAE@ABV01@@Z 4291975c f i dll.obj
 0001:00018777       ??0?$CFB_CipherTemplate@V?$AbstractPolicyHolder@VCFB_CipherAbstractPolicy@CryptoPP@@VSymmetricCipher@2@@CryptoPP@@@CryptoPP@@QAE@ABV01@@Z 42919777 f i dll.obj
 0001:00018777       ??4?$CFB_CipherTemplate@V?$AbstractPolicyHolder@VCFB_CipherAbstractPolicy@CryptoPP@@VSymmetricCipher@2@@CryptoPP@@@CryptoPP@@QAEAAV01@ABV01@@Z 42919777 f i dll.obj
 0001:00018777       ??0BufferedTransformation@CryptoPP@@QAE@ABV01@@Z 42919777 f i dll.obj
 0001:00018777       ??4?$CFB_DecryptionTemplate@V?$AbstractPolicyHolder@VCFB_CipherAbstractPolicy@CryptoPP@@VSymmetricCipher@2@@CryptoPP@@@CryptoPP@@QAEAAV01@ABV01@@Z 42919777 f i dll.obj
 0001:00018777       ??4?$CFB_EncryptionTemplate@V?$AbstractPolicyHolder@VCFB_CipherAbstractPolicy@CryptoPP@@VSymmetricCipher@2@@CryptoPP@@@CryptoPP@@QAEAAV01@ABV01@@Z 42919777 f i dll.obj
 0001:00018777       ??0?$CFB_EncryptionTemplate@V?$AbstractPolicyHolder@VCFB_CipherAbstractPolicy@CryptoPP@@VSymmetricCipher@2@@CryptoPP@@@CryptoPP@@QAE@ABV01@@Z 42919777 f i dll.obj
 0001:00018777       ??0?$CFB_DecryptionTemplate@V?$AbstractPolicyHolder@VCFB_CipherAbstractPolicy@CryptoPP@@VSymmetricCipher@2@@CryptoPP@@@CryptoPP@@QAE@ABV01@@Z 42919777 f i dll.obj
 0001:00018777       ??0Sink@CryptoPP@@QAE@ABV01@@Z 42919777 f i dll.obj
 0001:00018786       ??0BitBucket@CryptoPP@@QAE@ABV01@@Z 42919786 f i dll.obj
 0001:000187a2       ??0PolynomialMod2@CryptoPP@@QAE@PBEI@Z 429197a2 f i dll.obj
 0001:000187dc       ??0PolynomialMod2@CryptoPP@@QAE@AAVBufferedTransformation@1@I@Z 429197dc f i dll.obj
 0001:00018816       ??0PolynomialMod2@CryptoPP@@QAE@AAVRandomNumberGenerator@1@I@Z 42919816 f i dll.obj
 0001:00018850       ?MinEncodedSize@PolynomialMod2@CryptoPP@@QBEIXZ 42919850 f i dll.obj
 0001:00018872       ?GetBit@PolynomialMod2@CryptoPP@@QBE_NI@Z 42919872 f i dll.obj
 0001:00018884       ?Degree@PolynomialMod2@CryptoPP@@QBEHXZ 42919884 f i dll.obj
 0001:0001888b       ?CoefficientCount@PolynomialMod2@CryptoPP@@QBEIXZ 4291988b f i dll.obj
 0001:00018890       ?GetCoefficient@PolynomialMod2@CryptoPP@@QBEHI@Z 42919890 f i dll.obj
 0001:000188b5       ??APolynomialMod2@CryptoPP@@QBEHI@Z 429198b5 f i dll.obj
 0001:000188c1       ?IsZero@PolynomialMod2@CryptoPP@@QBE_NXZ 429198c1 f i dll.obj
 0001:000188c6       ??YPolynomialMod2@CryptoPP@@QAEAAV01@ABV01@@Z 429198c6 f i dll.obj
 0001:000188c6       ??ZPolynomialMod2@CryptoPP@@QAEAAV01@ABV01@@Z 429198c6 f i dll.obj
 0001:000188d2       ?SetCoefficient@PolynomialMod2@CryptoPP@@QAEXIH@Z 429198d2 f i dll.obj
 0001:000188e2       ?swap@PolynomialMod2@CryptoPP@@QAEXAAV12@@Z 429198e2 f i dll.obj
 0001:000188ee       ??HPolynomialMod2@CryptoPP@@QBE?AV01@XZ 429198ee f i dll.obj
 0001:000188ee       ??GPolynomialMod2@CryptoPP@@QBE?AV01@XZ 429198ee f i dll.obj
 0001:00018906       ?Plus@PolynomialMod2@CryptoPP@@QBE?AV12@ABV12@@Z 42919906 f i dll.obj
 0001:00018906       ?Minus@PolynomialMod2@CryptoPP@@QBE?AV12@ABV12@@Z 42919906 f i dll.obj
 0001:00018920       ?Doubled@PolynomialMod2@CryptoPP@@QBE?AV12@XZ 42919920 f i dll.obj
 0001:0001893d       ?IsUnit@PolynomialMod2@CryptoPP@@QBE_NXZ 4291993d f i dll.obj
 0001:0001894f       ?MultiplicativeInverse@PolynomialMod2@CryptoPP@@QBE?AV12@XZ 4291994f f i dll.obj
 0001:00018988       ??1PolynomialMod2@CryptoPP@@QAE@XZ 42919988 f i dll.obj
 0001:0001898d       ??0?$AbstractEuclideanDomain@VPolynomialMod2@CryptoPP@@@CryptoPP@@QAE@XZ 4291998d f i dll.obj
 0001:000189c3       ??0?$AbstractEuclideanDomain@VPolynomialMod2@CryptoPP@@@CryptoPP@@QAE@ABV01@@Z 429199c3 f i dll.obj
 0001:00018a02       ??4?$AbstractEuclideanDomain@VPolynomialMod2@CryptoPP@@@CryptoPP@@QAEAAV01@ABV01@@Z 42919a02 f i dll.obj
 0001:00018a1b       ??1?$AbstractEuclideanDomain@VPolynomialMod2@CryptoPP@@@CryptoPP@@UAE@XZ 42919a1b f i dll.obj
 0001:00018a41       ??0?$EuclideanDomainOf@VPolynomialMod2@CryptoPP@@@CryptoPP@@QAE@ABV01@@Z 42919a41 f i dll.obj
 0001:00018a9b       ??4?$EuclideanDomainOf@VPolynomialMod2@CryptoPP@@@CryptoPP@@QAEAAV01@ABV01@@Z 42919a9b f i dll.obj
 0001:00018ac2       ??1?$EuclideanDomainOf@VPolynomialMod2@CryptoPP@@@CryptoPP@@UAE@XZ 42919ac2 f i dll.obj
 0001:00018afb       ??_E?$EuclideanDomainOf@VPolynomialMod2@CryptoPP@@@CryptoPP@@UAEPAXI@Z 42919afb f i dll.obj
 0001:00018b48       ??0?$QuotientRing@V?$EuclideanDomainOf@VPolynomialMod2@CryptoPP@@@CryptoPP@@@CryptoPP@@QAE@ABV01@@Z 42919b48 f i dll.obj
 0001:00018b9f       ??4?$QuotientRing@V?$EuclideanDomainOf@VPolynomialMod2@CryptoPP@@@CryptoPP@@@CryptoPP@@QAEAAV01@ABV01@@Z 42919b9f f i dll.obj
 0001:00018bd2       ??1?$QuotientRing@V?$EuclideanDomainOf@VPolynomialMod2@CryptoPP@@@CryptoPP@@@CryptoPP@@UAE@XZ 42919bd2 f i dll.obj
 0001:00018c0b       ??_E?$QuotientRing@V?$EuclideanDomainOf@VPolynomialMod2@CryptoPP@@@CryptoPP@@@CryptoPP@@UAEPAXI@Z 42919c0b f i dll.obj
 0001:00018c58       ?Clone@GF2NP@CryptoPP@@UBEPAV12@XZ 42919c58 f i dll.obj
 0001:00018cb3       ?Equal@?$EuclideanDomainOf@VPolynomialMod2@CryptoPP@@@CryptoPP@@UBE_NABVPolynomialMod2@2@0@Z 42919cb3 f i dll.obj
 0001:00018cb3       ?Equal@GF2NP@CryptoPP@@UBE_NABVPolynomialMod2@2@0@Z 42919cb3 f i dll.obj
 0001:00018cc3       ?IsUnit@GF2NP@CryptoPP@@UBE_NABVPolynomialMod2@2@@Z 42919cc3 f i dll.obj
 0001:00018cd4       ?MaxElementBitLength@GF2NP@CryptoPP@@QBEIXZ 42919cd4 f i dll.obj
 0001:00018cd4       ?DigestSize@CCM_Base@CryptoPP@@UBEIXZ 42919cd4 f i dll.obj
 0001:00018cd8       ?MaxElementByteLength@GF2NP@CryptoPP@@QBEIXZ 42919cd8 f i dll.obj
 0001:00018ce2       ??0GF2NP@CryptoPP@@QAE@ABV01@@Z 42919ce2 f i dll.obj
 0001:00018d03       ??4GF2NP@CryptoPP@@QAEAAV01@ABV01@@Z 42919d03 f i dll.obj
 0001:00018d1e       ??1GF2NP@CryptoPP@@UAE@XZ  42919d1e f i dll.obj
 0001:00018d57       ??_EGF2NP@CryptoPP@@UAEPAXI@Z 42919d57 f i dll.obj
 0001:00018da4       ?Clone@GF2NT@CryptoPP@@UBEPAVGF2NP@2@XZ 42919da4 f i dll.obj
 0001:00018ded       ?Square@GF2NT@CryptoPP@@UBEABVPolynomialMod2@2@ABV32@@Z 42919ded f i dll.obj
 0001:00018e34       ??0GF2NT@CryptoPP@@QAE@ABV01@@Z 42919e34 f i dll.obj
 0001:00018e8f       ??4GF2NT@CryptoPP@@QAEAAV01@ABV01@@Z 42919e8f f i dll.obj
 0001:00018ec2       ??1GF2NT@CryptoPP@@UAE@XZ  42919ec2 f i dll.obj
 0001:00018f07       ??_EGF2NT@CryptoPP@@UAEPAXI@Z 42919f07 f i dll.obj
 0001:00018f54       ??0GF2NPP@CryptoPP@@QAE@IIIII@Z 42919f54 f i dll.obj
 0001:00018fc9       ?Clone@GF2NPP@CryptoPP@@UBEPAVGF2NP@2@XZ 42919fc9 f i dll.obj
 0001:00019012       ??0GF2NPP@CryptoPP@@QAE@ABV01@@Z 4291a012 f i dll.obj
 0001:00019051       ??4GF2NPP@CryptoPP@@QAEAAV01@ABV01@@Z 4291a051 f i dll.obj
 0001:00019084       ??1GF2NPP@CryptoPP@@UAE@XZ 4291a084 f i dll.obj
 0001:000190bd       ??_EGF2NPP@CryptoPP@@UAEPAXI@Z 4291a0bd f i dll.obj
 0001:0001910a       ??0EC2NPoint@CryptoPP@@QAE@XZ 4291a10a f i dll.obj
 0001:00019141       ??0EC2NPoint@CryptoPP@@QAE@ABVPolynomialMod2@1@0@Z 4291a141 f i dll.obj
 0001:00019180       ??8EC2NPoint@CryptoPP@@QBE_NABU01@@Z 4291a180 f i dll.obj
 0001:000191c7       ??MEC2NPoint@CryptoPP@@QBE_NABU01@@Z 4291a1c7 f i dll.obj
 0001:00019234       ??0EC2NPoint@CryptoPP@@QAE@ABU01@@Z 4291a234 f i dll.obj
 0001:0001927b       ??4EC2NPoint@CryptoPP@@QAEAAU01@ABU01@@Z 4291a27b f i dll.obj
 0001:000192a6       ??1EC2NPoint@CryptoPP@@QAE@XZ 4291a2a6 f i dll.obj
 0001:000192dc       ??0EC2N@CryptoPP@@QAE@XZ   4291a2dc f i dll.obj
 0001:00019346       ??0EC2N@CryptoPP@@QAE@ABVGF2NP@1@ABVPolynomialMod2@1@1@Z 4291a346 f i dll.obj
 0001:000193be       ?CascadeMultiply@ECP@CryptoPP@@QBE?AUECPPoint@2@ABVInteger@2@ABU32@01@Z 4291a3be f i dll.obj
 0001:000193be       ?CascadeMultiply@EC2N@CryptoPP@@QBE?AUEC2NPoint@2@ABVInteger@2@ABU32@01@Z 4291a3be f i dll.obj
 0001:000193e1       ?EncodedPointSize@EC2N@CryptoPP@@QBEI_N@Z 4291a3e1 f i dll.obj
 0001:000193fe       ?FieldSize@EC2N@CryptoPP@@QBE?AVInteger@2@XZ 4291a3fe f i dll.obj
 0001:0001941d       ??8EC2N@CryptoPP@@QBE_NABV01@@Z 4291a41d f i dll.obj
 0001:00019467       ??0EC2N@CryptoPP@@QAE@ABV01@@Z 4291a467 f i dll.obj
 0001:000194d8       ??4EC2N@CryptoPP@@QAEAAV01@ABV01@@Z 4291a4d8 f i dll.obj
 0001:00019517       ??1EC2N@CryptoPP@@UAE@XZ   4291a517 f i dll.obj
 0001:00019568       ??_EEC2N@CryptoPP@@UAEPAXI@Z 4291a568 f i dll.obj
 0001:000195b5       ??1?$value_ptr@VECP@CryptoPP@@@CryptoPP@@QAE@XZ 4291a5b5 f i dll.obj
 0001:000195b5       ??1?$clonable_ptr@VGF2NP@CryptoPP@@@CryptoPP@@QAE@XZ 4291a5b5 f i dll.obj
 0001:000195b5       ??1?$clonable_ptr@VModularArithmetic@CryptoPP@@@CryptoPP@@QAE@XZ 4291a5b5 f i dll.obj
 0001:000195ba       ??0?$DL_FixedBasePrecomputationImpl@UEC2NPoint@CryptoPP@@@CryptoPP@@QAE@ABV01@@Z 4291a5ba f i dll.obj
 0001:0001961f       ??4?$DL_FixedBasePrecomputationImpl@UEC2NPoint@CryptoPP@@@CryptoPP@@QAEAAV01@ABV01@@Z 4291a61f f i dll.obj
 0001:00019658       ??1?$DL_FixedBasePrecomputationImpl@UEC2NPoint@CryptoPP@@@CryptoPP@@QAE@XZ 4291a658 f i dll.obj
 0001:000196a4       ??0?$DL_GroupPrecomputation@UEC2NPoint@CryptoPP@@@CryptoPP@@QAE@XZ 4291a6a4 f i dll.obj
 0001:000196ad       ??0?$DL_GroupPrecomputation@UEC2NPoint@CryptoPP@@@CryptoPP@@QAE@ABV01@@Z 4291a6ad f i dll.obj
 0001:000196b8       ??0ECPPoint@CryptoPP@@QAE@XZ 4291a6b8 f i dll.obj
 0001:000196ef       ??0ECPPoint@CryptoPP@@QAE@ABVInteger@1@0@Z 4291a6ef f i dll.obj
 0001:0001972e       ??8ECPPoint@CryptoPP@@QBE_NABU01@@Z 4291a72e f i dll.obj
 0001:00019775       ??MECPPoint@CryptoPP@@QBE_NABU01@@Z 4291a775 f i dll.obj
 0001:000197cf       ??0ECPPoint@CryptoPP@@QAE@ABU01@@Z 4291a7cf f i dll.obj
 0001:00019816       ??4ECPPoint@CryptoPP@@QAEAAU01@ABU01@@Z 4291a816 f i dll.obj
 0001:00019841       ??1ECPPoint@CryptoPP@@QAE@XZ 4291a841 f i dll.obj
 0001:0001988b       ??0ECP@CryptoPP@@QAE@XZ    4291a88b f i dll.obj
 0001:000198f5       ??0ECP@CryptoPP@@QAE@ABVInteger@1@00@Z 4291a8f5 f i dll.obj
 0001:000199d5       ?Multiply@ECP@CryptoPP@@QBE?AUECPPoint@2@ABVInteger@2@ABU32@@Z 4291a9d5 f i dll.obj
 0001:000199d5       ?Multiply@EC2N@CryptoPP@@QBE?AUEC2NPoint@2@ABVInteger@2@ABU32@@Z 4291a9d5 f i dll.obj
 0001:000199f2       ?EncodedPointSize@ECP@CryptoPP@@QBEI_N@Z 4291a9f2 f i dll.obj
 0001:00019a0b       ?FieldSize@ECP@CryptoPP@@QBE?AVInteger@2@XZ 4291aa0b f i dll.obj
 0001:00019a29       ?GetA@EC2N@CryptoPP@@QBEABVPolynomialMod2@2@XZ 4291aa29 f i dll.obj
 0001:00019a29       ?GetA@ECP@CryptoPP@@QBEABVInteger@2@XZ 4291aa29 f i dll.obj
 0001:00019a29       ?GetModulus@RWFunction@CryptoPP@@QBEABVInteger@2@XZ 4291aa29 f i dll.obj
 0001:00019a2d       ?GetB@ECP@CryptoPP@@QBEABVInteger@2@XZ 4291aa2d f i dll.obj
 0001:00019a31       ??8ECP@CryptoPP@@QBE_NABV01@@Z 4291aa31 f i dll.obj
 0001:00019a7b       ??4ECP@CryptoPP@@QAEAAV01@ABV01@@Z 4291aa7b f i dll.obj
 0001:00019aba       ??1ECP@CryptoPP@@UAE@XZ    4291aaba f i dll.obj
 0001:00019b18       ??_OECP@CryptoPP@@QAEXABV01@@Z 4291ab18 f i dll.obj
 0001:00019b26       ??_EECP@CryptoPP@@UAEPAXI@Z 4291ab26 f i dll.obj
 0001:00019b73       ??0?$DL_FixedBasePrecomputationImpl@UECPPoint@CryptoPP@@@CryptoPP@@QAE@ABV01@@Z 4291ab73 f i dll.obj
 0001:00019bd8       ??4?$DL_FixedBasePrecomputationImpl@UECPPoint@CryptoPP@@@CryptoPP@@QAEAAV01@ABV01@@Z 4291abd8 f i dll.obj
 0001:00019c11       ??1?$DL_FixedBasePrecomputationImpl@UECPPoint@CryptoPP@@@CryptoPP@@QAE@XZ 4291ac11 f i dll.obj
 0001:00019c5d       ??0?$DL_GroupPrecomputation@UECPPoint@CryptoPP@@@CryptoPP@@QAE@XZ 4291ac5d f i dll.obj
 0001:00019c66       ??0?$DL_GroupPrecomputation@UECPPoint@CryptoPP@@@CryptoPP@@QAE@ABV01@@Z 4291ac66 f i dll.obj
 0001:00019c71       ??0PrimeSelector@CryptoPP@@QAE@XZ 4291ac71 f i dll.obj
 0001:00019c7a       ??0PrimeSelector@CryptoPP@@QAE@ABV01@@Z 4291ac7a f i dll.obj
 0001:00019c85       ??0PrimeAndGenerator@CryptoPP@@QAE@XZ 4291ac85 f i dll.obj
 0001:00019cc2       ??0PrimeAndGenerator@CryptoPP@@QAE@HAAVRandomNumberGenerator@1@I@Z 4291acc2 f i dll.obj
 0001:00019d1a       ??0PrimeAndGenerator@CryptoPP@@QAE@HAAVRandomNumberGenerator@1@II@Z 4291ad1a f i dll.obj
 0001:00019d70       ?GetB@EC2N@CryptoPP@@QBEABVPolynomialMod2@2@XZ 4291ad70 f i dll.obj
 0001:00019d70       ?SubPrime@PrimeAndGenerator@CryptoPP@@QBEABVInteger@2@XZ 4291ad70 f i dll.obj
 0001:00019d74       ?GetPrime1@InvertibleRWFunction@CryptoPP@@QBEABVInteger@2@XZ 4291ad74 f i dll.obj
 0001:00019d74       ?Generator@PrimeAndGenerator@CryptoPP@@QBEABVInteger@2@XZ 4291ad74 f i dll.obj
 0001:00019d74       ?GetBasePrecomputation@?$DL_GroupParameters_IntegerBasedImpl@VModExpPrecomputation@CryptoPP@@V?$DL_FixedBasePrecomputationImpl@VInteger@CryptoPP@@@2@@CryptoPP@@UBEABV?$DL_FixedBasePrecomputation@VInteger@CryptoPP@@@2@XZ 4291ad74 f i dll.obj
 0001:00019d74       ?AccessBasePrecomputation@?$DL_GroupParametersImpl@VModExpPrecomputation@CryptoPP@@V?$DL_FixedBasePrecomputationImpl@VInteger@CryptoPP@@@2@VDL_GroupParameters_IntegerBased@2@@CryptoPP@@UAEAAV?$DL_FixedBasePrecomputation@VInteger@CryptoPP@@@2@XZ 4291ad74 f i dll.obj
 0001:00019d74       ?GetBasePrecomputation@?$DL_GroupParametersImpl@VModExpPrecomputation@CryptoPP@@V?$DL_FixedBasePrecomputationImpl@VInteger@CryptoPP@@@2@VDL_GroupParameters_IntegerBased@2@@CryptoPP@@UBEABV?$DL_FixedBasePrecomputation@VInteger@CryptoPP@@@2@XZ 4291ad74 f i dll.obj
 0001:00019d74       ?AccessBasePrecomputation@?$DL_GroupParameters_IntegerBasedImpl@VModExpPrecomputation@CryptoPP@@V?$DL_FixedBasePrecomputationImpl@VInteger@CryptoPP@@@2@@CryptoPP@@UAEAAV?$DL_FixedBasePrecomputation@VInteger@CryptoPP@@@2@XZ 4291ad74 f i dll.obj
 0001:00019d78       ??0PrimeAndGenerator@CryptoPP@@QAE@ABV01@@Z 4291ad78 f i dll.obj
 0001:00019dc5       ??1PrimeAndGenerator@CryptoPP@@QAE@XZ 4291adc5 f i dll.obj
 0001:00019e1b       ??0HexEncoder@CryptoPP@@QAE@PAVBufferedTransformation@1@_NHABV?$basic_string@DU?$char_traits@D@std@@V?$allocator@D@2@@std@@2@Z 4291ae1b f i dll.obj
 0001:00019f68       ??_FHexEncoder@CryptoPP@@QAEXXZ 4291af68 f i dll.obj
 0001:0001a00a       ??_EHexEncoder@CryptoPP@@UAEPAXI@Z 4291b00a f i dll.obj
 0001:0001a057       ??0HexDecoder@CryptoPP@@QAE@PAVBufferedTransformation@1@@Z 4291b057 f i dll.obj
 0001:0001a080       ??1HexDecoder@CryptoPP@@UAE@XZ 4291b080 f i dll.obj
 0001:0001a0b9       ??_FHexDecoder@CryptoPP@@QAEXXZ 4291b0b9 f i dll.obj
 0001:0001a0c1       ??_EHexDecoder@CryptoPP@@UAEPAXI@Z 4291b0c1 f i dll.obj
 0001:0001a10e       ??0?$DL_GroupParameters_EC@VECP@CryptoPP@@@CryptoPP@@QAE@ABV01@@Z 4291b10e f i dll.obj
 0001:0001a1c9       ??4?$DL_GroupParameters_EC@VECP@CryptoPP@@@CryptoPP@@QAEAAV01@ABV01@@Z 4291b1c9 f i dll.obj
 0001:0001a223       ??1?$DL_GroupParameters_EC@VECP@CryptoPP@@@CryptoPP@@UAE@XZ 4291b223 f i dll.obj
 0001:0001a282       ??_D?$DL_GroupParameters_EC@VECP@CryptoPP@@@CryptoPP@@QAEXXZ 4291b282 f i dll.obj
 0001:0001a299       ??_E?$DL_GroupParameters_EC@VECP@CryptoPP@@@CryptoPP@@UAEPAXI@Z 4291b299 f i dll.obj
 0001:0001a2f4       ??0?$DL_GroupParametersImpl@V?$EcPrecomputation@VECP@CryptoPP@@@CryptoPP@@V?$DL_FixedBasePrecomputationImpl@UECPPoint@CryptoPP@@@2@V?$DL_GroupParameters@UECPPoint@CryptoPP@@@2@@CryptoPP@@QAE@ABV01@@Z 4291b2f4 f i dll.obj
 0001:0001a37e       ??1?$DL_GroupParametersImpl@V?$EcPrecomputation@VECP@CryptoPP@@@CryptoPP@@V?$DL_FixedBasePrecomputationImpl@UECPPoint@CryptoPP@@@2@V?$DL_GroupParameters@UECPPoint@CryptoPP@@@2@@CryptoPP@@UAE@XZ 4291b37e f i dll.obj
 0001:0001a3b7       ??4?$DL_GroupParametersImpl@V?$EcPrecomputation@VECP@CryptoPP@@@CryptoPP@@V?$DL_FixedBasePrecomputationImpl@UECPPoint@CryptoPP@@@2@V?$DL_GroupParameters@UECPPoint@CryptoPP@@@2@@CryptoPP@@QAEAAV01@ABV01@@Z 4291b3b7 f i dll.obj
 0001:0001a3f0       ??0?$DL_GroupParameters@UECPPoint@CryptoPP@@@CryptoPP@@QAE@ABV01@@Z 4291b3f0 f i dll.obj
 0001:0001a423       ??0?$EcPrecomputation@VECP@CryptoPP@@@CryptoPP@@QAE@ABV01@@Z 4291b423 f i dll.obj
 0001:0001a472       ?ConvertIn@?$EcPrecomputation@VECP@CryptoPP@@@CryptoPP@@UBE?AUECPPoint@2@ABU32@@Z 4291b472 f i dll.obj
 0001:0001a56a       ?ConvertOut@?$EcPrecomputation@VECP@CryptoPP@@@CryptoPP@@UBE?AUECPPoint@2@ABU32@@Z 4291b56a f i dll.obj
 0001:0001a662       ?GetField@ECP@CryptoPP@@QBEABVModularArithmetic@2@XZ 4291b662 f i dll.obj
 0001:0001a662       ?GetField@EC2N@CryptoPP@@QBEABVGF2NP@2@XZ 4291b662 f i dll.obj
 0001:0001a662       ?GetGroup@?$EcPrecomputation@VECP@CryptoPP@@@CryptoPP@@UBEABV?$AbstractGroup@UECPPoint@CryptoPP@@@2@XZ 4291b662 f i dll.obj
 0001:0001a666       ?BERDecodeElement@?$EcPrecomputation@VECP@CryptoPP@@@CryptoPP@@UBE?AUECPPoint@2@AAVBufferedTransformation@2@@Z 4291b666 f i dll.obj
 0001:0001a683       ?DEREncodeElement@?$EcPrecomputation@VECP@CryptoPP@@@CryptoPP@@UBEXAAVBufferedTransformation@2@ABUECPPoint@2@@Z 4291b683 f i dll.obj
 0001:0001a698       ??1?$EcPrecomputation@VECP@CryptoPP@@@CryptoPP@@QAE@XZ 4291b698 f i dll.obj
 0001:0001a6ce       ??0?$DL_GroupParameters_EC@VEC2N@CryptoPP@@@CryptoPP@@QAE@ABV01@@Z 4291b6ce f i dll.obj
 0001:0001a78f       ??4?$DL_GroupParameters_EC@VEC2N@CryptoPP@@@CryptoPP@@QAEAAV01@ABV01@@Z 4291b78f f i dll.obj
 0001:0001a7ef       ??1?$DL_GroupParameters_EC@VEC2N@CryptoPP@@@CryptoPP@@UAE@XZ 4291b7ef f i dll.obj
 0001:0001a84e       ??_D?$DL_GroupParameters_EC@VEC2N@CryptoPP@@@CryptoPP@@QAEXXZ 4291b84e f i dll.obj
 0001:0001a865       ??_E?$DL_GroupParameters_EC@VEC2N@CryptoPP@@@CryptoPP@@UAEPAXI@Z 4291b865 f i dll.obj
 0001:0001a8c0       ??0?$DL_GroupParametersImpl@V?$EcPrecomputation@VEC2N@CryptoPP@@@CryptoPP@@V?$DL_FixedBasePrecomputationImpl@UEC2NPoint@CryptoPP@@@2@V?$DL_GroupParameters@UEC2NPoint@CryptoPP@@@2@@CryptoPP@@QAE@ABV01@@Z 4291b8c0 f i dll.obj
 0001:0001a958       ?AccessKeyInterface@?$DL_ObjectImplBase@V?$DL_SignerBase@VInteger@CryptoPP@@@CryptoPP@@U?$DL_SignatureSchemeOptions@UDSA@CryptoPP@@UDL_Keys_DSA@2@V?$DL_Algorithm_GDSA@VInteger@CryptoPP@@@2@VDL_SignatureMessageEncodingMethod_DSA@2@VSHA1@2@@2@V?$DL_PrivateKey_WithSignaturePairwiseConsistencyTest@V?$DL_PrivateKey_GFP@VDL_GroupParameters_DSA@CryptoPP@@@CryptoPP@@UDSA@2@@2@@CryptoPP@@MAEAAV?$DL_PrivateKey@VInteger@CryptoPP@@@2@XZ 4291b958 f i dll.obj
 0001:0001a958       ?GetKeyInterface@?$DL_ObjectImplBase@V?$DL_VerifierBase@UEC2NPoint@CryptoPP@@@CryptoPP@@U?$DL_SignatureSchemeOptions@V?$DL_SS@U?$DL_Keys_ECDSA@VEC2N@CryptoPP@@@CryptoPP@@V?$DL_Algorithm_ECDSA@VEC2N@CryptoPP@@@2@VDL_SignatureMessageEncodingMethod_DSA@2@VSHA256@2@H@CryptoPP@@U?$DL_Keys_ECDSA@VEC2N@CryptoPP@@@2@V?$DL_Algorithm_ECDSA@VEC2N@CryptoPP@@@2@VDL_SignatureMessageEncodingMethod_DSA@2@VSHA256@2@@2@V?$DL_PublicKey_EC@VEC2N@CryptoPP@@@2@@CryptoPP@@MBEABV?$DL_PublicKey@UEC2NPoint@CryptoPP@@@2@XZ 4291b958 f i dll.obj
 0001:0001a958       ?AccessGroupParameters@?$DH_Domain@VDL_GroupParameters_GFP_DefaultSafePrime@CryptoPP@@U?$EnumToType@W4CofactorMultiplicationOption@CryptoPP@@$0A@@2@@CryptoPP@@QAEAAVDL_GroupParameters_GFP_DefaultSafePrime@2@XZ 4291b958 f i dll.obj
 0001:0001a958       ?AccessKeyInterface@?$DL_ObjectImplBase@V?$DL_VerifierBase@UECPPoint@CryptoPP@@@CryptoPP@@U?$DL_SignatureSchemeOptions@V?$DL_SS@U?$DL_Keys_ECDSA@VECP@CryptoPP@@@CryptoPP@@V?$DL_Algorithm_ECDSA@VECP@CryptoPP@@@2@VDL_SignatureMessageEncodingMethod_DSA@2@VSHA1@2@H@CryptoPP@@U?$DL_Keys_ECDSA@VECP@CryptoPP@@@2@V?$DL_Algorithm_ECDSA@VECP@CryptoPP@@@2@VDL_SignatureMessageEncodingMethod_DSA@2@VSHA1@2@@2@V?$DL_PublicKey_EC@VECP@CryptoPP@@@2@@CryptoPP@@MAEAAV?$DL_PublicKey@UECPPoint@CryptoPP@@@2@XZ 4291b958 f i dll.obj
 0001:0001a958       ?AccessKeyInterface@?$DL_ObjectImplBase@V?$DL_SignerBase@UEC2NPoint@CryptoPP@@@CryptoPP@@U?$DL_SignatureSchemeOptions@V?$DL_SS@U?$DL_Keys_ECDSA@VEC2N@CryptoPP@@@CryptoPP@@V?$DL_Algorithm_ECDSA@VEC2N@CryptoPP@@@2@VDL_SignatureMessageEncodingMethod_DSA@2@VSHA1@2@H@CryptoPP@@U?$DL_Keys_ECDSA@VEC2N@CryptoPP@@@2@V?$DL_Algorithm_ECDSA@VEC2N@CryptoPP@@@2@VDL_SignatureMessageEncodingMethod_DSA@2@VSHA1@2@@2@V?$DL_PrivateKey_WithSignaturePairwiseConsistencyTest@V?$DL_PrivateKey_EC@VEC2N@CryptoPP@@@CryptoPP@@U?$ECDSA@VEC2N@CryptoPP@@VSHA256@2@@2@@2@@CryptoPP@@MAEAAV?$DL_PrivateKey@UEC2NPoint@CryptoPP@@@2@XZ 4291b958 f i dll.obj
 0001:0001a958       ?GetGroupParameters@?$DH_Domain@VDL_GroupParameters_GFP_DefaultSafePrime@CryptoPP@@U?$EnumToType@W4CofactorMultiplicationOption@CryptoPP@@$0A@@2@@CryptoPP@@QBEABVDL_GroupParameters_GFP_DefaultSafePrime@2@XZ 4291b958 f i dll.obj
 0001:0001a958       ?MultiplicativeGroup@?$AbstractRing@VPolynomialMod2@CryptoPP@@@CryptoPP@@UBEABV?$AbstractGroup@VPolynomialMod2@CryptoPP@@@2@XZ 4291b958 f i dll.obj
 0001:0001a958       ?GetKeyInterface@?$DL_ObjectImplBase@V?$DL_VerifierBase@UEC2NPoint@CryptoPP@@@CryptoPP@@U?$DL_SignatureSchemeOptions@V?$DL_SS@U?$DL_Keys_ECDSA@VEC2N@CryptoPP@@@CryptoPP@@V?$DL_Algorithm_ECDSA@VEC2N@CryptoPP@@@2@VDL_SignatureMessageEncodingMethod_DSA@2@VSHA1@2@H@CryptoPP@@U?$DL_Keys_ECDSA@VEC2N@CryptoPP@@@2@V?$DL_Algorithm_ECDSA@VEC2N@CryptoPP@@@2@VDL_SignatureMessageEncodingMethod_DSA@2@VSHA1@2@@2@V?$DL_PublicKey_EC@VEC2N@CryptoPP@@@2@@CryptoPP@@MBEABV?$DL_PublicKey@UEC2NPoint@CryptoPP@@@2@XZ 4291b958 f i dll.obj
 0001:0001a958       ?GetGroup@?$EcPrecomputation@VEC2N@CryptoPP@@@CryptoPP@@UBEABV?$AbstractGroup@UEC2NPoint@CryptoPP@@@2@XZ 4291b958 f i dll.obj
 0001:0001a958       ?AccessKeyInterface@?$DL_ObjectImplBase@V?$DL_VerifierBase@UEC2NPoint@CryptoPP@@@CryptoPP@@U?$DL_SignatureSchemeOptions@V?$DL_SS@U?$DL_Keys_ECDSA@VEC2N@CryptoPP@@@CryptoPP@@V?$DL_Algorithm_ECDSA@VEC2N@CryptoPP@@@2@VDL_SignatureMessageEncodingMethod_DSA@2@VSHA256@2@H@CryptoPP@@U?$DL_Keys_ECDSA@VEC2N@CryptoPP@@@2@V?$DL_Algorithm_ECDSA@VEC2N@CryptoPP@@@2@VDL_SignatureMessageEncodingMethod_DSA@2@VSHA256@2@@2@V?$DL_PublicKey_EC@VEC2N@CryptoPP@@@2@@CryptoPP@@MAEAAV?$DL_PublicKey@UEC2NPoint@CryptoPP@@@2@XZ 4291b958 f i dll.obj
 0001:0001a958       ?GetKeyInterface@?$DL_ObjectImplBase@V?$DL_SignerBase@UECPPoint@CryptoPP@@@CryptoPP@@U?$DL_SignatureSchemeOptions@V?$DL_SS@U?$DL_Keys_ECDSA@VECP@CryptoPP@@@CryptoPP@@V?$DL_Algorithm_ECDSA@VECP@CryptoPP@@@2@VDL_SignatureMessageEncodingMethod_DSA@2@VSHA256@2@H@CryptoPP@@U?$DL_Keys_ECDSA@VECP@CryptoPP@@@2@V?$DL_Algorithm_ECDSA@VECP@CryptoPP@@@2@VDL_SignatureMessageEncodingMethod_DSA@2@VSHA256@2@@2@V?$DL_PrivateKey_WithSignaturePairwiseConsistencyTest@V?$DL_PrivateKey_EC@VECP@CryptoPP@@@CryptoPP@@U?$ECDSA@VECP@CryptoPP@@VSHA256@2@@2@@2@@CryptoPP@@MBEABV?$DL_PrivateKey@UECPPoint@CryptoPP@@@2@XZ 4291b958 f i dll.obj
 0001:0001a958       ?AccessKeyInterface@?$DL_ObjectImplBase@V?$DL_SignerBase@UECPPoint@CryptoPP@@@CryptoPP@@U?$DL_SignatureSchemeOptions@V?$DL_SS@U?$DL_Keys_ECDSA@VECP@CryptoPP@@@CryptoPP@@V?$DL_Algorithm_ECDSA@VECP@CryptoPP@@@2@VDL_SignatureMessageEncodingMethod_DSA@2@VSHA256@2@H@CryptoPP@@U?$DL_Keys_ECDSA@VECP@CryptoPP@@@2@V?$DL_Algorithm_ECDSA@VECP@CryptoPP@@@2@VDL_SignatureMessageEncodingMethod_DSA@2@VSHA256@2@@2@V?$DL_PrivateKey_WithSignaturePairwiseConsistencyTest@V?$DL_PrivateKey_EC@VECP@CryptoPP@@@CryptoPP@@U?$ECDSA@VECP@CryptoPP@@VSHA256@2@@2@@2@@CryptoPP@@MAEAAV?$DL_PrivateKey@UECPPoint@CryptoPP@@@2@XZ 4291b958 f i dll.obj
 0001:0001a958       ?GetKeyInterface@?$DL_ObjectImplBase@V?$DL_SignerBase@UEC2NPoint@CryptoPP@@@CryptoPP@@U?$DL_SignatureSchemeOptions@V?$DL_SS@U?$DL_Keys_ECDSA@VEC2N@CryptoPP@@@CryptoPP@@V?$DL_Algorithm_ECDSA@VEC2N@CryptoPP@@@2@VDL_SignatureMessageEncodingMethod_DSA@2@VSHA256@2@H@CryptoPP@@U?$DL_Keys_ECDSA@VEC2N@CryptoPP@@@2@V?$DL_Algorithm_ECDSA@VEC2N@CryptoPP@@@2@VDL_SignatureMessageEncodingMethod_DSA@2@VSHA256@2@@2@V?$DL_PrivateKey_WithSignaturePairwiseConsistencyTest@V?$DL_PrivateKey_EC@VEC2N@CryptoPP@@@CryptoPP@@U?$ECDSA@VEC2N@CryptoPP@@VSHA256@2@@2@@2@@CryptoPP@@MBEABV?$DL_PrivateKey@UEC2NPoint@CryptoPP@@@2@XZ 4291b958 f i dll.obj
 0001:0001a958       ?GetKeyInterface@?$DL_ObjectImplBase@V?$DL_SignerBase@UEC2NPoint@CryptoPP@@@CryptoPP@@U?$DL_SignatureSchemeOptions@V?$DL_SS@U?$DL_Keys_ECDSA@VEC2N@CryptoPP@@@CryptoPP@@V?$DL_Algorithm_ECDSA@VEC2N@CryptoPP@@@2@VDL_SignatureMessageEncodingMethod_DSA@2@VSHA1@2@H@CryptoPP@@U?$DL_Keys_ECDSA@VEC2N@CryptoPP@@@2@V?$DL_Algorithm_ECDSA@VEC2N@CryptoPP@@@2@VDL_SignatureMessageEncodingMethod_DSA@2@VSHA1@2@@2@V?$DL_PrivateKey_WithSignaturePairwiseConsistencyTest@V?$DL_PrivateKey_EC@VEC2N@CryptoPP@@@CryptoPP@@U?$ECDSA@VEC2N@CryptoPP@@VSHA256@2@@2@@2@@CryptoPP@@MBEABV?$DL_PrivateKey@UEC2NPoint@CryptoPP@@@2@XZ 4291b958 f i dll.obj
 0001:0001a958       ?MultiplicativeGroup@?$AbstractRing@VInteger@CryptoPP@@@CryptoPP@@UBEABV?$AbstractGroup@VInteger@CryptoPP@@@2@XZ 4291b958 f i dll.obj
 0001:0001a958       ?GetKeyInterface@?$DL_ObjectImplBase@V?$DL_VerifierBase@UECPPoint@CryptoPP@@@CryptoPP@@U?$DL_SignatureSchemeOptions@V?$DL_SS@U?$DL_Keys_ECDSA@VECP@CryptoPP@@@CryptoPP@@V?$DL_Algorithm_ECDSA@VECP@CryptoPP@@@2@VDL_SignatureMessageEncodingMethod_DSA@2@VSHA256@2@H@CryptoPP@@U?$DL_Keys_ECDSA@VECP@CryptoPP@@@2@V?$DL_Algorithm_ECDSA@VECP@CryptoPP@@@2@VDL_SignatureMessageEncodingMethod_DSA@2@VSHA256@2@@2@V?$DL_PublicKey_EC@VECP@CryptoPP@@@2@@CryptoPP@@MBEABV?$DL_PublicKey@UECPPoint@CryptoPP@@@2@XZ 4291b958 f i dll.obj
 0001:0001a958       ?AccessKeyInterface@?$DL_ObjectImplBase@V?$DL_VerifierBase@VInteger@CryptoPP@@@CryptoPP@@U?$DL_SignatureSchemeOptions@UDSA@CryptoPP@@UDL_Keys_DSA@2@V?$DL_Algorithm_GDSA@VInteger@CryptoPP@@@2@VDL_SignatureMessageEncodingMethod_DSA@2@VSHA1@2@@2@V?$DL_PublicKey_GFP@VDL_GroupParameters_DSA@CryptoPP@@@2@@CryptoPP@@MAEAAV?$DL_PublicKey@VInteger@CryptoPP@@@2@XZ 4291b958 f i dll.obj
 0001:0001a958       ?GetKeyInterface@?$DL_ObjectImplBase@V?$DL_VerifierBase@VInteger@CryptoPP@@@CryptoPP@@U?$DL_SignatureSchemeOptions@UDSA@CryptoPP@@UDL_Keys_DSA@2@V?$DL_Algorithm_GDSA@VInteger@CryptoPP@@@2@VDL_SignatureMessageEncodingMethod_DSA@2@VSHA1@2@@2@V?$DL_PublicKey_GFP@VDL_GroupParameters_DSA@CryptoPP@@@2@@CryptoPP@@MBEABV?$DL_PublicKey@VInteger@CryptoPP@@@2@XZ 4291b958 f i dll.obj
 0001:0001a958       ?GetKeyInterface@?$DL_ObjectImplBase@V?$DL_SignerBase@UECPPoint@CryptoPP@@@CryptoPP@@U?$DL_SignatureSchemeOptions@V?$DL_SS@U?$DL_Keys_ECDSA@VECP@CryptoPP@@@CryptoPP@@V?$DL_Algorithm_ECDSA@VECP@CryptoPP@@@2@VDL_SignatureMessageEncodingMethod_DSA@2@VSHA1@2@H@CryptoPP@@U?$DL_Keys_ECDSA@VECP@CryptoPP@@@2@V?$DL_Algorithm_ECDSA@VECP@CryptoPP@@@2@VDL_SignatureMessageEncodingMethod_DSA@2@VSHA1@2@@2@V?$DL_PrivateKey_WithSignaturePairwiseConsistencyTest@V?$DL_PrivateKey_EC@VECP@CryptoPP@@@CryptoPP@@U?$ECDSA@VECP@CryptoPP@@VSHA256@2@@2@@2@@CryptoPP@@MBEABV?$DL_PrivateKey@UECPPoint@CryptoPP@@@2@XZ 4291b958 f i dll.obj
 0001:0001a958       ?AccessKeyInterface@?$DL_ObjectImplBase@V?$DL_SignerBase@UEC2NPoint@CryptoPP@@@CryptoPP@@U?$DL_SignatureSchemeOptions@V?$DL_SS@U?$DL_Keys_ECDSA@VEC2N@CryptoPP@@@CryptoPP@@V?$DL_Algorithm_ECDSA@VEC2N@CryptoPP@@@2@VDL_SignatureMessageEncodingMethod_DSA@2@VSHA256@2@H@CryptoPP@@U?$DL_Keys_ECDSA@VEC2N@CryptoPP@@@2@V?$DL_Algorithm_ECDSA@VEC2N@CryptoPP@@@2@VDL_SignatureMessageEncodingMethod_DSA@2@VSHA256@2@@2@V?$DL_PrivateKey_WithSignaturePairwiseConsistencyTest@V?$DL_PrivateKey_EC@VEC2N@CryptoPP@@@CryptoPP@@U?$ECDSA@VEC2N@CryptoPP@@VSHA256@2@@2@@2@@CryptoPP@@MAEAAV?$DL_PrivateKey@UEC2NPoint@CryptoPP@@@2@XZ 4291b958 f i dll.obj
 0001:0001a958       ?GetKeyInterface@?$DL_ObjectImplBase@V?$DL_VerifierBase@UECPPoint@CryptoPP@@@CryptoPP@@U?$DL_SignatureSchemeOptions@V?$DL_SS@U?$DL_Keys_ECDSA@VECP@CryptoPP@@@CryptoPP@@V?$DL_Algorithm_ECDSA@VECP@CryptoPP@@@2@VDL_SignatureMessageEncodingMethod_DSA@2@VSHA1@2@H@CryptoPP@@U?$DL_Keys_ECDSA@VECP@CryptoPP@@@2@V?$DL_Algorithm_ECDSA@VECP@CryptoPP@@@2@VDL_SignatureMessageEncodingMethod_DSA@2@VSHA1@2@@2@V?$DL_PublicKey_EC@VECP@CryptoPP@@@2@@CryptoPP@@MBEABV?$DL_PublicKey@UECPPoint@CryptoPP@@@2@XZ 4291b958 f i dll.obj
 0001:0001a958       ?AccessKeyInterface@?$DL_ObjectImplBase@V?$DL_VerifierBase@UEC2NPoint@CryptoPP@@@CryptoPP@@U?$DL_SignatureSchemeOptions@V?$DL_SS@U?$DL_Keys_ECDSA@VEC2N@CryptoPP@@@CryptoPP@@V?$DL_Algorithm_ECDSA@VEC2N@CryptoPP@@@2@VDL_SignatureMessageEncodingMethod_DSA@2@VSHA1@2@H@CryptoPP@@U?$DL_Keys_ECDSA@VEC2N@CryptoPP@@@2@V?$DL_Algorithm_ECDSA@VEC2N@CryptoPP@@@2@VDL_SignatureMessageEncodingMethod_DSA@2@VSHA1@2@@2@V?$DL_PublicKey_EC@VEC2N@CryptoPP@@@2@@CryptoPP@@MAEAAV?$DL_PublicKey@UEC2NPoint@CryptoPP@@@2@XZ 4291b958 f i dll.obj
 0001:0001a958       ?GetKeyInterface@?$DL_ObjectImplBase@V?$DL_SignerBase@VInteger@CryptoPP@@@CryptoPP@@U?$DL_SignatureSchemeOptions@UDSA@CryptoPP@@UDL_Keys_DSA@2@V?$DL_Algorithm_GDSA@VInteger@CryptoPP@@@2@VDL_SignatureMessageEncodingMethod_DSA@2@VSHA1@2@@2@V?$DL_PrivateKey_WithSignaturePairwiseConsistencyTest@V?$DL_PrivateKey_GFP@VDL_GroupParameters_DSA@CryptoPP@@@CryptoPP@@UDSA@2@@2@@CryptoPP@@MBEABV?$DL_PrivateKey@VInteger@CryptoPP@@@2@XZ 4291b958 f i dll.obj
 0001:0001a958       ?AccessKeyInterface@?$DL_ObjectImplBase@V?$DL_SignerBase@UECPPoint@CryptoPP@@@CryptoPP@@U?$DL_SignatureSchemeOptions@V?$DL_SS@U?$DL_Keys_ECDSA@VECP@CryptoPP@@@CryptoPP@@V?$DL_Algorithm_ECDSA@VECP@CryptoPP@@@2@VDL_SignatureMessageEncodingMethod_DSA@2@VSHA1@2@H@CryptoPP@@U?$DL_Keys_ECDSA@VECP@CryptoPP@@@2@V?$DL_Algorithm_ECDSA@VECP@CryptoPP@@@2@VDL_SignatureMessageEncodingMethod_DSA@2@VSHA1@2@@2@V?$DL_PrivateKey_WithSignaturePairwiseConsistencyTest@V?$DL_PrivateKey_EC@VECP@CryptoPP@@@CryptoPP@@U?$ECDSA@VECP@CryptoPP@@VSHA256@2@@2@@2@@CryptoPP@@MAEAAV?$DL_PrivateKey@UECPPoint@CryptoPP@@@2@XZ 4291b958 f i dll.obj
 0001:0001a958       ?AccessKeyInterface@?$DL_ObjectImplBase@V?$DL_VerifierBase@UECPPoint@CryptoPP@@@CryptoPP@@U?$DL_SignatureSchemeOptions@V?$DL_SS@U?$DL_Keys_ECDSA@VECP@CryptoPP@@@CryptoPP@@V?$DL_Algorithm_ECDSA@VECP@CryptoPP@@@2@VDL_SignatureMessageEncodingMethod_DSA@2@VSHA256@2@H@CryptoPP@@U?$DL_Keys_ECDSA@VECP@CryptoPP@@@2@V?$DL_Algorithm_ECDSA@VECP@CryptoPP@@@2@VDL_SignatureMessageEncodingMethod_DSA@2@VSHA256@2@@2@V?$DL_PublicKey_EC@VECP@CryptoPP@@@2@@CryptoPP@@MAEAAV?$DL_PublicKey@UECPPoint@CryptoPP@@@2@XZ 4291b958 f i dll.obj
 0001:0001a95c       ?BERDecodeElement@?$EcPrecomputation@VEC2N@CryptoPP@@@CryptoPP@@UBE?AUEC2NPoint@2@AAVBufferedTransformation@2@@Z 4291b95c f i dll.obj
 0001:0001a979       ?DEREncodeElement@?$EcPrecomputation@VEC2N@CryptoPP@@@CryptoPP@@UBEXAAVBufferedTransformation@2@ABUEC2NPoint@2@@Z 4291b979 f i dll.obj
 0001:0001a98e       ??1?$DL_GroupParametersImpl@V?$EcPrecomputation@VEC2N@CryptoPP@@@CryptoPP@@V?$DL_FixedBasePrecomputationImpl@UEC2NPoint@CryptoPP@@@2@V?$DL_GroupParameters@UEC2NPoint@CryptoPP@@@2@@CryptoPP@@UAE@XZ 4291b98e f i dll.obj
 0001:0001a9ca       ??4?$DL_GroupParametersImpl@V?$EcPrecomputation@VEC2N@CryptoPP@@@CryptoPP@@V?$DL_FixedBasePrecomputationImpl@UEC2NPoint@CryptoPP@@@2@V?$DL_GroupParameters@UEC2NPoint@CryptoPP@@@2@@CryptoPP@@QAEAAV01@ABV01@@Z 4291b9ca f i dll.obj
 0001:0001a9f7       ??0?$DL_GroupParameters@UEC2NPoint@CryptoPP@@@CryptoPP@@QAE@ABV01@@Z 4291b9f7 f i dll.obj
 0001:0001aa2a       ??1?$EcPrecomputation@VEC2N@CryptoPP@@@CryptoPP@@QAE@XZ 4291ba2a f i dll.obj
 0001:0001aa32       ??0?$DL_PublicKeyImpl@V?$DL_GroupParameters_EC@VECP@CryptoPP@@@CryptoPP@@@CryptoPP@@QAE@XZ 4291ba32 f i dll.obj
 0001:0001aaa6       ??0?$DL_PublicKeyImpl@V?$DL_GroupParameters_EC@VECP@CryptoPP@@@CryptoPP@@@CryptoPP@@QAE@ABV01@@Z 4291baa6 f i dll.obj
 0001:0001ab35       ??4?$DL_PublicKeyImpl@V?$DL_GroupParameters_EC@VECP@CryptoPP@@@CryptoPP@@@CryptoPP@@QAEAAV01@ABV01@@Z 4291bb35 f i dll.obj
 0001:0001ab6a       ??1?$DL_PublicKeyImpl@V?$DL_GroupParameters_EC@VECP@CryptoPP@@@CryptoPP@@@CryptoPP@@UAE@XZ 4291bb6a f i dll.obj
 0001:0001abb5       ??_D?$DL_PublicKeyImpl@V?$DL_GroupParameters_EC@VECP@CryptoPP@@@CryptoPP@@@CryptoPP@@QAEXXZ 4291bbb5 f i dll.obj
 0001:0001abcd       ??_E?$DL_PublicKeyImpl@V?$DL_GroupParameters_EC@VECP@CryptoPP@@@CryptoPP@@@CryptoPP@@UAEPAXI@Z 4291bbcd f i dll.obj
 0001:0001ac1c       ??0?$DL_KeyImpl@VX509PublicKey@CryptoPP@@V?$DL_GroupParameters_EC@VECP@CryptoPP@@@2@VOID@2@@CryptoPP@@QAE@XZ 4291bc1c f i dll.obj
 0001:0001ac80       ??1?$DL_KeyImpl@VX509PublicKey@CryptoPP@@V?$DL_GroupParameters_EC@VECP@CryptoPP@@@2@VOID@2@@CryptoPP@@UAE@XZ 4291bc80 f i dll.obj
 0001:0001aca9       ??0?$DL_KeyImpl@VX509PublicKey@CryptoPP@@V?$DL_GroupParameters_EC@VECP@CryptoPP@@@2@VOID@2@@CryptoPP@@QAE@ABV01@@Z 4291bca9 f i dll.obj
 0001:0001ad1a       ??4?$DL_KeyImpl@VX509PublicKey@CryptoPP@@V?$DL_GroupParameters_EC@VECP@CryptoPP@@@2@VOID@2@@CryptoPP@@QAEAAV01@ABV01@@Z 4291bd1a f i dll.obj
 0001:0001ad3b       ??_E?$DL_KeyImpl@VX509PublicKey@CryptoPP@@V?$DL_GroupParameters_EC@VECP@CryptoPP@@@2@VOID@2@@CryptoPP@@UAEPAXI@Z 4291bd3b f i dll.obj
 0001:0001ad3b       ??_G?$DL_KeyImpl@VX509PublicKey@CryptoPP@@V?$DL_GroupParameters_EC@VECP@CryptoPP@@@2@VOID@2@@CryptoPP@@UAEPAXI@Z 4291bd3b f i dll.obj
 0001:0001ad63       ??0?$DL_PublicKeyImpl@V?$DL_GroupParameters_EC@VEC2N@CryptoPP@@@CryptoPP@@@CryptoPP@@QAE@XZ 4291bd63 f i dll.obj
 0001:0001add7       ??0?$DL_PublicKeyImpl@V?$DL_GroupParameters_EC@VEC2N@CryptoPP@@@CryptoPP@@@CryptoPP@@QAE@ABV01@@Z 4291bdd7 f i dll.obj
 0001:0001ae66       ??4?$DL_PublicKeyImpl@V?$DL_GroupParameters_EC@VEC2N@CryptoPP@@@CryptoPP@@@CryptoPP@@QAEAAV01@ABV01@@Z 4291be66 f i dll.obj
 0001:0001ae9b       ??1?$DL_PublicKeyImpl@V?$DL_GroupParameters_EC@VEC2N@CryptoPP@@@CryptoPP@@@CryptoPP@@UAE@XZ 4291be9b f i dll.obj
 0001:0001aee6       ??_D?$DL_PublicKeyImpl@V?$DL_GroupParameters_EC@VEC2N@CryptoPP@@@CryptoPP@@@CryptoPP@@QAEXXZ 4291bee6 f i dll.obj
 0001:0001aefe       ??_E?$DL_PublicKeyImpl@V?$DL_GroupParameters_EC@VEC2N@CryptoPP@@@CryptoPP@@@CryptoPP@@UAEPAXI@Z 4291befe f i dll.obj
 0001:0001af4d       ??0?$DL_KeyImpl@VX509PublicKey@CryptoPP@@V?$DL_GroupParameters_EC@VEC2N@CryptoPP@@@2@VOID@2@@CryptoPP@@QAE@XZ 4291bf4d f i dll.obj
 0001:0001afb1       ??1?$DL_KeyImpl@VX509PublicKey@CryptoPP@@V?$DL_GroupParameters_EC@VEC2N@CryptoPP@@@2@VOID@2@@CryptoPP@@UAE@XZ 4291bfb1 f i dll.obj
 0001:0001afda       ??0?$DL_KeyImpl@VX509PublicKey@CryptoPP@@V?$DL_GroupParameters_EC@VEC2N@CryptoPP@@@2@VOID@2@@CryptoPP@@QAE@ABV01@@Z 4291bfda f i dll.obj
 0001:0001b04b       ??4?$DL_KeyImpl@VX509PublicKey@CryptoPP@@V?$DL_GroupParameters_EC@VEC2N@CryptoPP@@@2@VOID@2@@CryptoPP@@QAEAAV01@ABV01@@Z 4291c04b f i dll.obj
 0001:0001b06c       ??_G?$DL_KeyImpl@VX509PublicKey@CryptoPP@@V?$DL_GroupParameters_EC@VEC2N@CryptoPP@@@2@VOID@2@@CryptoPP@@UAEPAXI@Z 4291c06c f i dll.obj
 0001:0001b06c       ??_E?$DL_KeyImpl@VX509PublicKey@CryptoPP@@V?$DL_GroupParameters_EC@VEC2N@CryptoPP@@@2@VOID@2@@CryptoPP@@UAEPAXI@Z 4291c06c f i dll.obj
 0001:0001b094       ??0?$DL_PublicKey_EC@VECP@CryptoPP@@@CryptoPP@@QAE@XZ 4291c094 f i dll.obj
 0001:0001b0f5       ??0?$DL_PublicKey_EC@VECP@CryptoPP@@@CryptoPP@@QAE@ABV01@@Z 4291c0f5 f i dll.obj
 0001:0001b159       ??4?$DL_PublicKey_EC@VECP@CryptoPP@@@CryptoPP@@QAEAAV01@ABV01@@Z 4291c159 f i dll.obj
 0001:0001b16b       ??1?$DL_PublicKey_EC@VECP@CryptoPP@@@CryptoPP@@UAE@XZ 4291c16b f i dll.obj
 0001:0001b170       ??_D?$DL_PublicKey_EC@VECP@CryptoPP@@@CryptoPP@@QAEXXZ 4291c170 f i dll.obj
 0001:0001b188       ??_E?$DL_PublicKey_EC@VECP@CryptoPP@@@CryptoPP@@UAEPAXI@Z 4291c188 f i dll.obj
 0001:0001b1d7       ??0?$DL_PublicKey_EC@VEC2N@CryptoPP@@@CryptoPP@@QAE@XZ 4291c1d7 f i dll.obj
 0001:0001b238       ??0?$DL_PublicKey_EC@VEC2N@CryptoPP@@@CryptoPP@@QAE@ABV01@@Z 4291c238 f i dll.obj
 0001:0001b29c       ??4?$DL_PublicKey_EC@VEC2N@CryptoPP@@@CryptoPP@@QAEAAV01@ABV01@@Z 4291c29c f i dll.obj
 0001:0001b2ae       ??1?$DL_PublicKey_EC@VEC2N@CryptoPP@@@CryptoPP@@UAE@XZ 4291c2ae f i dll.obj
 0001:0001b2b3       ??_D?$DL_PublicKey_EC@VEC2N@CryptoPP@@@CryptoPP@@QAEXXZ 4291c2b3 f i dll.obj
 0001:0001b2cb       ??_E?$DL_PublicKey_EC@VEC2N@CryptoPP@@@CryptoPP@@UAEPAXI@Z 4291c2cb f i dll.obj
 0001:0001b31a       ??0?$DL_PrivateKeyImpl@V?$DL_GroupParameters_EC@VECP@CryptoPP@@@CryptoPP@@@CryptoPP@@QAE@XZ 4291c31a f i dll.obj
 0001:0001b395       ??0?$DL_PrivateKeyImpl@V?$DL_GroupParameters_EC@VECP@CryptoPP@@@CryptoPP@@@CryptoPP@@QAE@ABV01@@Z 4291c395 f i dll.obj
 0001:0001b42b       ??4?$DL_PrivateKeyImpl@V?$DL_GroupParameters_EC@VECP@CryptoPP@@@CryptoPP@@@CryptoPP@@QAEAAV01@ABV01@@Z 4291c42b f i dll.obj
 0001:0001b460       ??1?$DL_PrivateKeyImpl@V?$DL_GroupParameters_EC@VECP@CryptoPP@@@CryptoPP@@@CryptoPP@@UAE@XZ 4291c460 f i dll.obj
 0001:0001b4c7       ??_D?$DL_PrivateKeyImpl@V?$DL_GroupParameters_EC@VECP@CryptoPP@@@CryptoPP@@@CryptoPP@@QAEXXZ 4291c4c7 f i dll.obj
 0001:0001b4df       ??_E?$DL_PrivateKeyImpl@V?$DL_GroupParameters_EC@VECP@CryptoPP@@@CryptoPP@@@CryptoPP@@UAEPAXI@Z 4291c4df f i dll.obj
 0001:0001b52e       ??0?$DL_KeyImpl@VPKCS8PrivateKey@CryptoPP@@V?$DL_GroupParameters_EC@VECP@CryptoPP@@@2@VOID@2@@CryptoPP@@QAE@XZ 4291c52e f i dll.obj
 0001:0001b59c       ??1?$DL_KeyImpl@VPKCS8PrivateKey@CryptoPP@@V?$DL_GroupParameters_EC@VECP@CryptoPP@@@2@VOID@2@@CryptoPP@@UAE@XZ 4291c59c f i dll.obj
 0001:0001b5d8       ??0?$DL_KeyImpl@VPKCS8PrivateKey@CryptoPP@@V?$DL_GroupParameters_EC@VECP@CryptoPP@@@2@VOID@2@@CryptoPP@@QAE@ABV01@@Z 4291c5d8 f i dll.obj
 0001:0001b650       ??4?$DL_KeyImpl@VPKCS8PrivateKey@CryptoPP@@V?$DL_GroupParameters_EC@VECP@CryptoPP@@@2@VOID@2@@CryptoPP@@QAEAAV01@ABV01@@Z 4291c650 f i dll.obj
 0001:0001b671       ??_G?$DL_KeyImpl@VPKCS8PrivateKey@CryptoPP@@V?$DL_GroupParameters_EC@VECP@CryptoPP@@@2@VOID@2@@CryptoPP@@UAEPAXI@Z 4291c671 f i dll.obj
 0001:0001b671       ??_E?$DL_KeyImpl@VPKCS8PrivateKey@CryptoPP@@V?$DL_GroupParameters_EC@VECP@CryptoPP@@@2@VOID@2@@CryptoPP@@UAEPAXI@Z 4291c671 f i dll.obj
 0001:0001b699       ??0?$DL_PrivateKeyImpl@V?$DL_GroupParameters_EC@VEC2N@CryptoPP@@@CryptoPP@@@CryptoPP@@QAE@XZ 4291c699 f i dll.obj
 0001:0001b714       ??0?$DL_PrivateKeyImpl@V?$DL_GroupParameters_EC@VEC2N@CryptoPP@@@CryptoPP@@@CryptoPP@@QAE@ABV01@@Z 4291c714 f i dll.obj
 0001:0001b7aa       ??4?$DL_PrivateKeyImpl@V?$DL_GroupParameters_EC@VEC2N@CryptoPP@@@CryptoPP@@@CryptoPP@@QAEAAV01@ABV01@@Z 4291c7aa f i dll.obj
 0001:0001b7df       ??1?$DL_PrivateKeyImpl@V?$DL_GroupParameters_EC@VEC2N@CryptoPP@@@CryptoPP@@@CryptoPP@@UAE@XZ 4291c7df f i dll.obj
 0001:0001b846       ??_D?$DL_PrivateKeyImpl@V?$DL_GroupParameters_EC@VEC2N@CryptoPP@@@CryptoPP@@@CryptoPP@@QAEXXZ 4291c846 f i dll.obj
 0001:0001b85e       ??_E?$DL_PrivateKeyImpl@V?$DL_GroupParameters_EC@VEC2N@CryptoPP@@@CryptoPP@@@CryptoPP@@UAEPAXI@Z 4291c85e f i dll.obj
 0001:0001b8ad       ??0?$DL_KeyImpl@VPKCS8PrivateKey@CryptoPP@@V?$DL_GroupParameters_EC@VEC2N@CryptoPP@@@2@VOID@2@@CryptoPP@@QAE@XZ 4291c8ad f i dll.obj
 0001:0001b91b       ??1?$DL_KeyImpl@VPKCS8PrivateKey@CryptoPP@@V?$DL_GroupParameters_EC@VEC2N@CryptoPP@@@2@VOID@2@@CryptoPP@@UAE@XZ 4291c91b f i dll.obj
 0001:0001b957       ??0?$DL_KeyImpl@VPKCS8PrivateKey@CryptoPP@@V?$DL_GroupParameters_EC@VEC2N@CryptoPP@@@2@VOID@2@@CryptoPP@@QAE@ABV01@@Z 4291c957 f i dll.obj
 0001:0001b9cf       ??4?$DL_KeyImpl@VPKCS8PrivateKey@CryptoPP@@V?$DL_GroupParameters_EC@VEC2N@CryptoPP@@@2@VOID@2@@CryptoPP@@QAEAAV01@ABV01@@Z 4291c9cf f i dll.obj
 0001:0001b9f0       ??_G?$DL_KeyImpl@VPKCS8PrivateKey@CryptoPP@@V?$DL_GroupParameters_EC@VEC2N@CryptoPP@@@2@VOID@2@@CryptoPP@@UAEPAXI@Z 4291c9f0 f i dll.obj
 0001:0001b9f0       ??_E?$DL_KeyImpl@VPKCS8PrivateKey@CryptoPP@@V?$DL_GroupParameters_EC@VEC2N@CryptoPP@@@2@VOID@2@@CryptoPP@@UAEPAXI@Z 4291c9f0 f i dll.obj
 0001:0001ba18       ??0?$DL_PrivateKey_EC@VECP@CryptoPP@@@CryptoPP@@QAE@XZ 4291ca18 f i dll.obj
 0001:0001ba80       ??0?$DL_PrivateKey_EC@VECP@CryptoPP@@@CryptoPP@@QAE@ABV01@@Z 4291ca80 f i dll.obj
 0001:0001baeb       ??4?$DL_PrivateKey_EC@VECP@CryptoPP@@@CryptoPP@@QAEAAV01@ABV01@@Z 4291caeb f i dll.obj
 0001:0001bafd       ??1?$DL_PrivateKey_WithSignaturePairwiseConsistencyTest@V?$DL_PrivateKey_EC@VECP@CryptoPP@@@CryptoPP@@U?$ECDSA@VECP@CryptoPP@@VSHA256@2@@2@@CryptoPP@@UAE@XZ 4291cafd f i dll.obj
 0001:0001bafd       ??1?$DL_PrivateKey_EC@VECP@CryptoPP@@@CryptoPP@@UAE@XZ 4291cafd f i dll.obj
 0001:0001bb02       ??_D?$DL_PrivateKey_WithSignaturePairwiseConsistencyTest@V?$DL_PrivateKey_EC@VECP@CryptoPP@@@CryptoPP@@U?$ECDSA@VECP@CryptoPP@@VSHA256@2@@2@@CryptoPP@@QAEXXZ 4291cb02 f i dll.obj
 0001:0001bb02       ??_D?$DL_PrivateKey_EC@VECP@CryptoPP@@@CryptoPP@@QAEXXZ 4291cb02 f i dll.obj
 0001:0001bb1a       ??_E?$DL_PrivateKey_EC@VECP@CryptoPP@@@CryptoPP@@UAEPAXI@Z 4291cb1a f i dll.obj
 0001:0001bb69       ??0?$DL_PrivateKey_EC@VEC2N@CryptoPP@@@CryptoPP@@QAE@XZ 4291cb69 f i dll.obj
 0001:0001bbd1       ??0?$DL_PrivateKey_EC@VEC2N@CryptoPP@@@CryptoPP@@QAE@ABV01@@Z 4291cbd1 f i dll.obj
 0001:0001bc3c       ??4?$DL_PrivateKey_EC@VEC2N@CryptoPP@@@CryptoPP@@QAEAAV01@ABV01@@Z 4291cc3c f i dll.obj
 0001:0001bc4e       ??1?$DL_PrivateKey_WithSignaturePairwiseConsistencyTest@V?$DL_PrivateKey_EC@VEC2N@CryptoPP@@@CryptoPP@@U?$ECDSA@VEC2N@CryptoPP@@VSHA256@2@@2@@CryptoPP@@UAE@XZ 4291cc4e f i dll.obj
 0001:0001bc4e       ??1?$DL_PrivateKey_EC@VEC2N@CryptoPP@@@CryptoPP@@UAE@XZ 4291cc4e f i dll.obj
 0001:0001bc53       ??_D?$DL_PrivateKey_WithSignaturePairwiseConsistencyTest@V?$DL_PrivateKey_EC@VEC2N@CryptoPP@@@CryptoPP@@U?$ECDSA@VEC2N@CryptoPP@@VSHA256@2@@2@@CryptoPP@@QAEXXZ 4291cc53 f i dll.obj
 0001:0001bc53       ??_D?$DL_PrivateKey_EC@VEC2N@CryptoPP@@@CryptoPP@@QAEXXZ 4291cc53 f i dll.obj
 0001:0001bc6b       ??_E?$DL_PrivateKey_EC@VEC2N@CryptoPP@@@CryptoPP@@UAEPAXI@Z 4291cc6b f i dll.obj
 0001:0001bcba       ??0?$DL_Algorithm_GDSA@UECPPoint@CryptoPP@@@CryptoPP@@QAE@XZ 4291ccba f i dll.obj
 0001:0001bcc3       ??0?$DL_Algorithm_GDSA@UECPPoint@CryptoPP@@@CryptoPP@@QAE@ABV01@@Z 4291ccc3 f i dll.obj
 0001:0001bcce       ??0?$DL_Algorithm_GDSA@UEC2NPoint@CryptoPP@@@CryptoPP@@QAE@XZ 4291ccce f i dll.obj
 0001:0001bcd7       ??0?$DL_Algorithm_GDSA@UEC2NPoint@CryptoPP@@@CryptoPP@@QAE@ABV01@@Z 4291ccd7 f i dll.obj
 0001:0001bce2       ??0?$DL_PrivateKey_WithSignaturePairwiseConsistencyTest@V?$DL_PrivateKey_EC@VECP@CryptoPP@@@CryptoPP@@U?$ECDSA@VECP@CryptoPP@@VSHA256@2@@2@@CryptoPP@@QAE@XZ 4291cce2 f i dll.obj
 0001:0001bd4a       ??0?$DL_PrivateKey_WithSignaturePairwiseConsistencyTest@V?$DL_PrivateKey_EC@VECP@CryptoPP@@@CryptoPP@@U?$ECDSA@VECP@CryptoPP@@VSHA256@2@@2@@CryptoPP@@QAE@ABV01@@Z 4291cd4a f i dll.obj
 0001:0001bdb5       ??4?$DL_PrivateKey_WithSignaturePairwiseConsistencyTest@V?$DL_PrivateKey_EC@VECP@CryptoPP@@@CryptoPP@@U?$ECDSA@VECP@CryptoPP@@VSHA256@2@@2@@CryptoPP@@QAEAAV01@ABV01@@Z 4291cdb5 f i dll.obj
 0001:0001bdc7       ??_E?$DL_PrivateKey_WithSignaturePairwiseConsistencyTest@V?$DL_PrivateKey_EC@VECP@CryptoPP@@@CryptoPP@@U?$ECDSA@VECP@CryptoPP@@VSHA256@2@@2@@CryptoPP@@UAEPAXI@Z 4291cdc7 f i dll.obj
 0001:0001be16       ??0?$DL_PrivateKey_WithSignaturePairwiseConsistencyTest@V?$DL_PrivateKey_EC@VEC2N@CryptoPP@@@CryptoPP@@U?$ECDSA@VEC2N@CryptoPP@@VSHA256@2@@2@@CryptoPP@@QAE@XZ 4291ce16 f i dll.obj
 0001:0001be7e       ??0?$DL_PrivateKey_WithSignaturePairwiseConsistencyTest@V?$DL_PrivateKey_EC@VEC2N@CryptoPP@@@CryptoPP@@U?$ECDSA@VEC2N@CryptoPP@@VSHA256@2@@2@@CryptoPP@@QAE@ABV01@@Z 4291ce7e f i dll.obj
 0001:0001bee9       ??4?$DL_PrivateKey_WithSignaturePairwiseConsistencyTest@V?$DL_PrivateKey_EC@VEC2N@CryptoPP@@@CryptoPP@@U?$ECDSA@VEC2N@CryptoPP@@VSHA256@2@@2@@CryptoPP@@QAEAAV01@ABV01@@Z 4291cee9 f i dll.obj
 0001:0001befb       ??_E?$DL_PrivateKey_WithSignaturePairwiseConsistencyTest@V?$DL_PrivateKey_EC@VEC2N@CryptoPP@@@CryptoPP@@U?$ECDSA@VEC2N@CryptoPP@@VSHA256@2@@2@@CryptoPP@@UAEPAXI@Z 4291cefb f i dll.obj
 0001:0001bf8a       ??0FileStore@CryptoPP@@QAE@XZ 4291cf8a f i dll.obj
 0001:0001bfda       ??0FileStore@CryptoPP@@QAE@AAV?$basic_istream@DU?$char_traits@D@std@@@std@@@Z 4291cfda f i dll.obj
 0001:0001c063       ??0FileStore@CryptoPP@@QAE@PBD@Z 4291d063 f i dll.obj
 0001:0001c0e6       ?GetStream@FileStore@CryptoPP@@QAEPAV?$basic_istream@DU?$char_traits@D@std@@@std@@XZ 4291d0e6 f i dll.obj
 0001:0001c0e6       ?KeystreamBufferBegin@?$AdditiveCipherTemplate@V?$AbstractPolicyHolder@UAdditiveCipherAbstractPolicy@CryptoPP@@VOFB_ModePolicy@2@@CryptoPP@@@CryptoPP@@IAEPAEXZ 4291d0e6 f i dll.obj
 0001:0001c0ea       ??1FileStore@CryptoPP@@UAE@XZ 4291d0ea f i dll.obj
 0001:0001c12b       ??_EFileStore@CryptoPP@@UAEPAXI@Z 4291d12b f i dll.obj
 0001:0001c178       ??0FileSource@CryptoPP@@QAE@PAVBufferedTransformation@1@@Z 4291d178 f i dll.obj
 0001:0001c197       ??0FileSource@CryptoPP@@QAE@AAV?$basic_istream@DU?$char_traits@D@std@@@std@@_NPAVBufferedTransformation@1@@Z 4291d197 f i dll.obj
 0001:0001c21b       ??0FileSource@CryptoPP@@QAE@PBD_NPAVBufferedTransformation@1@1@Z 4291d21b f i dll.obj
 0001:0001c2ad       ?GetStream@FileSource@CryptoPP@@QAEPAV?$basic_istream@DU?$char_traits@D@std@@@std@@XZ 4291d2ad f i dll.obj
 0001:0001c2b1       ??1FileSource@CryptoPP@@UAE@XZ 4291d2b1 f i dll.obj
 0001:0001c2ea       ??_FFileSource@CryptoPP@@QAEXXZ 4291d2ea f i dll.obj
 0001:0001c2f2       ??_EFileSource@CryptoPP@@UAEPAXI@Z 4291d2f2 f i dll.obj
 0001:0001c33f       ??1?$SourceTemplate@VFileStore@CryptoPP@@@CryptoPP@@UAE@XZ 4291d33f f i dll.obj
 0001:0001c378       ??0FileSink@CryptoPP@@QAE@XZ 4291d378 f i dll.obj
 0001:0001c39b       ??0FileSink@CryptoPP@@QAE@AAV?$basic_ostream@DU?$char_traits@D@std@@@std@@@Z 4291d39b f i dll.obj
 0001:0001c414       ??0FileSink@CryptoPP@@QAE@PBD_N@Z 4291d414 f i dll.obj
 0001:0001c49b       ?BlockSize@CipherModeBase@CryptoPP@@IBEIXZ 4291d49b f i dll.obj
 0001:0001c49b       ?GetBehavior@Redirector@CryptoPP@@QAE?AW4Behavior@12@XZ 4291d49b f i dll.obj
 0001:0001c49b       ?IVSize@CipherModeBase@CryptoPP@@UBEIXZ 4291d49b f i dll.obj
 0001:0001c49b       ?AccessIpad@HMAC_Base@CryptoPP@@IAEPAEXZ 4291d49b f i dll.obj
 0001:0001c49b       ?GetBytesPerIteration@CFB_ModePolicy@CryptoPP@@MBEIXZ 4291d49b f i dll.obj
 0001:0001c49b       ?GetStream@FileSink@CryptoPP@@QAEPAV?$basic_ostream@DU?$char_traits@D@std@@@std@@XZ 4291d49b f i dll.obj
 0001:0001c49f       ??1FileSink@CryptoPP@@UAE@XZ 4291d49f f i dll.obj
 0001:0001c4c5       ??_EFileSink@CryptoPP@@UAEPAXI@Z 4291d4c5 f i dll.obj
 0001:0001c512       ?AlgorithmName@GCM_Base@CryptoPP@@UBE?AV?$basic_string@DU?$char_traits@D@std@@V?$allocator@D@2@@std@@XZ 4291d512 f i dll.obj
 0001:0001c5ad       ?MinKeyLength@CCM_Base@CryptoPP@@UBEIXZ 4291d5ad f i dll.obj
 0001:0001c5ad       ?MinKeyLength@GCM_Base@CryptoPP@@UBEIXZ 4291d5ad f i dll.obj
 0001:0001c5b9       ?DefaultKeyLength@GCM_Base@CryptoPP@@UBEIXZ 4291d5b9 f i dll.obj
 0001:0001c5b9       ?DefaultKeyLength@CCM_Base@CryptoPP@@UBEIXZ 4291d5b9 f i dll.obj
 0001:0001c5c5       ?IVSize@GCM_Base@CryptoPP@@UBEIXZ 4291d5c5 f i dll.obj
 0001:0001c5c9       ?underflow@?$basic_streambuf@DU?$char_traits@D@std@@@std@@MAEHXZ 4291d5c9 f i dll.obj
 0001:0001c5c9       ?MaxIVLength@GCM_Base@CryptoPP@@UBEIXZ 4291d5c9 f i dll.obj
 0001:0001c5cd       ?MaxHeaderLength@GCM_Base@CryptoPP@@UBE_KXZ 4291d5cd f i dll.obj
 0001:0001c5d6       ?MaxMessageLength@GCM_Base@CryptoPP@@UBE_KXZ 4291d5d6 f i dll.obj
 0001:0001c5dd       ?AccessSymmetricCipher@GCM_Base@CryptoPP@@MAEAAVSymmetricCipher@2@XZ 4291d5dd f i dll.obj
 0001:0001c5e1       ?GetBlockCipher@GCM_Base@CryptoPP@@IBEABVBlockCipher@2@XZ 4291d5e1 f i dll.obj
 0001:0001c5e1       ?GetBlockCipher@CCM_Base@CryptoPP@@IBEABVBlockCipher@2@XZ 4291d5e1 f i dll.obj
 0001:0001c5e6       ?CBC_Buffer@CCM_Base@CryptoPP@@IAEPAEXZ 4291d5e6 f i dll.obj
 0001:0001c5e6       ?HashBuffer@GCM_Base@CryptoPP@@IAEPAEXZ 4291d5e6 f i dll.obj
 0001:0001c5ed       ?HashKey@GCM_Base@CryptoPP@@IAEPAEXZ 4291d5ed f i dll.obj
 0001:0001c5f4       ?MulTable@GCM_Base@CryptoPP@@IAEPAEXZ 4291d5f4 f i dll.obj
 0001:0001c5fb       ??0GCTR@GCM_Base@CryptoPP@@QAE@XZ 4291d5fb f i dll.obj
 0001:0001c622       ??0GCTR@GCM_Base@CryptoPP@@QAE@ABV012@@Z 4291d622 f i dll.obj
 0001:0001c64f       ??4GCTR@GCM_Base@CryptoPP@@QAEAAV012@ABV012@@Z 4291d64f f i dll.obj
 0001:0001c64f       ??4?$CipherModeFinalTemplate_ExternalCipher@V?$ConcretePolicyHolder@VEmpty@CryptoPP@@V?$AdditiveCipherTemplate@V?$AbstractPolicyHolder@UAdditiveCipherAbstractPolicy@CryptoPP@@VCTR_ModePolicy@2@@CryptoPP@@@2@UAdditiveCipherAbstractPolicy@2@@CryptoPP@@@CryptoPP@@QAEAAV01@ABV01@@Z 4291d64f f i dll.obj
 0001:0001c674       ??0GCM_Base@CryptoPP@@QAE@XZ 4291d674 f i dll.obj
 0001:0001c6a5       ??0GCM_Base@CryptoPP@@QAE@ABV01@@Z 4291d6a5 f i dll.obj
 0001:0001c6e2       ??4GCM_Base@CryptoPP@@QAEAAV01@ABV01@@Z 4291d6e2 f i dll.obj
 0001:0001c717       ??1GCM_Base@CryptoPP@@UAE@XZ 4291d717 f i dll.obj
 0001:0001c768       ??_EGCTR@GCM_Base@CryptoPP@@UAEPAXI@Z 4291d768 f i dll.obj
 0001:0001c7b5       ?IsolatedInitialize@MessageQueue@CryptoPP@@UAEXABVNameValuePairs@2@@Z 4291d7b5 f i dll.obj
 0001:0001c867       ?Put2@MessageQueue@CryptoPP@@UAEIPBEIH_N@Z 4291d867 f i dll.obj
 0001:0001c8e3       ?IsolatedMessageSeriesEnd@MessageQueue@CryptoPP@@UAE_N_N@Z 4291d8e3 f i dll.obj
 0001:0001c8fd       ?MaxRetrievable@MessageQueue@CryptoPP@@UBE_KXZ 4291d8fd f i dll.obj
 0001:0001c90d       ?AnyRetrievable@MessageQueue@CryptoPP@@UBE_NXZ 4291d90d f i dll.obj
 0001:0001c927       ?TotalBytesRetrievable@MessageQueue@CryptoPP@@UBE_KXZ 4291d927 f i dll.obj
 0001:0001c930       ?NumberOfMessages@MessageQueue@CryptoPP@@UBEIXZ 4291d930 f i dll.obj
 0001:0001c935       ?NumberOfMessagesInThisSeries@MessageQueue@CryptoPP@@UBEIXZ 4291d935 f i dll.obj
 0001:0001c942       ?NumberOfMessageSeries@MessageQueue@CryptoPP@@UBEIXZ 4291d942 f i dll.obj
 0001:0001c94a       ??0MessageQueue@CryptoPP@@QAE@ABV01@@Z 4291d94a f i dll.obj
 0001:0001c9ba       ??4MessageQueue@CryptoPP@@QAEAAV01@ABV01@@Z 4291d9ba f i dll.obj
 0001:0001ca0f       ??1MessageQueue@CryptoPP@@UAE@XZ 4291da0f f i dll.obj
 0001:0001ca72       ??_FMessageQueue@CryptoPP@@QAEXXZ 4291da72 f i dll.obj
 0001:0001ca7d       ??_EMessageQueue@CryptoPP@@UAEPAXI@Z 4291da7d f i dll.obj
 0001:0001cacd       ??0EqualityComparisonFilter@CryptoPP@@QAE@PAVBufferedTransformation@1@_NABV?$basic_string@DU?$char_traits@D@std@@V?$allocator@D@2@@std@@2@Z 4291dacd f i dll.obj
 0001:0001cb8a       ??1EqualityComparisonFilter@CryptoPP@@UAE@XZ 4291db8a f i dll.obj
 0001:0001cbed       ??_FEqualityComparisonFilter@CryptoPP@@QAEXXZ 4291dbed f i dll.obj
 0001:0001cc8e       ??_EEqualityComparisonFilter@CryptoPP@@UAEPAXI@Z 4291dc8e f i dll.obj
 0001:0001ccde       ??1?$Unflushable@V?$Multichannel@VFilter@CryptoPP@@@CryptoPP@@@CryptoPP@@UAE@XZ 4291dcde f i dll.obj
 0001:0001cd04       ?StaticAlgorithmName@PKCS1v15_SignatureMessageEncodingMethod@CryptoPP@@SAPBDXZ 4291dd04 f i dll.obj
 0001:0001cd0a       ?MinRepresentativeBitLength@PKCS1v15_SignatureMessageEncodingMethod@CryptoPP@@UBEIII@Z 4291dd0a f i dll.obj
 0001:0001cd1e       ??0PKCS1v15_SignatureMessageEncodingMethod@CryptoPP@@QAE@XZ 4291dd1e f i dll.obj
 0001:0001cd27       ??0PKCS1v15_SignatureMessageEncodingMethod@CryptoPP@@QAE@ABV01@@Z 4291dd27 f i dll.obj
 0001:0001cd32       ??_EPKCS1v15_SignatureMessageEncodingMethod@CryptoPP@@UAEPAXI@Z 4291dd32 f i dll.obj
 0001:0001cd7f       ?StaticAlgorithmName@EMSA2Pad@CryptoPP@@SAPBDXZ 4291dd7f f i dll.obj
 0001:0001cd85       ?MinRepresentativeBitLength@EMSA2Pad@CryptoPP@@UBEIII@Z 4291dd85 f i dll.obj
 0001:0001cd93       ??0EMSA2Pad@CryptoPP@@QAE@XZ 4291dd93 f i dll.obj
 0001:0001cd9c       ??0EMSA2Pad@CryptoPP@@QAE@ABV01@@Z 4291dd9c f i dll.obj
 0001:0001cda7       ??_EEMSA2Pad@CryptoPP@@UAEPAXI@Z 4291dda7 f i dll.obj
 0001:0001cdf4       ??0PSSR_MEM_Base@CryptoPP@@QAE@XZ 4291ddf4 f i dll.obj
 0001:0001cdfd       ??0PSSR_MEM_Base@CryptoPP@@QAE@ABV01@@Z 4291ddfd f i dll.obj
 0001:0001ce08       ??_EPSSR_MEM_Base@CryptoPP@@UAEPAXI@Z 4291de08 f i dll.obj
 0001:0001ce55       ?ParameterSupported@OAEP_Base@CryptoPP@@UBE_NPBD@Z 4291de55 f i dll.obj
 0001:0001ce6d       ??0OAEP_Base@CryptoPP@@QAE@XZ 4291de6d f i dll.obj
 0001:0001ce76       ??0OAEP_Base@CryptoPP@@QAE@ABV01@@Z 4291de76 f i dll.obj
 0001:0001ce81       ??_EOAEP_Base@CryptoPP@@UAEPAXI@Z 4291de81 f i dll.obj
 0001:0001cece       ??0?$OAEP@VSHA1@CryptoPP@@VP1363_MGF1@2@@CryptoPP@@QAE@XZ 4291dece f i dll.obj
 0001:0001ced7       ??0?$OAEP@VSHA1@CryptoPP@@VP1363_MGF1@2@@CryptoPP@@QAE@ABV01@@Z 4291ded7 f i dll.obj
 0001:0001cefc       ??4?$OAEP@VSHA1@CryptoPP@@VP1363_MGF1@2@@CryptoPP@@QAEAAV01@ABV01@@Z 4291defc f i dll.obj
 0001:0001cf15       ??_E?$OAEP@VSHA1@CryptoPP@@VP1363_MGF1@2@@CryptoPP@@UAEPAXI@Z 4291df15 f i dll.obj
 0001:0001cf62       ?Initialize@RSAFunction@CryptoPP@@QAEXABVInteger@2@0@Z 4291df62 f i dll.obj
 0001:0001cf81       ?ImageBound@RSAFunction@CryptoPP@@UBE?AVInteger@2@XZ 4291df81 f i dll.obj
 0001:0001cf81       ?PreimageBound@RSAFunction@CryptoPP@@UBE?AVInteger@2@XZ 4291df81 f i dll.obj
 0001:0001cf9c       ?SetModulus@RSAFunction@CryptoPP@@QAEXABVInteger@2@@Z 4291df9c f i dll.obj
 0001:0001cfab       ?SetPublicExponent@RSAFunction@CryptoPP@@QAEXABVInteger@2@@Z 4291dfab f i dll.obj
 0001:0001cfba       ??0RSAFunction@CryptoPP@@QAE@XZ 4291dfba f i dll.obj
 0001:0001d036       ??0RSAFunction@CryptoPP@@QAE@ABV01@@Z 4291e036 f i dll.obj
 0001:0001d0cb       ??4RSAFunction@CryptoPP@@QAEAAV01@ABV01@@Z 4291e0cb f i dll.obj
 0001:0001d106       ??1RSAFunction@CryptoPP@@UAE@XZ 4291e106 f i dll.obj
 0001:0001d14d       ??_DRSAFunction@CryptoPP@@QAEXXZ 4291e14d f i dll.obj
 0001:0001d15f       ??_ERSAFunction@CryptoPP@@UAEPAXI@Z 4291e15f f i dll.obj
 0001:0001d1b4       ?Initialize@InvertibleRSAFunction@CryptoPP@@QAEXABVInteger@2@0000000@Z 4291e1b4 f i dll.obj
 0001:0001d226       ?BERDecode@InvertibleRSAFunction@CryptoPP@@UAEXAAVBufferedTransformation@2@@Z 4291e226 f i dll.obj
 0001:0001d235       ?DEREncode@InvertibleRSAFunction@CryptoPP@@UBEXAAVBufferedTransformation@2@@Z 4291e235 f i dll.obj
 0001:0001d244       ?Load@InvertibleRSAFunction@CryptoPP@@UAEXAAVBufferedTransformation@2@@Z 4291e244 f i dll.obj
 0001:0001d256       ?Save@InvertibleRSAFunction@CryptoPP@@UBEXAAVBufferedTransformation@2@@Z 4291e256 f i dll.obj
 0001:0001d268       ?GetAlgorithmID@InvertibleRSAFunction@CryptoPP@@UBE?AVOID@2@XZ 4291e268 f i dll.obj
 0001:0001d27f       ?AccessPublicPrecomputation@?$DL_PublicKeyImpl@VDL_GroupParameters_DSA@CryptoPP@@@CryptoPP@@UAEAAV?$DL_FixedBasePrecomputation@VInteger@CryptoPP@@@2@XZ 4291e27f f i dll.obj
 0001:0001d27f       ?GetSubgroupOrder@?$DL_GroupParameters_EC@VECP@CryptoPP@@@CryptoPP@@UBEABVInteger@2@XZ 4291e27f f i dll.obj
 0001:0001d27f       ?GetPrime1@InvertibleRSAFunction@CryptoPP@@QBEABVInteger@2@XZ 4291e27f f i dll.obj
 0001:0001d27f       ?GetPublicPrecomputation@?$DL_PublicKeyImpl@VDL_GroupParameters_DSA@CryptoPP@@@CryptoPP@@UBEABV?$DL_FixedBasePrecomputation@VInteger@CryptoPP@@@2@XZ 4291e27f f i dll.obj
 0001:0001d286       ?GetPrime2@InvertibleRSAFunction@CryptoPP@@QBEABVInteger@2@XZ 4291e286 f i dll.obj
 0001:0001d28d       ?GetPrivateExponent@InvertibleRSAFunction@CryptoPP@@QBEABVInteger@2@XZ 4291e28d f i dll.obj
 0001:0001d291       ?GetModPrime1PrivateExponent@InvertibleRSAFunction@CryptoPP@@QBEABVInteger@2@XZ 4291e291 f i dll.obj
 0001:0001d298       ?GetModPrime2PrivateExponent@InvertibleRSAFunction@CryptoPP@@QBEABVInteger@2@XZ 4291e298 f i dll.obj
 0001:0001d29f       ?GetMultiplicativeInverseOfPrime2ModPrime1@InvertibleRSAFunction@CryptoPP@@QBEABVInteger@2@XZ 4291e29f f i dll.obj
 0001:0001d2a6       ?SetPrime1@InvertibleRSAFunction@CryptoPP@@QAEXABVInteger@2@@Z 4291e2a6 f i dll.obj
 0001:0001d2b8       ?SetPrime2@InvertibleRSAFunction@CryptoPP@@QAEXABVInteger@2@@Z 4291e2b8 f i dll.obj
 0001:0001d2ca       ?SetPrivateExponent@InvertibleRSAFunction@CryptoPP@@QAEXABVInteger@2@@Z 4291e2ca f i dll.obj
 0001:0001d2d9       ?SetModPrime1PrivateExponent@InvertibleRSAFunction@CryptoPP@@QAEXABVInteger@2@@Z 4291e2d9 f i dll.obj
 0001:0001d2eb       ?SetModPrime2PrivateExponent@InvertibleRSAFunction@CryptoPP@@QAEXABVInteger@2@@Z 4291e2eb f i dll.obj
 0001:0001d2fd       ?SetMultiplicativeInverseOfPrime2ModPrime1@InvertibleRSAFunction@CryptoPP@@QAEXABVInteger@2@@Z 4291e2fd f i dll.obj
 0001:0001d30f       ??0InvertibleRSAFunction@CryptoPP@@QAE@XZ 4291e30f f i dll.obj
 0001:0001d3f8       ??0InvertibleRSAFunction@CryptoPP@@QAE@ABV01@@Z 4291e3f8 f i dll.obj
 0001:0001d519       ??4InvertibleRSAFunction@CryptoPP@@QAEAAV01@ABV01@@Z 4291e519 f i dll.obj
 0001:0001d5a8       ??1InvertibleRSAFunction@CryptoPP@@UAE@XZ 4291e5a8 f i dll.obj
 0001:0001d66b       ??_DInvertibleRSAFunction@CryptoPP@@QAEXXZ 4291e66b f i dll.obj
 0001:0001d680       ??_EInvertibleRSAFunction@CryptoPP@@UAEPAXI@Z 4291e680 f i dll.obj
 0001:0001d6db       ?PreimageBound@RSAFunction_ISO@CryptoPP@@UBE?AVInteger@2@XZ 4291e6db f i dll.obj
 0001:0001d734       ??0RSAFunction_ISO@CryptoPP@@QAE@XZ 4291e734 f i dll.obj
 0001:0001d795       ??0RSAFunction_ISO@CryptoPP@@QAE@ABV01@@Z 4291e795 f i dll.obj
 0001:0001d7f9       ??4RSAFunction_ISO@CryptoPP@@QAEAAV01@ABV01@@Z 4291e7f9 f i dll.obj
 0001:0001d80b       ??1RSAFunction_ISO@CryptoPP@@UAE@XZ 4291e80b f i dll.obj
 0001:0001d810       ??_DRSAFunction_ISO@CryptoPP@@QAEXXZ 4291e810 f i dll.obj
 0001:0001d822       ??_ERSAFunction_ISO@CryptoPP@@UAEPAXI@Z 4291e822 f i dll.obj
 0001:0001d877       ?PreimageBound@InvertibleRSAFunction_ISO@CryptoPP@@UBE?AVInteger@2@XZ 4291e877 f i dll.obj
 0001:0001d8d0       ??0InvertibleRSAFunction_ISO@CryptoPP@@QAE@XZ 4291e8d0 f i dll.obj
 0001:0001d94d       ??0InvertibleRSAFunction_ISO@CryptoPP@@QAE@ABV01@@Z 4291e94d f i dll.obj
 0001:0001d9cd       ??4InvertibleRSAFunction_ISO@CryptoPP@@QAEAAV01@ABV01@@Z 4291e9cd f i dll.obj
 0001:0001d9df       ??1InvertibleRSAFunction_ISO@CryptoPP@@UAE@XZ 4291e9df f i dll.obj
 0001:0001d9e4       ??_DInvertibleRSAFunction_ISO@CryptoPP@@QAEXXZ 4291e9e4 f i dll.obj
 0001:0001d9f9       ??_EInvertibleRSAFunction_ISO@CryptoPP@@UAEPAXI@Z 4291e9f9 f i dll.obj
 0001:0001da54       ?StaticAlgorithmName@RSA@CryptoPP@@SAPBDXZ 4291ea54 f i dll.obj
 0001:0001da5a       ?StaticAlgorithmName@RSA_ISO@CryptoPP@@SAPBDXZ 4291ea5a f i dll.obj
 0001:0001da60       ?Initialize@RWFunction@CryptoPP@@QAEXABVInteger@2@@Z 4291ea60 f i dll.obj
 0001:0001da60       ?SetModulus@RWFunction@CryptoPP@@QAEXABVInteger@2@@Z 4291ea60 f i dll.obj
 0001:0001da6f       ?PreimageBound@RWFunction@CryptoPP@@UBE?AVInteger@2@XZ 4291ea6f f i dll.obj
 0001:0001dac8       ?ImageBound@RWFunction@CryptoPP@@UBE?AVInteger@2@XZ 4291eac8 f i dll.obj
 0001:0001dae3       ??0RWFunction@CryptoPP@@QAE@XZ 4291eae3 f i dll.obj
 0001:0001db41       ??0RWFunction@CryptoPP@@QAE@ABV01@@Z 4291eb41 f i dll.obj
 0001:0001dba6       ??4RWFunction@CryptoPP@@QAEAAV01@ABV01@@Z 4291eba6 f i dll.obj
 0001:0001dbbf       ??1RWFunction@CryptoPP@@UAE@XZ 4291ebbf f i dll.obj
 0001:0001dbf0       ??_DRWFunction@CryptoPP@@QAEXXZ 4291ebf0 f i dll.obj
 0001:0001dc02       ??_ERWFunction@CryptoPP@@UAEPAXI@Z 4291ec02 f i dll.obj
 0001:0001dc57       ?Initialize@InvertibleRWFunction@CryptoPP@@QAEXABVInteger@2@000@Z 4291ec57 f i dll.obj
 0001:0001dc8e       ?Initialize@InvertibleRWFunction@CryptoPP@@QAEXAAVRandomNumberGenerator@2@I@Z 4291ec8e f i dll.obj
 0001:0001dca1       ?GetPrime2@InvertibleRWFunction@CryptoPP@@QBEABVInteger@2@XZ 4291eca1 f i dll.obj
 0001:0001dca5       ?GetMultiplicativeInverseOfPrime2ModPrime1@InvertibleRWFunction@CryptoPP@@QBEABVInteger@2@XZ 4291eca5 f i dll.obj
 0001:0001dca9       ?SetPrime1@InvertibleRWFunction@CryptoPP@@QAEXABVInteger@2@@Z 4291eca9 f i dll.obj
 0001:0001dcb8       ?SetPrime2@InvertibleRWFunction@CryptoPP@@QAEXABVInteger@2@@Z 4291ecb8 f i dll.obj
 0001:0001dcc7       ?SetMultiplicativeInverseOfPrime2ModPrime1@InvertibleRWFunction@CryptoPP@@QAEXABVInteger@2@@Z 4291ecc7 f i dll.obj
 0001:0001dcd6       ??0InvertibleRWFunction@CryptoPP@@QAE@XZ 4291ecd6 f i dll.obj
 0001:0001dd6c       ??0InvertibleRWFunction@CryptoPP@@QAE@ABV01@@Z 4291ed6c f i dll.obj
 0001:0001de2c       ??4InvertibleRWFunction@CryptoPP@@QAEAAV01@ABV01@@Z 4291ee2c f i dll.obj
 0001:0001de79       ??1InvertibleRWFunction@CryptoPP@@UAE@XZ 4291ee79 f i dll.obj
 0001:0001deeb       ??_DInvertibleRWFunction@CryptoPP@@QAEXXZ 4291eeeb f i dll.obj
 0001:0001defd       ??_EInvertibleRWFunction@CryptoPP@@UAEPAXI@Z 4291eefd f i dll.obj
 0001:0001df52       ?StaticAlgorithmName@SKIPJACK_Info@CryptoPP@@SAPBDXZ 4291ef52 f i dll.obj
 0001:0001df58       ??0Base@SKIPJACK@CryptoPP@@QAE@XZ 4291ef58 f i dll.obj
 0001:0001df9a       ??0Base@SKIPJACK@CryptoPP@@QAE@ABV012@@Z 4291ef9a f i dll.obj
 0001:0001dff0       ??4Base@SKIPJACK@CryptoPP@@QAEAAV012@ABV012@@Z 4291eff0 f i dll.obj
 0001:0001e02a       ??1Base@SKIPJACK@CryptoPP@@UAE@XZ 4291f02a f i dll.obj
 0001:0001e050       ??0?$ClonableImpl@V?$BlockCipherFinal@$0A@VEnc@SKIPJACK@CryptoPP@@@CryptoPP@@VEnc@SKIPJACK@2@@CryptoPP@@QAE@XZ 4291f050 f i dll.obj
 0001:0001e050       ??0Enc@SKIPJACK@CryptoPP@@QAE@XZ 4291f050 f i dll.obj
 0001:0001e050       ??0?$ClonableImpl@V?$BlockCipherFinal@$00VDec@SKIPJACK@CryptoPP@@@CryptoPP@@VDec@SKIPJACK@2@@CryptoPP@@QAE@XZ 4291f050 f i dll.obj
 0001:0001e050       ??0Dec@SKIPJACK@CryptoPP@@QAE@XZ 4291f050 f i dll.obj
 0001:0001e05c       ??0Enc@SKIPJACK@CryptoPP@@QAE@ABV012@@Z 4291f05c f i dll.obj
 0001:0001e099       ??4Enc@SKIPJACK@CryptoPP@@QAEAAV012@ABV012@@Z 4291f099 f i dll.obj
 0001:0001e099       ??4Dec@SKIPJACK@CryptoPP@@QAEAAV012@ABV012@@Z 4291f099 f i dll.obj
 0001:0001e0ba       ??1?$ClonableImpl@V?$BlockCipherFinal@$00VDec@SKIPJACK@CryptoPP@@@CryptoPP@@VDec@SKIPJACK@2@@CryptoPP@@UAE@XZ 4291f0ba f i dll.obj
 0001:0001e0ba       ??1?$ClonableImpl@V?$BlockCipherFinal@$0A@VEnc@SKIPJACK@CryptoPP@@@CryptoPP@@VEnc@SKIPJACK@2@@CryptoPP@@UAE@XZ 4291f0ba f i dll.obj
 0001:0001e0ba       ??1Dec@SKIPJACK@CryptoPP@@UAE@XZ 4291f0ba f i dll.obj
 0001:0001e0ba       ??1?$BlockCipherFinal@$0A@VEnc@SKIPJACK@CryptoPP@@@CryptoPP@@UAE@XZ 4291f0ba f i dll.obj
 0001:0001e0ba       ??1?$BlockCipherFinal@$00VDec@SKIPJACK@CryptoPP@@@CryptoPP@@UAE@XZ 4291f0ba f i dll.obj
 0001:0001e0ba       ??1Enc@SKIPJACK@CryptoPP@@UAE@XZ 4291f0ba f i dll.obj
 0001:0001e0bf       ??0Dec@SKIPJACK@CryptoPP@@QAE@ABV012@@Z 4291f0bf f i dll.obj
 0001:0001e0fc       ??4?$TwoBases@VBlockCipher@CryptoPP@@USKIPJACK_Info@2@@CryptoPP@@QAEAAV01@ABV01@@Z 4291f0fc f i dll.obj
 0001:0001e0fc       ??0?$TwoBases@VBlockCipher@CryptoPP@@USKIPJACK_Info@2@@CryptoPP@@QAE@ABV01@@Z 4291f0fc f i dll.obj
 0001:0001e259       ??2@YAPAXI@Z               4291f259 f   dll.obj
 0001:0001e273       ??3@YAXPAX@Z               4291f273 f   dll.obj
 0001:0001e27f       ?allocate@?$AllocatorWithCleanup@G$0A@@CryptoPP@@QAEPAGIPBX@Z 4291f27f f i dll.obj
 0001:0001e2a1       ?deallocate@?$AllocatorWithCleanup@G$0A@@CryptoPP@@QAEXPAXI@Z 4291f2a1 f i dll.obj
 0001:0001e2bd       ?reallocate@?$AllocatorWithCleanup@G$0A@@CryptoPP@@QAEPAGPAGII_N@Z 4291f2bd f i dll.obj
 0001:0001e2d9       ?allocate@?$AllocatorWithCleanup@I$00@CryptoPP@@QAEPAIIPBX@Z 4291f2d9 f i dll.obj
 0001:0001e2d9       ?allocate@?$AllocatorWithCleanup@I$0A@@CryptoPP@@QAEPAIIPBX@Z 4291f2d9 f i dll.obj
 0001:0001e2fd       ?deallocate@?$AllocatorWithCleanup@I$00@CryptoPP@@QAEXPAXI@Z 4291f2fd f i dll.obj
 0001:0001e2fd       ?deallocate@?$AllocatorWithCleanup@I$0A@@CryptoPP@@QAEXPAXI@Z 4291f2fd f i dll.obj
 0001:0001e319       ?reallocate@?$AllocatorWithCleanup@I$0A@@CryptoPP@@QAEPAIPAIII_N@Z 4291f319 f i dll.obj
 0001:0001e319       ?reallocate@?$AllocatorWithCleanup@I$00@CryptoPP@@QAEPAIPAIII_N@Z 4291f319 f i dll.obj
 0001:0001e335       ?allocate@?$AllocatorWithCleanup@_K$0A@@CryptoPP@@QAEPA_KIPBX@Z 4291f335 f i dll.obj
 0001:0001e359       ?deallocate@?$AllocatorWithCleanup@_K$0A@@CryptoPP@@QAEXPAXI@Z 4291f359 f i dll.obj
 0001:0001e375       ?reallocate@?$AllocatorWithCleanup@_K$0A@@CryptoPP@@QAEPA_KPA_KII_N@Z 4291f375 f i dll.obj
 0001:0001e391       ?GetOptimalNextBlockSize@?$AdditiveCipherTemplate@V?$AbstractPolicyHolder@UAdditiveCipherAbstractPolicy@CryptoPP@@VSymmetricCipher@2@@CryptoPP@@@CryptoPP@@QBEIXZ 4291f391 f i dll.obj
 0001:0001e395       ?KeystreamBufferEnd@?$AdditiveCipherTemplate@V?$AbstractPolicyHolder@UAdditiveCipherAbstractPolicy@CryptoPP@@VSymmetricCipher@2@@CryptoPP@@@CryptoPP@@IAEPAEXZ 4291f395 f i dll.obj
 0001:0001e39c       ?GetOptimalNextBlockSize@?$CFB_CipherTemplate@V?$AbstractPolicyHolder@VCFB_CipherAbstractPolicy@CryptoPP@@VSymmetricCipher@2@@CryptoPP@@@CryptoPP@@QBEIXZ 4291f39c f i dll.obj
 0001:0001e3a0       ?GetOptimalNextBlockSize@?$AdditiveCipherTemplate@V?$AbstractPolicyHolder@UAdditiveCipherAbstractPolicy@CryptoPP@@VOFB_ModePolicy@2@@CryptoPP@@@CryptoPP@@QBEIXZ 4291f3a0 f i dll.obj
 0001:0001e3a0       ?GetOptimalNextBlockSize@?$CFB_CipherTemplate@V?$AbstractPolicyHolder@VCFB_CipherAbstractPolicy@CryptoPP@@VCFB_ModePolicy@2@@CryptoPP@@@CryptoPP@@QBEIXZ 4291f3a0 f i dll.obj
 0001:0001e3a4       ?KeystreamBufferEnd@?$AdditiveCipherTemplate@V?$AbstractPolicyHolder@UAdditiveCipherAbstractPolicy@CryptoPP@@VOFB_ModePolicy@2@@CryptoPP@@@CryptoPP@@IAEPAEXZ 4291f3a4 f i dll.obj
 0001:0001e3ab       ?GetBufferByteSize@?$AdditiveCipherTemplate@V?$AbstractPolicyHolder@UAdditiveCipherAbstractPolicy@CryptoPP@@VSymmetricCipher@2@@CryptoPP@@@CryptoPP@@IBEIABUAdditiveCipherAbstractPolicy@2@@Z 4291f3ab f i dll.obj
 0001:0001e3ab       ?GetBufferByteSize@?$AdditiveCipherTemplate@V?$AbstractPolicyHolder@UAdditiveCipherAbstractPolicy@CryptoPP@@VOFB_ModePolicy@2@@CryptoPP@@@CryptoPP@@IBEIABUAdditiveCipherAbstractPolicy@2@@Z 4291f3ab f i dll.obj
 0001:0001e3ab       ?GetBufferByteSize@?$AdditiveCipherTemplate@V?$AbstractPolicyHolder@UAdditiveCipherAbstractPolicy@CryptoPP@@VCTR_ModePolicy@2@@CryptoPP@@@CryptoPP@@IBEIABUAdditiveCipherAbstractPolicy@2@@Z 4291f3ab f i dll.obj
 0001:0001e3c9       ?KeystreamBufferEnd@?$AdditiveCipherTemplate@V?$AbstractPolicyHolder@UAdditiveCipherAbstractPolicy@CryptoPP@@VCTR_ModePolicy@2@@CryptoPP@@@CryptoPP@@IAEPAEXZ 4291f3c9 f i dll.obj
 0001:0001e3d0       ??0?$CipherModeFinalTemplate_ExternalCipher@V?$ConcretePolicyHolder@VEmpty@CryptoPP@@V?$AdditiveCipherTemplate@V?$AbstractPolicyHolder@UAdditiveCipherAbstractPolicy@CryptoPP@@VCTR_ModePolicy@2@@CryptoPP@@@2@UAdditiveCipherAbstractPolicy@2@@CryptoPP@@@CryptoPP@@QAE@AAVBlockCipher@1@@Z 4291f3d0 f i dll.obj
 0001:0001e42a       ??0?$CipherModeFinalTemplate_ExternalCipher@V?$ConcretePolicyHolder@VEmpty@CryptoPP@@V?$AdditiveCipherTemplate@V?$AbstractPolicyHolder@UAdditiveCipherAbstractPolicy@CryptoPP@@VCTR_ModePolicy@2@@CryptoPP@@@2@UAdditiveCipherAbstractPolicy@2@@CryptoPP@@@CryptoPP@@QAE@AAVBlockCipher@1@PBEH@Z 4291f42a f i dll.obj
 0001:0001e480       ??0?$CipherModeFinalTemplate_ExternalCipher@VECB_OneWay@CryptoPP@@@CryptoPP@@QAE@XZ 4291f480 f i dll.obj
 0001:0001e4c0       ??0?$CipherModeFinalTemplate_ExternalCipher@VECB_OneWay@CryptoPP@@@CryptoPP@@QAE@AAVBlockCipher@1@@Z 4291f4c0 f i dll.obj
 0001:0001e51d       ??0?$CipherModeFinalTemplate_ExternalCipher@VECB_OneWay@CryptoPP@@@CryptoPP@@QAE@AAVBlockCipher@1@PBEH@Z 4291f51d f i dll.obj
 0001:0001e576       ??0?$CipherModeFinalTemplate_ExternalCipher@VCBC_Encryption@CryptoPP@@@CryptoPP@@QAE@XZ 4291f576 f i dll.obj
 0001:0001e5b6       ??0?$CipherModeFinalTemplate_ExternalCipher@VCBC_Encryption@CryptoPP@@@CryptoPP@@QAE@AAVBlockCipher@1@@Z 4291f5b6 f i dll.obj
 0001:0001e613       ??0?$CipherModeFinalTemplate_ExternalCipher@VCBC_Encryption@CryptoPP@@@CryptoPP@@QAE@AAVBlockCipher@1@PBEH@Z 4291f613 f i dll.obj
 0001:0001e66c       ??0?$CipherModeFinalTemplate_ExternalCipher@VCBC_Decryption@CryptoPP@@@CryptoPP@@QAE@XZ 4291f66c f i dll.obj
 0001:0001e685       ??0?$CipherModeFinalTemplate_ExternalCipher@VCBC_Decryption@CryptoPP@@@CryptoPP@@QAE@AAVBlockCipher@1@@Z 4291f685 f i dll.obj
 0001:0001e6e2       ??0?$CipherModeFinalTemplate_ExternalCipher@VCBC_Decryption@CryptoPP@@@CryptoPP@@QAE@AAVBlockCipher@1@PBEH@Z 4291f6e2 f i dll.obj
 0001:0001e73b       ??0?$CipherModeFinalTemplate_ExternalCipher@VCBC_CTS_Encryption@CryptoPP@@@CryptoPP@@QAE@XZ 4291f73b f i dll.obj
 0001:0001e77b       ??0?$CipherModeFinalTemplate_ExternalCipher@VCBC_CTS_Encryption@CryptoPP@@@CryptoPP@@QAE@AAVBlockCipher@1@@Z 4291f77b f i dll.obj
 0001:0001e7d8       ??0?$CipherModeFinalTemplate_ExternalCipher@VCBC_CTS_Encryption@CryptoPP@@@CryptoPP@@QAE@AAVBlockCipher@1@PBEH@Z 4291f7d8 f i dll.obj
 0001:0001e831       ??0?$CipherModeFinalTemplate_ExternalCipher@VCBC_CTS_Decryption@CryptoPP@@@CryptoPP@@QAE@XZ 4291f831 f i dll.obj
 0001:0001e84a       ??0?$CipherModeFinalTemplate_ExternalCipher@VCBC_CTS_Decryption@CryptoPP@@@CryptoPP@@QAE@AAVBlockCipher@1@@Z 4291f84a f i dll.obj
 0001:0001e896       ??0?$CipherModeFinalTemplate_ExternalCipher@VCBC_CTS_Decryption@CryptoPP@@@CryptoPP@@QAE@AAVBlockCipher@1@PBEH@Z 4291f896 f i dll.obj
 0001:0001e8de       ??0?$StringSinkTemplate@V?$basic_string@DU?$char_traits@D@std@@V?$allocator@D@2@@std@@@CryptoPP@@QAE@AAV?$basic_string@DU?$char_traits@D@std@@V?$allocator@D@2@@std@@@Z 4291f8de f i dll.obj
 0001:0001e902       ?GetBitCountHi@?$IteratedHashBase@_KVHashTransformation@CryptoPP@@@CryptoPP@@IBE_KXZ 4291f902 f i dll.obj
 0001:0001e934       ?GetBitCountLo@?$IteratedHashBase@_KVHashTransformation@CryptoPP@@@CryptoPP@@IBE_KXZ 4291f934 f i dll.obj
 0001:0001e944       ?GetBitCountHi@?$IteratedHashBase@IVHashTransformation@CryptoPP@@@CryptoPP@@IBEIXZ 4291f944 f i dll.obj
 0001:0001e951       ?GetBitCountLo@?$IteratedHashBase@IVHashTransformation@CryptoPP@@@CryptoPP@@IBEIXZ 4291f951 f i dll.obj
 0001:0001e958       ?HashBlock@?$IteratedHashBase@_KVHashTransformation@CryptoPP@@@CryptoPP@@IAEXPB_K@Z 4291f958 f i dll.obj
 0001:0001e958       ?HashBlock@?$IteratedHashBase@IVHashTransformation@CryptoPP@@@CryptoPP@@IAEXPBI@Z 4291f958 f i dll.obj
 0001:0001e970       ?GetGenerator@?$DL_GroupParameters_IntegerBasedImpl@VModExpPrecomputation@CryptoPP@@V?$DL_FixedBasePrecomputationImpl@VInteger@CryptoPP@@@2@@CryptoPP@@QBEABVInteger@2@XZ 4291f970 f i dll.obj
 0001:0001e989       ??8?$DL_GroupParameters_IntegerBasedImpl@VModExpPrecomputation@CryptoPP@@V?$DL_FixedBasePrecomputationImpl@VInteger@CryptoPP@@@2@@CryptoPP@@QBE_NABV01@@Z 4291f989 f i dll.obj
 0001:0001e9f6       ??9?$DL_GroupParameters_IntegerBasedImpl@VModExpPrecomputation@CryptoPP@@V?$DL_FixedBasePrecomputationImpl@VInteger@CryptoPP@@@2@@CryptoPP@@QBE_NABV01@@Z 4291f9f6 f i dll.obj
 0001:0001ea07       ?StaticAlgorithmName@?$DL_Algorithm_GDSA@VInteger@CryptoPP@@@CryptoPP@@SAPBDXZ 4291fa07 f i dll.obj
 0001:0001ea07       ?StaticAlgorithmName@?$DL_Algorithm_GDSA@UEC2NPoint@CryptoPP@@@CryptoPP@@SAPBDXZ 4291fa07 f i dll.obj
 0001:0001ea07       ?StaticAlgorithmName@?$DL_Algorithm_GDSA@UECPPoint@CryptoPP@@@CryptoPP@@SAPBDXZ 4291fa07 f i dll.obj
 0001:0001ea0d       ?Initialize@?$DL_PublicKey_GFP@VDL_GroupParameters_DSA@CryptoPP@@@CryptoPP@@QAEXABVDL_GroupParameters_IntegerBased@2@ABVInteger@2@@Z 4291fa0d f i dll.obj
 0001:0001ea2b       ?Initialize@?$DL_PublicKey_GFP@VDL_GroupParameters_DSA@CryptoPP@@@CryptoPP@@QAEXABVInteger@2@00@Z 4291fa2b f i dll.obj
 0001:0001ea4d       ?Initialize@?$DL_PublicKey_GFP@VDL_GroupParameters_DSA@CryptoPP@@@CryptoPP@@QAEXABVInteger@2@000@Z 4291fa4d f i dll.obj
 0001:0001ea84       ?Initialize@?$DL_PrivateKey_GFP@VDL_GroupParameters_DSA@CryptoPP@@@CryptoPP@@QAEXAAVRandomNumberGenerator@2@I@Z 4291fa84 f i dll.obj
 0001:0001ea97       ?Initialize@?$DL_PrivateKey_GFP@VDL_GroupParameters_DSA@CryptoPP@@@CryptoPP@@QAEXAAVRandomNumberGenerator@2@ABVInteger@2@1@Z 4291fa97 f i dll.obj
 0001:0001eafe       ?Initialize@?$DL_PrivateKey_GFP@VDL_GroupParameters_DSA@CryptoPP@@@CryptoPP@@QAEXAAVRandomNumberGenerator@2@ABVInteger@2@11@Z 4291fafe f i dll.obj
 0001:0001eb78       ?Initialize@?$DL_PrivateKey_GFP@VDL_GroupParameters_DSA@CryptoPP@@@CryptoPP@@QAEXABVDL_GroupParameters_IntegerBased@2@ABVInteger@2@@Z 4291fb78 f i dll.obj
 0001:0001eb96       ?Initialize@?$DL_PrivateKey_GFP@VDL_GroupParameters_DSA@CryptoPP@@@CryptoPP@@QAEXABVInteger@2@00@Z 4291fb96 f i dll.obj
 0001:0001ebb8       ?Initialize@?$DL_PrivateKey_GFP@VDL_GroupParameters_DSA@CryptoPP@@@CryptoPP@@QAEXABVInteger@2@000@Z 4291fbb8 f i dll.obj
 0001:0001ebef       ??0?$DH_Domain@VDL_GroupParameters_GFP_DefaultSafePrime@CryptoPP@@U?$EnumToType@W4CofactorMultiplicationOption@CryptoPP@@$0A@@2@@CryptoPP@@QAE@ABVDL_GroupParameters_GFP_DefaultSafePrime@1@@Z 4291fbef f i dll.obj
 0001:0001ec2f       ??0?$DH_Domain@VDL_GroupParameters_GFP_DefaultSafePrime@CryptoPP@@U?$EnumToType@W4CofactorMultiplicationOption@CryptoPP@@$0A@@2@@CryptoPP@@QAE@AAVBufferedTransformation@1@@Z 4291fc2f f i dll.obj
 0001:0001ec7e       ??0?$SecBlock@IV?$AllocatorWithCleanup@I$0A@@CryptoPP@@@CryptoPP@@QAE@I@Z 4291fc7e f i dll.obj
 0001:0001ec7e       ??0?$SecBlock@IV?$AllocatorWithCleanup@I$00@CryptoPP@@@CryptoPP@@QAE@I@Z 4291fc7e f i dll.obj
 0001:0001ecae       ??1?$SecBlock@IV?$AllocatorWithCleanup@I$00@CryptoPP@@@CryptoPP@@QAE@XZ 4291fcae f i dll.obj
 0001:0001ecae       ??1?$SecBlock@IV?$AllocatorWithCleanup@I$0A@@CryptoPP@@@CryptoPP@@QAE@XZ 4291fcae f i dll.obj
 0001:0001ecc6       ?swap@?$SecBlock@EV?$AllocatorWithCleanup@E$00@CryptoPP@@@CryptoPP@@QAEXAAV12@@Z 4291fcc6 f i dll.obj
 0001:0001ecc6       ?swap@?$SecBlock@IV?$AllocatorWithCleanup@I$0A@@CryptoPP@@@CryptoPP@@QAEXAAV12@@Z 4291fcc6 f i dll.obj
 0001:0001ecc6       ?swap@?$SecBlock@IV?$AllocatorWithCleanup@I$00@CryptoPP@@@CryptoPP@@QAEXAAV12@@Z 4291fcc6 f i dll.obj
 0001:0001ecf1       ??0?$AbstractRing@VPolynomialMod2@CryptoPP@@@CryptoPP@@QAE@XZ 4291fcf1 f i dll.obj
 0001:0001ecfe       ??0?$AbstractRing@VPolynomialMod2@CryptoPP@@@CryptoPP@@QAE@ABV01@@Z 4291fcfe f i dll.obj
 0001:0001ed0d       ?Accumulate@MultiplicativeGroupT@?$AbstractRing@VPolynomialMod2@CryptoPP@@@CryptoPP@@UBEAAVPolynomialMod2@3@AAV43@ABV43@@Z 4291fd0d f i dll.obj
 0001:0001ed2a       ?Inverse@MultiplicativeGroupT@?$AbstractRing@VPolynomialMod2@CryptoPP@@@CryptoPP@@UBEABVPolynomialMod2@3@ABV43@@Z 4291fd2a f i dll.obj
 0001:0001ed2a       ?Inverse@MultiplicativeGroupT@?$AbstractRing@VInteger@CryptoPP@@@CryptoPP@@UBEABVInteger@3@ABV43@@Z 4291fd2a f i dll.obj
 0001:0001ed39       ?Subtract@MultiplicativeGroupT@?$AbstractRing@VPolynomialMod2@CryptoPP@@@CryptoPP@@UBEABVPolynomialMod2@3@ABV43@0@Z 4291fd39 f i dll.obj
 0001:0001ed39       ?Subtract@MultiplicativeGroupT@?$AbstractRing@VInteger@CryptoPP@@@CryptoPP@@UBEABVInteger@3@ABV43@0@Z 4291fd39 f i dll.obj
 0001:0001ed4c       ?Reduce@MultiplicativeGroupT@?$AbstractRing@VPolynomialMod2@CryptoPP@@@CryptoPP@@UBEAAVPolynomialMod2@3@AAV43@ABV43@@Z 4291fd4c f i dll.obj
 0001:0001ed69       ?Double@MultiplicativeGroupT@?$AbstractRing@VPolynomialMod2@CryptoPP@@@CryptoPP@@UBEABVPolynomialMod2@3@ABV43@@Z 4291fd69 f i dll.obj
 0001:0001ed69       ?Double@MultiplicativeGroupT@?$AbstractRing@VInteger@CryptoPP@@@CryptoPP@@UBEABVInteger@3@ABV43@@Z 4291fd69 f i dll.obj
 0001:0001ed78       ?ScalarMultiply@MultiplicativeGroupT@?$AbstractRing@VPolynomialMod2@CryptoPP@@@CryptoPP@@UBE?AVPolynomialMod2@3@ABV43@ABVInteger@3@@Z 4291fd78 f i dll.obj
 0001:0001ed78       ?ScalarMultiply@MultiplicativeGroupT@?$AbstractRing@VInteger@CryptoPP@@@CryptoPP@@UBE?AVInteger@3@ABV43@0@Z 4291fd78 f i dll.obj
 0001:0001ed98       ?CascadeScalarMultiply@MultiplicativeGroupT@?$AbstractRing@VInteger@CryptoPP@@@CryptoPP@@UBE?AVInteger@3@ABV43@000@Z 4291fd98 f i dll.obj
 0001:0001ed98       ?CascadeScalarMultiply@MultiplicativeGroupT@?$AbstractRing@VPolynomialMod2@CryptoPP@@@CryptoPP@@UBE?AVPolynomialMod2@3@ABV43@ABVInteger@3@01@Z 4291fd98 f i dll.obj
 0001:0001edbe       ??0?$EuclideanDomainOf@VPolynomialMod2@CryptoPP@@@CryptoPP@@QAE@XZ 4291fdbe f i dll.obj
 0001:0001ee09       ?Identity@?$EuclideanDomainOf@VPolynomialMod2@CryptoPP@@@CryptoPP@@UBEABVPolynomialMod2@2@XZ 4291fe09 f i dll.obj
 0001:0001ee0e       ?Add@?$EuclideanDomainOf@VPolynomialMod2@CryptoPP@@@CryptoPP@@UBEABVPolynomialMod2@2@ABV32@0@Z 4291fe0e f i dll.obj
 0001:0001ee5c       ??GCryptoPP@@YA?AVPolynomialMod2@0@ABV10@0@Z 4291fe5c f i dll.obj
 0001:0001ee5c       ??HCryptoPP@@YA?AVPolynomialMod2@0@ABV10@0@Z 4291fe5c f i dll.obj
 0001:0001ee77       ?Inverse@?$EuclideanDomainOf@VPolynomialMod2@CryptoPP@@@CryptoPP@@UBEABVPolynomialMod2@2@ABV32@@Z 4291fe77 f i dll.obj
 0001:0001eebf       ?Subtract@?$EuclideanDomainOf@VPolynomialMod2@CryptoPP@@@CryptoPP@@UBEABVPolynomialMod2@2@ABV32@0@Z 4291febf f i dll.obj
 0001:0001ef0d       ?Reduce@?$EuclideanDomainOf@VPolynomialMod2@CryptoPP@@@CryptoPP@@UBEAAVPolynomialMod2@2@AAV32@ABV32@@Z 4291ff0d f i dll.obj
 0001:0001ef0d       ?Accumulate@?$EuclideanDomainOf@VPolynomialMod2@CryptoPP@@@CryptoPP@@UBEAAVPolynomialMod2@2@AAV32@ABV32@@Z 4291ff0d f i dll.obj
 0001:0001ef1d       ?Double@?$EuclideanDomainOf@VPolynomialMod2@CryptoPP@@@CryptoPP@@UBEABVPolynomialMod2@2@ABV32@@Z 4291ff1d f i dll.obj
 0001:0001ef65       ?MultiplicativeIdentity@?$EuclideanDomainOf@VPolynomialMod2@CryptoPP@@@CryptoPP@@UBEABVPolynomialMod2@2@XZ 4291ff65 f i dll.obj
 0001:0001ef6a       ?Multiply@?$EuclideanDomainOf@VPolynomialMod2@CryptoPP@@@CryptoPP@@UBEABVPolynomialMod2@2@ABV32@0@Z 4291ff6a f i dll.obj
 0001:0001efb8       ??DCryptoPP@@YA?AVPolynomialMod2@0@ABV10@0@Z 4291ffb8 f i dll.obj
 0001:0001efd3       ?Square@?$EuclideanDomainOf@VPolynomialMod2@CryptoPP@@@CryptoPP@@UBEABVPolynomialMod2@2@ABV32@@Z 4291ffd3 f i dll.obj
 0001:0001f01b       ?IsUnit@?$EuclideanDomainOf@VPolynomialMod2@CryptoPP@@@CryptoPP@@UBE_NABVPolynomialMod2@2@@Z 4292001b f i dll.obj
 0001:0001f02d       ?MultiplicativeInverse@?$EuclideanDomainOf@VPolynomialMod2@CryptoPP@@@CryptoPP@@UBEABVPolynomialMod2@2@ABV32@@Z 4292002d f i dll.obj
 0001:0001f075       ?Divide@?$EuclideanDomainOf@VPolynomialMod2@CryptoPP@@@CryptoPP@@UBEABVPolynomialMod2@2@ABV32@0@Z 42920075 f i dll.obj
 0001:0001f0c3       ??KCryptoPP@@YA?AVPolynomialMod2@0@ABV10@0@Z 429200c3 f i dll.obj
 0001:0001f0de       ?Mod@?$EuclideanDomainOf@VPolynomialMod2@CryptoPP@@@CryptoPP@@UBEABVPolynomialMod2@2@ABV32@0@Z 429200de f i dll.obj
 0001:0001f12c       ??LCryptoPP@@YA?AVPolynomialMod2@0@ABV10@0@Z 4292012c f i dll.obj
 0001:0001f147       ?DivisionAlgorithm@?$EuclideanDomainOf@VPolynomialMod2@CryptoPP@@@CryptoPP@@UBEXAAVPolynomialMod2@2@0ABV32@1@Z 42920147 f i dll.obj
 0001:0001f162       ??8?$EuclideanDomainOf@VPolynomialMod2@CryptoPP@@@CryptoPP@@QBE_NABV01@@Z 42920162 f i dll.obj
 0001:0001f167       ??0?$QuotientRing@V?$EuclideanDomainOf@VPolynomialMod2@CryptoPP@@@CryptoPP@@@CryptoPP@@QAE@ABV?$EuclideanDomainOf@VPolynomialMod2@CryptoPP@@@1@ABVPolynomialMod2@1@@Z 42920167 f i dll.obj
 0001:0001f1b7       ?GetModulus@?$QuotientRing@V?$EuclideanDomainOf@VPolynomialMod2@CryptoPP@@@CryptoPP@@@CryptoPP@@QBEABVPolynomialMod2@2@XZ 429201b7 f i dll.obj
 0001:0001f1bb       ?Equal@?$QuotientRing@V?$EuclideanDomainOf@VPolynomialMod2@CryptoPP@@@CryptoPP@@@CryptoPP@@UBE_NABVPolynomialMod2@2@0@Z 429201bb f i dll.obj
 0001:0001f1fd       ?Identity@?$QuotientRing@V?$EuclideanDomainOf@VPolynomialMod2@CryptoPP@@@CryptoPP@@@CryptoPP@@UBEABVPolynomialMod2@2@XZ 429201fd f i dll.obj
 0001:0001f206       ?Add@?$QuotientRing@V?$EuclideanDomainOf@VPolynomialMod2@CryptoPP@@@CryptoPP@@@CryptoPP@@UBEABVPolynomialMod2@2@ABV32@0@Z 42920206 f i dll.obj
 0001:0001f21a       ?Accumulate@?$QuotientRing@V?$EuclideanDomainOf@VPolynomialMod2@CryptoPP@@@CryptoPP@@@CryptoPP@@UBEAAVPolynomialMod2@2@AAV32@ABV32@@Z 4292021a f i dll.obj
 0001:0001f22e       ?Inverse@?$QuotientRing@V?$EuclideanDomainOf@VPolynomialMod2@CryptoPP@@@CryptoPP@@@CryptoPP@@UBEABVPolynomialMod2@2@ABV32@@Z 4292022e f i dll.obj
 0001:0001f23e       ?Subtract@?$QuotientRing@V?$EuclideanDomainOf@VPolynomialMod2@CryptoPP@@@CryptoPP@@@CryptoPP@@UBEABVPolynomialMod2@2@ABV32@0@Z 4292023e f i dll.obj
 0001:0001f252       ?Reduce@?$QuotientRing@V?$EuclideanDomainOf@VPolynomialMod2@CryptoPP@@@CryptoPP@@@CryptoPP@@UBEAAVPolynomialMod2@2@AAV32@ABV32@@Z 42920252 f i dll.obj
 0001:0001f266       ?Double@?$QuotientRing@V?$EuclideanDomainOf@VPolynomialMod2@CryptoPP@@@CryptoPP@@@CryptoPP@@UBEABVPolynomialMod2@2@ABV32@@Z 42920266 f i dll.obj
 0001:0001f276       ?IsUnit@?$QuotientRing@V?$EuclideanDomainOf@VPolynomialMod2@CryptoPP@@@CryptoPP@@@CryptoPP@@UBE_NABVPolynomialMod2@2@@Z 42920276 f i dll.obj
 0001:0001f295       ?MultiplicativeIdentity@?$QuotientRing@V?$EuclideanDomainOf@VPolynomialMod2@CryptoPP@@@CryptoPP@@@CryptoPP@@UBEABVPolynomialMod2@2@XZ 42920295 f i dll.obj
 0001:0001f29e       ?Multiply@?$QuotientRing@V?$EuclideanDomainOf@VPolynomialMod2@CryptoPP@@@CryptoPP@@@CryptoPP@@UBEABVPolynomialMod2@2@ABV32@0@Z 4292029e f i dll.obj
 0001:0001f2c1       ?Square@?$QuotientRing@V?$EuclideanDomainOf@VPolynomialMod2@CryptoPP@@@CryptoPP@@@CryptoPP@@UBEABVPolynomialMod2@2@ABV32@@Z 429202c1 f i dll.obj
 0001:0001f2e0       ??8?$QuotientRing@V?$EuclideanDomainOf@VPolynomialMod2@CryptoPP@@@CryptoPP@@@CryptoPP@@QBE_NABV01@@Z 429202e0 f i dll.obj
 0001:0001f2f9       ??0?$DL_FixedBasePrecomputationImpl@UEC2NPoint@CryptoPP@@@CryptoPP@@QAE@XZ 429202f9 f i dll.obj
 0001:0001f36a       ?IsInitialized@?$DL_FixedBasePrecomputationImpl@UEC2NPoint@CryptoPP@@@CryptoPP@@UBE_NXZ 4292036a f i dll.obj
 0001:0001f38a       ?GetBase@?$DL_FixedBasePrecomputationImpl@UEC2NPoint@CryptoPP@@@CryptoPP@@UBEABUEC2NPoint@2@ABV?$DL_GroupPrecomputation@UEC2NPoint@CryptoPP@@@2@@Z 4292038a f i dll.obj
 0001:0001f3a3       ??0?$vector@UEC2NPoint@CryptoPP@@V?$allocator@UEC2NPoint@CryptoPP@@@std@@@std@@QAE@ABV01@@Z 429203a3 f i dll.obj
 0001:0001f41f       ??1?$vector@UEC2NPoint@CryptoPP@@V?$allocator@UEC2NPoint@CryptoPP@@@std@@@std@@QAE@XZ 4292041f f i dll.obj
 0001:0001f453       ??4?$vector@UEC2NPoint@CryptoPP@@V?$allocator@UEC2NPoint@CryptoPP@@@std@@@std@@QAEAAV01@ABV01@@Z 42920453 f i dll.obj
 0001:0001f63f       ?ConvertOut@?$DL_GroupPrecomputation@UEC2NPoint@CryptoPP@@@CryptoPP@@UBE?AUEC2NPoint@2@ABU32@@Z 4292063f f i dll.obj
 0001:0001f63f       ?ConvertIn@?$DL_GroupPrecomputation@UEC2NPoint@CryptoPP@@@CryptoPP@@UBE?AUEC2NPoint@2@ABU32@@Z 4292063f f i dll.obj
 0001:0001f659       ??0?$DL_FixedBasePrecomputationImpl@UECPPoint@CryptoPP@@@CryptoPP@@QAE@XZ 42920659 f i dll.obj
 0001:0001f6ca       ?IsInitialized@?$DL_FixedBasePrecomputationImpl@UECPPoint@CryptoPP@@@CryptoPP@@UBE_NXZ 429206ca f i dll.obj
 0001:0001f6ea       ?GetBase@?$DL_FixedBasePrecomputationImpl@UECPPoint@CryptoPP@@@CryptoPP@@UBEABUECPPoint@2@ABV?$DL_GroupPrecomputation@UECPPoint@CryptoPP@@@2@@Z 429206ea f i dll.obj
 0001:0001f703       ??0?$vector@UECPPoint@CryptoPP@@V?$allocator@UECPPoint@CryptoPP@@@std@@@std@@QAE@ABV01@@Z 42920703 f i dll.obj
 0001:0001f77f       ??1?$vector@UECPPoint@CryptoPP@@V?$allocator@UECPPoint@CryptoPP@@@std@@@std@@QAE@XZ 4292077f f i dll.obj
 0001:0001f7b3       ??4?$vector@UECPPoint@CryptoPP@@V?$allocator@UECPPoint@CryptoPP@@@std@@@std@@QAEAAV01@ABV01@@Z 429207b3 f i dll.obj
 0001:0001f99f       ?ConvertOut@?$DL_GroupPrecomputation@UECPPoint@CryptoPP@@@CryptoPP@@UBE?AUECPPoint@2@ABU32@@Z 4292099f f i dll.obj
 0001:0001f99f       ?ConvertIn@?$DL_GroupPrecomputation@UECPPoint@CryptoPP@@@CryptoPP@@UBE?AUECPPoint@2@ABU32@@Z 4292099f f i dll.obj
 0001:0001f9b9       ??0?$value_ptr@VECP@CryptoPP@@@CryptoPP@@QAE@ABV01@@Z 429209b9 f i dll.obj
 0001:0001fa14       ??0?$DL_GroupParameters_EC@VECP@CryptoPP@@@CryptoPP@@QAE@XZ 42920a14 f i dll.obj
 0001:0001fabc       ??0?$DL_GroupParameters_EC@VECP@CryptoPP@@@CryptoPP@@QAE@ABVOID@1@@Z 42920abc f i dll.obj
 0001:0001fb72       ??0?$DL_GroupParameters_EC@VECP@CryptoPP@@@CryptoPP@@QAE@ABVECP@1@ABUECPPoint@1@ABVInteger@1@2@Z 42920b72 f i dll.obj
 0001:0001fc4b       ?SetCurve@?$EcPrecomputation@VECP@CryptoPP@@@CryptoPP@@QAEXABVECP@2@@Z 42920c4b f i dll.obj
 0001:0001fcd8       ??0?$value_ptr@VECP@CryptoPP@@@CryptoPP@@QAE@ABVECP@1@@Z 42920cd8 f i dll.obj
 0001:0001fd2b       ??0?$DL_GroupParameters_EC@VECP@CryptoPP@@@CryptoPP@@QAE@AAVBufferedTransformation@1@@Z 42920d2b f i dll.obj
 0001:0001fde1       ?Initialize@?$DL_GroupParameters_EC@VECP@CryptoPP@@@CryptoPP@@QAEXABVECP@2@ABUECPPoint@2@ABVInteger@2@2@Z 42920de1 f i dll.obj
 0001:0001fe1d       ?EncodeElement@?$DL_GroupParameters_EC@VECP@CryptoPP@@@CryptoPP@@UBEX_NABUECPPoint@2@PAE@Z 42920e1d f i dll.obj
 0001:0001fe58       ?GetEncodedElementSize@?$DL_GroupParameters_EC@VECP@CryptoPP@@@CryptoPP@@UBEI_N@Z 42920e58 f i dll.obj
 0001:0001fe8e       ?DecodeElement@?$DL_GroupParameters_EC@VECP@CryptoPP@@@CryptoPP@@UBE?AUECPPoint@2@PBE_N@Z 42920e8e f i dll.obj
 0001:0001ff55       ?GetMaxExponent@?$DL_GroupParameters_EC@VECP@CryptoPP@@@CryptoPP@@UBE?AVInteger@2@XZ 42920f55 f i dll.obj
 0001:0001ffb5       ?IsIdentity@?$DL_GroupParameters_EC@VEC2N@CryptoPP@@@CryptoPP@@UBE_NABUEC2NPoint@2@@Z 42920fb5 f i dll.obj
 0001:0001ffb5       ?IsIdentity@?$DL_GroupParameters_EC@VECP@CryptoPP@@@CryptoPP@@UBE_NABUECPPoint@2@@Z 42920fb5 f i dll.obj
 0001:0001ffbe       ?StaticAlgorithmNamePrefix@?$DL_GroupParameters_EC@VEC2N@CryptoPP@@@CryptoPP@@SA?AV?$basic_string@DU?$char_traits@D@std@@V?$allocator@D@2@@std@@XZ 42920fbe f i dll.obj
 0001:0001ffbe       ?StaticAlgorithmNamePrefix@?$DL_GroupParameters_EC@VECP@CryptoPP@@@CryptoPP@@SA?AV?$basic_string@DU?$char_traits@D@std@@V?$allocator@D@2@@std@@XZ 42920fbe f i dll.obj
 0001:0001fff4       ?SetPointCompression@?$DL_GroupParameters_EC@VECP@CryptoPP@@@CryptoPP@@QAEX_N@Z 42920ff4 f i dll.obj
 0001:00020001       ?GetPointCompression@?$DL_GroupParameters_EC@VECP@CryptoPP@@@CryptoPP@@QBE_NXZ 42921001 f i dll.obj
 0001:00020008       ?SetEncodeAsOID@?$DL_GroupParameters_EC@VECP@CryptoPP@@@CryptoPP@@QAEX_N@Z 42921008 f i dll.obj
 0001:00020015       ?GetEncodeAsOID@?$DL_GroupParameters_EC@VECP@CryptoPP@@@CryptoPP@@QBE_NXZ 42921015 f i dll.obj
 0001:0002001c       ?GetCurve@?$DL_GroupParameters_EC@VECP@CryptoPP@@@CryptoPP@@QBEABVECP@2@XZ 4292101c f i dll.obj
 0001:0002001c       ?KeystreamBufferBegin@?$AdditiveCipherTemplate@V?$AbstractPolicyHolder@UAdditiveCipherAbstractPolicy@CryptoPP@@VSymmetricCipher@2@@CryptoPP@@@CryptoPP@@IAEPAEXZ 4292101c f i dll.obj
 0001:00020020       ??8?$DL_GroupParameters_EC@VECP@CryptoPP@@@CryptoPP@@QBE_NABV01@@Z 42921020 f i dll.obj
 0001:0002006d       ?FieldElementLength@?$DL_GroupParameters_EC@VECP@CryptoPP@@@CryptoPP@@IBEIXZ 4292106d f i dll.obj
 0001:00020078       ?ExponentLength@?$DL_GroupParameters_EC@VECP@CryptoPP@@@CryptoPP@@IBEIXZ 42921078 f i dll.obj
 0001:00020083       ?AccessBasePrecomputation@?$DL_GroupParameters_EC@VECP@CryptoPP@@@CryptoPP@@UAEAAV?$DL_FixedBasePrecomputation@UECPPoint@CryptoPP@@@2@XZ 42921083 f i dll.obj
 0001:00020083       ?GetBasePrecomputation@?$DL_GroupParameters_EC@VECP@CryptoPP@@@CryptoPP@@UBEABV?$DL_FixedBasePrecomputation@UECPPoint@CryptoPP@@@2@XZ 42921083 f i dll.obj
 0001:00020083       ?AccessHash@?$HMAC@VSHA1@CryptoPP@@@CryptoPP@@EAEAAVHashTransformation@2@XZ 42921083 f i dll.obj
 0001:00020083       ?AccessBasePrecomputation@?$DL_GroupParametersImpl@V?$EcPrecomputation@VECP@CryptoPP@@@CryptoPP@@V?$DL_FixedBasePrecomputationImpl@UECPPoint@CryptoPP@@@2@V?$DL_GroupParameters@UECPPoint@CryptoPP@@@2@@CryptoPP@@UAEAAV?$DL_FixedBasePrecomputation@UECPPoint@CryptoPP@@@2@XZ 42921083 f i dll.obj
 0001:00020083       ?GetBasePrecomputation@?$DL_GroupParametersImpl@V?$EcPrecomputation@VECP@CryptoPP@@@CryptoPP@@V?$DL_FixedBasePrecomputationImpl@UECPPoint@CryptoPP@@@2@V?$DL_GroupParameters@UECPPoint@CryptoPP@@@2@@CryptoPP@@UBEABV?$DL_FixedBasePrecomputation@UECPPoint@CryptoPP@@@2@XZ 42921083 f i dll.obj
 0001:00020087       ?ExponentiateElement@?$DL_GroupParameters@UECPPoint@CryptoPP@@@CryptoPP@@UBE?AUECPPoint@2@ABU32@ABVInteger@2@@Z 42921087 f i dll.obj
 0001:000200fc       ?GetGroupOrder@?$DL_GroupParameters@UECPPoint@CryptoPP@@@CryptoPP@@UBE?AVInteger@2@XZ 429210fc f i dll.obj
 0001:0002015b       ?GetCofactor@?$DL_GroupParameters@UECPPoint@CryptoPP@@@CryptoPP@@UBE?AVInteger@2@XZ 4292115b f i dll.obj
 0001:000201be       ??0?$DL_GroupParameters_EC@VEC2N@CryptoPP@@@CryptoPP@@QAE@XZ 429211be f i dll.obj
 0001:0002026b       ??0?$DL_GroupParameters_EC@VEC2N@CryptoPP@@@CryptoPP@@QAE@ABVOID@1@@Z 4292126b f i dll.obj
 0001:00020326       ??0?$DL_GroupParameters_EC@VEC2N@CryptoPP@@@CryptoPP@@QAE@ABVEC2N@1@ABUEC2NPoint@1@ABVInteger@1@2@Z 42921326 f i dll.obj
 0001:00020404       ??0?$DL_GroupParameters_EC@VEC2N@CryptoPP@@@CryptoPP@@QAE@AAVBufferedTransformation@1@@Z 42921404 f i dll.obj
 0001:000204bf       ?Initialize@?$DL_GroupParameters_EC@VEC2N@CryptoPP@@@CryptoPP@@QAEXABVEC2N@2@ABUEC2NPoint@2@ABVInteger@2@2@Z 429214bf f i dll.obj
 0001:000204fb       ?GetBasePrecomputation@?$DL_GroupParameters_EC@VEC2N@CryptoPP@@@CryptoPP@@UBEABV?$DL_FixedBasePrecomputation@UEC2NPoint@CryptoPP@@@2@XZ 429214fb f i dll.obj
 0001:000204fb       ?GetBasePrecomputation@?$DL_GroupParametersImpl@V?$EcPrecomputation@VEC2N@CryptoPP@@@CryptoPP@@V?$DL_FixedBasePrecomputationImpl@UEC2NPoint@CryptoPP@@@2@V?$DL_GroupParameters@UEC2NPoint@CryptoPP@@@2@@CryptoPP@@UBEABV?$DL_FixedBasePrecomputation@UEC2NPoint@CryptoPP@@@2@XZ 429214fb f i dll.obj
 0001:000204fb       ?AccessBasePrecomputation@?$DL_GroupParameters_EC@VEC2N@CryptoPP@@@CryptoPP@@UAEAAV?$DL_FixedBasePrecomputation@UEC2NPoint@CryptoPP@@@2@XZ 429214fb f i dll.obj
 0001:000204fb       ?AccessBasePrecomputation@?$DL_GroupParametersImpl@V?$EcPrecomputation@VEC2N@CryptoPP@@@CryptoPP@@V?$DL_FixedBasePrecomputationImpl@UEC2NPoint@CryptoPP@@@2@V?$DL_GroupParameters@UEC2NPoint@CryptoPP@@@2@@CryptoPP@@UAEAAV?$DL_FixedBasePrecomputation@UEC2NPoint@CryptoPP@@@2@XZ 429214fb f i dll.obj
 0001:000204ff       ?GetSubgroupOrder@?$DL_GroupParameters_EC@VEC2N@CryptoPP@@@CryptoPP@@UBEABVInteger@2@XZ 429214ff f i dll.obj
 0001:00020506       ?EncodeElement@?$DL_GroupParameters_EC@VEC2N@CryptoPP@@@CryptoPP@@UBEX_NABUEC2NPoint@2@PAE@Z 42921506 f i dll.obj
 0001:00020540       ?GetEncodedElementSize@?$DL_GroupParameters_EC@VEC2N@CryptoPP@@@CryptoPP@@UBEI_N@Z 42921540 f i dll.obj
 0001:0002056e       ?DecodeElement@?$DL_GroupParameters_EC@VEC2N@CryptoPP@@@CryptoPP@@UBE?AUEC2NPoint@2@PBE_N@Z 4292156e f i dll.obj
 0001:00020631       ?GetMaxExponent@?$DL_GroupParameters_EC@VEC2N@CryptoPP@@@CryptoPP@@UBE?AVInteger@2@XZ 42921631 f i dll.obj
 0001:00020691       ?SetPointCompression@?$DL_GroupParameters_EC@VEC2N@CryptoPP@@@CryptoPP@@QAEX_N@Z 42921691 f i dll.obj
 0001:0002069e       ?GetPointCompression@?$DL_GroupParameters_EC@VEC2N@CryptoPP@@@CryptoPP@@QBE_NXZ 4292169e f i dll.obj
 0001:000206a5       ?SetEncodeAsOID@?$DL_GroupParameters_EC@VEC2N@CryptoPP@@@CryptoPP@@QAEX_N@Z 429216a5 f i dll.obj
 0001:000206b2       ?GetEncodeAsOID@?$DL_GroupParameters_EC@VEC2N@CryptoPP@@@CryptoPP@@QBE_NXZ 429216b2 f i dll.obj
 0001:000206b9       ?GetWhat@Exception@CryptoPP@@QBEABV?$basic_string@DU?$char_traits@D@std@@V?$allocator@D@2@@std@@XZ 429216b9 f i dll.obj
 0001:000206b9       ?GetCurve@?$DL_GroupParameters_EC@VEC2N@CryptoPP@@@CryptoPP@@QBEABVEC2N@2@XZ 429216b9 f i dll.obj
 0001:000206bd       ??8?$DL_GroupParameters_EC@VEC2N@CryptoPP@@@CryptoPP@@QBE_NABV01@@Z 429216bd f i dll.obj
 0001:0002070a       ?FieldElementLength@?$DL_GroupParameters_EC@VEC2N@CryptoPP@@@CryptoPP@@IBEIXZ 4292170a f i dll.obj
 0001:00020717       ?ExponentLength@?$DL_GroupParameters_EC@VEC2N@CryptoPP@@@CryptoPP@@IBEIXZ 42921717 f i dll.obj
 0001:00020722       ?GetSubgroupGenerator@?$DL_GroupParameters@UECPPoint@CryptoPP@@@CryptoPP@@UBEABUECPPoint@2@XZ 42921722 f i dll.obj
 0001:00020722       ?GetSubgroupGenerator@?$DL_GroupParameters@UEC2NPoint@CryptoPP@@@CryptoPP@@UBEABUEC2NPoint@2@XZ 42921722 f i dll.obj
 0001:00020722       ?GetSubgroupGenerator@?$DL_GroupParameters@VInteger@CryptoPP@@@CryptoPP@@UBEABVInteger@2@XZ 42921722 f i dll.obj
 0001:00020741       ?ExponentiateElement@?$DL_GroupParameters@UEC2NPoint@CryptoPP@@@CryptoPP@@UBE?AUEC2NPoint@2@ABU32@ABVInteger@2@@Z 42921741 f i dll.obj
 0001:000207b6       ?GetGroupOrder@?$DL_GroupParameters@UEC2NPoint@CryptoPP@@@CryptoPP@@UBE?AVInteger@2@XZ 429217b6 f i dll.obj
 0001:00020815       ?GetCofactor@?$DL_GroupParameters@UEC2NPoint@CryptoPP@@@CryptoPP@@UBE?AVInteger@2@XZ 42921815 f i dll.obj
 0001:00020878       ?Validate@?$DL_PublicKeyImpl@V?$DL_GroupParameters_EC@VECP@CryptoPP@@@CryptoPP@@@CryptoPP@@UBE_NAAVRandomNumberGenerator@2@I@Z 42921878 f i dll.obj
 0001:000208d9       ?GetVoidValue@?$DL_PublicKeyImpl@V?$DL_GroupParameters_EC@VECP@CryptoPP@@@CryptoPP@@@CryptoPP@@UBE_NPBDABVtype_info@@PAX@Z 429218d9 f i dll.obj
 0001:00020916       ?AssignFrom@?$DL_PublicKeyImpl@V?$DL_GroupParameters_EC@VECP@CryptoPP@@@CryptoPP@@@CryptoPP@@UAEXABVNameValuePairs@2@@Z 42921916 f i dll.obj
 0001:00020932       ?Precompute@?$DL_PublicKeyImpl@V?$DL_GroupParameters_EC@VECP@CryptoPP@@@CryptoPP@@@CryptoPP@@UAEXI@Z 42921932 f i dll.obj
 0001:0002099c       ?LoadPrecomputation@?$DL_PublicKeyImpl@V?$DL_GroupParameters_EC@VECP@CryptoPP@@@CryptoPP@@@CryptoPP@@UAEXAAVBufferedTransformation@2@@Z 4292199c f i dll.obj
 0001:000209ed       ?SavePrecomputation@?$DL_PublicKeyImpl@V?$DL_GroupParameters_EC@VECP@CryptoPP@@@CryptoPP@@@CryptoPP@@UBEXAAVBufferedTransformation@2@@Z 429219ed f i dll.obj
 0001:00020a3d       ?GetPublicPrecomputation@?$DL_PublicKeyImpl@V?$DL_GroupParameters_EC@VECP@CryptoPP@@@CryptoPP@@@CryptoPP@@UBEABV?$DL_FixedBasePrecomputation@UECPPoint@CryptoPP@@@2@XZ 42921a3d f i dll.obj
 0001:00020a3d       ?AccessPublicPrecomputation@?$DL_PublicKeyImpl@V?$DL_GroupParameters_EC@VECP@CryptoPP@@@CryptoPP@@@CryptoPP@@UAEAAV?$DL_FixedBasePrecomputation@UECPPoint@CryptoPP@@@2@XZ 42921a3d f i dll.obj
 0001:00020a44       ??8?$DL_PublicKeyImpl@V?$DL_GroupParameters_EC@VECP@CryptoPP@@@CryptoPP@@@CryptoPP@@QBE_NABV01@@Z 42921a44 f i dll.obj
 0001:00020a82       ?SetPublicElement@?$DL_PublicKey@UECPPoint@CryptoPP@@@CryptoPP@@UAEXABUECPPoint@2@@Z 42921a82 f i dll.obj
 0001:00020a82       ?SetPublicElement@?$DL_PublicKey@UEC2NPoint@CryptoPP@@@CryptoPP@@UAEXABUEC2NPoint@2@@Z 42921a82 f i dll.obj
 0001:00020a82       ?SetPublicElement@?$DL_PublicKey@VInteger@CryptoPP@@@CryptoPP@@UAEXABVInteger@2@@Z 42921a82 f i dll.obj
 0001:00020aaf       ?GetAlgorithmID@?$DL_KeyImpl@VX509PublicKey@CryptoPP@@V?$DL_GroupParameters_EC@VEC2N@CryptoPP@@@2@VOID@2@@CryptoPP@@UBE?AVOID@2@XZ 42921aaf f i dll.obj
 0001:00020aaf       ?GetAlgorithmID@?$DL_KeyImpl@VX509PublicKey@CryptoPP@@V?$DL_GroupParameters_EC@VECP@CryptoPP@@@2@VOID@2@@CryptoPP@@UBE?AVOID@2@XZ 42921aaf f i dll.obj
 0001:00020ac9       ?BERDecodeAlgorithmParameters@?$DL_KeyImpl@VX509PublicKey@CryptoPP@@V?$DL_GroupParameters_EC@VECP@CryptoPP@@@2@VOID@2@@CryptoPP@@UAE_NAAVBufferedTransformation@2@@Z 42921ac9 f i dll.obj
 0001:00020ada       ?DEREncodeAlgorithmParameters@?$DL_KeyImpl@VX509PublicKey@CryptoPP@@V?$DL_GroupParameters_EC@VECP@CryptoPP@@@2@VOID@2@@CryptoPP@@UBE_NAAVBufferedTransformation@2@@Z 42921ada f i dll.obj
 0001:00020aeb       ?Validate@?$DL_PublicKeyImpl@V?$DL_GroupParameters_EC@VEC2N@CryptoPP@@@CryptoPP@@@CryptoPP@@UBE_NAAVRandomNumberGenerator@2@I@Z 42921aeb f i dll.obj
 0001:00020b4c       ?GetVoidValue@?$DL_PublicKeyImpl@V?$DL_GroupParameters_EC@VEC2N@CryptoPP@@@CryptoPP@@@CryptoPP@@UBE_NPBDABVtype_info@@PAX@Z 42921b4c f i dll.obj
 0001:00020b89       ?AssignFrom@?$DL_PublicKeyImpl@V?$DL_GroupParameters_EC@VEC2N@CryptoPP@@@CryptoPP@@@CryptoPP@@UAEXABVNameValuePairs@2@@Z 42921b89 f i dll.obj
 0001:00020ba5       ?Precompute@?$DL_PublicKeyImpl@V?$DL_GroupParameters_EC@VEC2N@CryptoPP@@@CryptoPP@@@CryptoPP@@UAEXI@Z 42921ba5 f i dll.obj
 0001:00020c0f       ?LoadPrecomputation@?$DL_PublicKeyImpl@V?$DL_GroupParameters_EC@VEC2N@CryptoPP@@@CryptoPP@@@CryptoPP@@UAEXAAVBufferedTransformation@2@@Z 42921c0f f i dll.obj
 0001:00020c60       ?SavePrecomputation@?$DL_PublicKeyImpl@V?$DL_GroupParameters_EC@VEC2N@CryptoPP@@@CryptoPP@@@CryptoPP@@UBEXAAVBufferedTransformation@2@@Z 42921c60 f i dll.obj
 0001:00020cb0       ?AccessPublicPrecomputation@?$DL_PublicKeyImpl@V?$DL_GroupParameters_EC@VEC2N@CryptoPP@@@CryptoPP@@@CryptoPP@@UAEAAV?$DL_FixedBasePrecomputation@UEC2NPoint@CryptoPP@@@2@XZ 42921cb0 f i dll.obj
 0001:00020cb0       ?GetPublicPrecomputation@?$DL_PublicKeyImpl@V?$DL_GroupParameters_EC@VEC2N@CryptoPP@@@CryptoPP@@@CryptoPP@@UBEABV?$DL_FixedBasePrecomputation@UEC2NPoint@CryptoPP@@@2@XZ 42921cb0 f i dll.obj
 0001:00020cb7       ??8?$DL_PublicKeyImpl@V?$DL_GroupParameters_EC@VEC2N@CryptoPP@@@CryptoPP@@@CryptoPP@@QBE_NABV01@@Z 42921cb7 f i dll.obj
 0001:00020cf5       ?ExponentiatePublicElement@?$DL_PublicKey@UEC2NPoint@CryptoPP@@@CryptoPP@@UBE?AUEC2NPoint@2@ABVInteger@2@@Z 42921cf5 f i dll.obj
 0001:00020cf5       ?ExponentiatePublicElement@?$DL_PublicKey@VInteger@CryptoPP@@@CryptoPP@@UBE?AVInteger@2@ABV32@@Z 42921cf5 f i dll.obj
 0001:00020cf5       ?ExponentiatePublicElement@?$DL_PublicKey@UECPPoint@CryptoPP@@@CryptoPP@@UBE?AUECPPoint@2@ABVInteger@2@@Z 42921cf5 f i dll.obj
 0001:00020d30       ?CascadeExponentiateBaseAndPublicElement@?$DL_PublicKey@UECPPoint@CryptoPP@@@CryptoPP@@UBE?AUECPPoint@2@ABVInteger@2@0@Z 42921d30 f i dll.obj
 0001:00020d30       ?CascadeExponentiateBaseAndPublicElement@?$DL_PublicKey@UEC2NPoint@CryptoPP@@@CryptoPP@@UBE?AUEC2NPoint@2@ABVInteger@2@0@Z 42921d30 f i dll.obj
 0001:00020d30       ?CascadeExponentiateBaseAndPublicElement@?$DL_PublicKey@VInteger@CryptoPP@@@CryptoPP@@UBE?AVInteger@2@ABV32@0@Z 42921d30 f i dll.obj
 0001:00020d7c       ?BERDecodeAlgorithmParameters@?$DL_KeyImpl@VX509PublicKey@CryptoPP@@V?$DL_GroupParameters_EC@VEC2N@CryptoPP@@@2@VOID@2@@CryptoPP@@UAE_NAAVBufferedTransformation@2@@Z 42921d7c f i dll.obj
 0001:00020d8d       ?DEREncodeAlgorithmParameters@?$DL_KeyImpl@VX509PublicKey@CryptoPP@@V?$DL_GroupParameters_EC@VEC2N@CryptoPP@@@2@VOID@2@@CryptoPP@@UBE_NAAVBufferedTransformation@2@@Z 42921d8d f i dll.obj
 0001:00020d9e       ?Initialize@?$DL_PublicKey_EC@VECP@CryptoPP@@@CryptoPP@@QAEXABV?$DL_GroupParameters_EC@VECP@CryptoPP@@@2@ABUECPPoint@2@@Z 42921d9e f i dll.obj
 0001:00020dbc       ?Initialize@?$DL_PublicKey_EC@VECP@CryptoPP@@@CryptoPP@@QAEXABVECP@2@ABUECPPoint@2@ABVInteger@2@1@Z 42921dbc f i dll.obj
 0001:00020e0e       ?Initialize@?$DL_PublicKey_EC@VEC2N@CryptoPP@@@CryptoPP@@QAEXABV?$DL_GroupParameters_EC@VEC2N@CryptoPP@@@2@ABUEC2NPoint@2@@Z 42921e0e f i dll.obj
 0001:00020e2c       ?Initialize@?$DL_PublicKey_EC@VEC2N@CryptoPP@@@CryptoPP@@QAEXABVEC2N@2@ABUEC2NPoint@2@ABVInteger@2@1@Z 42921e2c f i dll.obj
 0001:00020e7e       ?Validate@?$DL_PrivateKeyImpl@V?$DL_GroupParameters_EC@VECP@CryptoPP@@@CryptoPP@@@CryptoPP@@UBE_NAAVRandomNumberGenerator@2@I@Z 42921e7e f i dll.obj
 0001:00020f4e       ?GetVoidValue@?$DL_PrivateKeyImpl@V?$DL_GroupParameters_EC@VECP@CryptoPP@@@CryptoPP@@@CryptoPP@@UBE_NPBDABVtype_info@@PAX@Z 42921f4e f i dll.obj
 0001:00020f8b       ?AssignFrom@?$DL_PrivateKeyImpl@V?$DL_GroupParameters_EC@VECP@CryptoPP@@@CryptoPP@@@CryptoPP@@UAEXABVNameValuePairs@2@@Z 42921f8b f i dll.obj
 0001:00020fa7       ?GenerateRandom@?$DL_PrivateKeyImpl@V?$DL_GroupParameters_EC@VECP@CryptoPP@@@CryptoPP@@@CryptoPP@@UAEXAAVRandomNumberGenerator@2@ABVNameValuePairs@2@@Z 42921fa7 f i dll.obj
 0001:00021049       ?Precompute@?$DL_PrivateKeyImpl@V?$DL_GroupParameters_EC@VECP@CryptoPP@@@CryptoPP@@@CryptoPP@@UAEXI@Z 42922049 f i dll.obj
 0001:0002106e       ?LoadPrecomputation@?$DL_PrivateKeyImpl@V?$DL_GroupParameters_EC@VECP@CryptoPP@@@CryptoPP@@@CryptoPP@@UAEXAAVBufferedTransformation@2@@Z 4292206e f i dll.obj
 0001:00021093       ?SavePrecomputation@?$DL_PrivateKeyImpl@V?$DL_GroupParameters_EC@VECP@CryptoPP@@@CryptoPP@@@CryptoPP@@UBEXAAVBufferedTransformation@2@@Z 42922093 f i dll.obj
 0001:000210b7       ?GetPrivateExponent@?$DL_PrivateKeyImpl@V?$DL_GroupParameters_EC@VECP@CryptoPP@@@CryptoPP@@@CryptoPP@@UBEABVInteger@2@XZ 429220b7 f i dll.obj
 0001:000210be       ?SetPrivateExponent@?$DL_PrivateKeyImpl@V?$DL_GroupParameters_EC@VECP@CryptoPP@@@CryptoPP@@@CryptoPP@@UAEXABVInteger@2@@Z 429220be f i dll.obj
 0001:000210d0       ?BERDecodePrivateKey@?$DL_PrivateKeyImpl@V?$DL_GroupParameters_EC@VECP@CryptoPP@@@CryptoPP@@@CryptoPP@@UAEXAAVBufferedTransformation@2@_NI@Z 429220d0 f i dll.obj
 0001:000210e6       ?DEREncodePrivateKey@?$DL_PrivateKeyImpl@V?$DL_GroupParameters_EC@VECP@CryptoPP@@@CryptoPP@@@CryptoPP@@UBEXAAVBufferedTransformation@2@@Z 429220e6 f i dll.obj
 0001:000210fc       ?BERDecodeAlgorithmParameters@?$DL_KeyImpl@VPKCS8PrivateKey@CryptoPP@@V?$DL_GroupParameters_EC@VECP@CryptoPP@@@2@VOID@2@@CryptoPP@@UAE_NAAVBufferedTransformation@2@@Z 429220fc f i dll.obj
 0001:0002110d       ?DEREncodeAlgorithmParameters@?$DL_KeyImpl@VPKCS8PrivateKey@CryptoPP@@V?$DL_GroupParameters_EC@VECP@CryptoPP@@@2@VOID@2@@CryptoPP@@UBE_NAAVBufferedTransformation@2@@Z 4292210d f i dll.obj
 0001:0002111e       ?Validate@?$DL_PrivateKeyImpl@V?$DL_GroupParameters_EC@VEC2N@CryptoPP@@@CryptoPP@@@CryptoPP@@UBE_NAAVRandomNumberGenerator@2@I@Z 4292211e f i dll.obj
 0001:000211ee       ?GetVoidValue@?$DL_PrivateKeyImpl@V?$DL_GroupParameters_EC@VEC2N@CryptoPP@@@CryptoPP@@@CryptoPP@@UBE_NPBDABVtype_info@@PAX@Z 429221ee f i dll.obj
 0001:0002122b       ?AssignFrom@?$DL_PrivateKeyImpl@V?$DL_GroupParameters_EC@VEC2N@CryptoPP@@@CryptoPP@@@CryptoPP@@UAEXABVNameValuePairs@2@@Z 4292222b f i dll.obj
 0001:00021247       ?GenerateRandom@?$DL_PrivateKeyImpl@V?$DL_GroupParameters_EC@VEC2N@CryptoPP@@@CryptoPP@@@CryptoPP@@UAEXAAVRandomNumberGenerator@2@ABVNameValuePairs@2@@Z 42922247 f i dll.obj
 0001:000212e9       ?Precompute@?$DL_PrivateKeyImpl@V?$DL_GroupParameters_EC@VEC2N@CryptoPP@@@CryptoPP@@@CryptoPP@@UAEXI@Z 429222e9 f i dll.obj
 0001:0002130e       ?LoadPrecomputation@?$DL_PrivateKeyImpl@V?$DL_GroupParameters_EC@VEC2N@CryptoPP@@@CryptoPP@@@CryptoPP@@UAEXAAVBufferedTransformation@2@@Z 4292230e f i dll.obj
 0001:00021333       ?SavePrecomputation@?$DL_PrivateKeyImpl@V?$DL_GroupParameters_EC@VEC2N@CryptoPP@@@CryptoPP@@@CryptoPP@@UBEXAAVBufferedTransformation@2@@Z 42922333 f i dll.obj
 0001:00021357       ?GetAbstractGroupParameters@?$DL_PrivateKeyImpl@V?$DL_GroupParameters_EC@VECP@CryptoPP@@@CryptoPP@@@CryptoPP@@UBEABV?$DL_GroupParameters@UECPPoint@CryptoPP@@@2@XZ 42922357 f i dll.obj
 0001:00021357       ?AccessAbstractGroupParameters@?$DL_PrivateKeyImpl@V?$DL_GroupParameters_EC@VECP@CryptoPP@@@CryptoPP@@@CryptoPP@@UAEAAV?$DL_GroupParameters@UECPPoint@CryptoPP@@@2@XZ 42922357 f i dll.obj
 0001:00021357       ?AccessAbstractGroupParameters@?$DL_PrivateKeyImpl@V?$DL_GroupParameters_EC@VEC2N@CryptoPP@@@CryptoPP@@@CryptoPP@@UAEAAV?$DL_GroupParameters@UEC2NPoint@CryptoPP@@@2@XZ 42922357 f i dll.obj
 0001:00021357       ?GetAbstractGroupParameters@?$DL_PrivateKeyImpl@V?$DL_GroupParameters_EC@VEC2N@CryptoPP@@@CryptoPP@@@CryptoPP@@UBEABV?$DL_GroupParameters@UEC2NPoint@CryptoPP@@@2@XZ 42922357 f i dll.obj
 0001:0002135b       ?GetPrivateExponent@?$DL_PrivateKeyImpl@V?$DL_GroupParameters_EC@VEC2N@CryptoPP@@@CryptoPP@@@CryptoPP@@UBEABVInteger@2@XZ 4292235b f i dll.obj
 0001:00021362       ?SetPrivateExponent@?$DL_PrivateKeyImpl@V?$DL_GroupParameters_EC@VEC2N@CryptoPP@@@CryptoPP@@@CryptoPP@@UAEXABVInteger@2@@Z 42922362 f i dll.obj
 0001:00021374       ?BERDecodePrivateKey@?$DL_PrivateKeyImpl@V?$DL_GroupParameters_EC@VEC2N@CryptoPP@@@CryptoPP@@@CryptoPP@@UAEXAAVBufferedTransformation@2@_NI@Z 42922374 f i dll.obj
 0001:0002138a       ?DEREncodePrivateKey@?$DL_PrivateKeyImpl@V?$DL_GroupParameters_EC@VEC2N@CryptoPP@@@CryptoPP@@@CryptoPP@@UBEXAAVBufferedTransformation@2@@Z 4292238a f i dll.obj
 0001:000213a0       ?GetAlgorithmID@?$DL_KeyImpl@VPKCS8PrivateKey@CryptoPP@@V?$DL_GroupParameters_EC@VEC2N@CryptoPP@@@2@VOID@2@@CryptoPP@@UBE?AVOID@2@XZ 429223a0 f i dll.obj
 0001:000213a0       ?GetAlgorithmID@?$DL_KeyImpl@VPKCS8PrivateKey@CryptoPP@@V?$DL_GroupParameters_EC@VECP@CryptoPP@@@2@VOID@2@@CryptoPP@@UBE?AVOID@2@XZ 429223a0 f i dll.obj
 0001:000213ba       ?BERDecodeAlgorithmParameters@?$DL_KeyImpl@VPKCS8PrivateKey@CryptoPP@@V?$DL_GroupParameters_EC@VEC2N@CryptoPP@@@2@VOID@2@@CryptoPP@@UAE_NAAVBufferedTransformation@2@@Z 429223ba f i dll.obj
 0001:000213cb       ?DEREncodeAlgorithmParameters@?$DL_KeyImpl@VPKCS8PrivateKey@CryptoPP@@V?$DL_GroupParameters_EC@VEC2N@CryptoPP@@@2@VOID@2@@CryptoPP@@UBE_NAAVBufferedTransformation@2@@Z 429223cb f i dll.obj
 0001:000213dc       ?Initialize@?$DL_PrivateKey_EC@VECP@CryptoPP@@@CryptoPP@@QAEXABV?$DL_GroupParameters_EC@VECP@CryptoPP@@@2@ABVInteger@2@@Z 429223dc f i dll.obj
 0001:000213fa       ?Initialize@?$DL_PrivateKey_EC@VECP@CryptoPP@@@CryptoPP@@QAEXABVECP@2@ABUECPPoint@2@ABVInteger@2@2@Z 429223fa f i dll.obj
 0001:0002144c       ?Initialize@?$DL_PrivateKey_EC@VECP@CryptoPP@@@CryptoPP@@QAEXAAVRandomNumberGenerator@2@ABV?$DL_GroupParameters_EC@VECP@CryptoPP@@@2@@Z 4292244c f i dll.obj
 0001:0002144c       ?Initialize@?$DL_PrivateKey_EC@VEC2N@CryptoPP@@@CryptoPP@@QAEXAAVRandomNumberGenerator@2@ABV?$DL_GroupParameters_EC@VEC2N@CryptoPP@@@2@@Z 4292244c f i dll.obj
 0001:0002146e       ?Initialize@?$DL_PrivateKey_EC@VECP@CryptoPP@@@CryptoPP@@QAEXAAVRandomNumberGenerator@2@ABVECP@2@ABUECPPoint@2@ABVInteger@2@@Z 4292246e f i dll.obj
 0001:000214d6       ?Initialize@?$DL_PrivateKey_EC@VEC2N@CryptoPP@@@CryptoPP@@QAEXABV?$DL_GroupParameters_EC@VEC2N@CryptoPP@@@2@ABVInteger@2@@Z 429224d6 f i dll.obj
 0001:000214f4       ?Initialize@?$DL_PrivateKey_EC@VEC2N@CryptoPP@@@CryptoPP@@QAEXABVEC2N@2@ABUEC2NPoint@2@ABVInteger@2@2@Z 429224f4 f i dll.obj
 0001:00021546       ?Initialize@?$DL_PrivateKey_EC@VEC2N@CryptoPP@@@CryptoPP@@QAEXAAVRandomNumberGenerator@2@ABVEC2N@2@ABUEC2NPoint@2@ABVInteger@2@@Z 42922546 f i dll.obj
 0001:000215ae       ?Sign@?$DL_Algorithm_GDSA@UECPPoint@CryptoPP@@@CryptoPP@@UBEXABV?$DL_GroupParameters@UECPPoint@CryptoPP@@@2@ABVInteger@2@11AAV42@2@Z 429225ae f i dll.obj
 0001:0002167f       ?Verify@?$DL_Algorithm_GDSA@UECPPoint@CryptoPP@@@CryptoPP@@UBE_NABV?$DL_GroupParameters@UECPPoint@CryptoPP@@@2@ABV?$DL_PublicKey@UECPPoint@CryptoPP@@@2@ABVInteger@2@22@Z 4292267f f i dll.obj
 0001:0002186f       ?RecoverPresignature@?$DL_ElgamalLikeSignatureAlgorithm@UECPPoint@CryptoPP@@@CryptoPP@@UBE?AVInteger@2@ABV?$DL_GroupParameters@UECPPoint@CryptoPP@@@2@ABV?$DL_PublicKey@UECPPoint@CryptoPP@@@2@ABV32@2@Z 4292286f f i dll.obj
 0001:000218cb       ?RLen@?$DL_ElgamalLikeSignatureAlgorithm@UECPPoint@CryptoPP@@@CryptoPP@@UBEIABV?$DL_GroupParameters@UECPPoint@CryptoPP@@@2@@Z 429228cb f i dll.obj
 0001:000218cb       ?RLen@?$DL_ElgamalLikeSignatureAlgorithm@UEC2NPoint@CryptoPP@@@CryptoPP@@UBEIABV?$DL_GroupParameters@UEC2NPoint@CryptoPP@@@2@@Z 429228cb f i dll.obj
 0001:000218cb       ?SLen@?$DL_ElgamalLikeSignatureAlgorithm@VInteger@CryptoPP@@@CryptoPP@@UBEIABV?$DL_GroupParameters@VInteger@CryptoPP@@@2@@Z 429228cb f i dll.obj
 0001:000218cb       ?SLen@?$DL_ElgamalLikeSignatureAlgorithm@UECPPoint@CryptoPP@@@CryptoPP@@UBEIABV?$DL_GroupParameters@UECPPoint@CryptoPP@@@2@@Z 429228cb f i dll.obj
 0001:000218cb       ?SLen@?$DL_ElgamalLikeSignatureAlgorithm@UEC2NPoint@CryptoPP@@@CryptoPP@@UBEIABV?$DL_GroupParameters@UEC2NPoint@CryptoPP@@@2@@Z 429228cb f i dll.obj
 0001:000218cb       ?RLen@?$DL_ElgamalLikeSignatureAlgorithm@VInteger@CryptoPP@@@CryptoPP@@UBEIABV?$DL_GroupParameters@VInteger@CryptoPP@@@2@@Z 429228cb f i dll.obj
 0001:000218de       ?Sign@?$DL_Algorithm_GDSA@UEC2NPoint@CryptoPP@@@CryptoPP@@UBEXABV?$DL_GroupParameters@UEC2NPoint@CryptoPP@@@2@ABVInteger@2@11AAV42@2@Z 429228de f i dll.obj
 0001:000219af       ?Verify@?$DL_Algorithm_GDSA@UEC2NPoint@CryptoPP@@@CryptoPP@@UBE_NABV?$DL_GroupParameters@UEC2NPoint@CryptoPP@@@2@ABV?$DL_PublicKey@UEC2NPoint@CryptoPP@@@2@ABVInteger@2@22@Z 429229af f i dll.obj
 0001:00021b9f       ?RecoverPresignature@?$DL_ElgamalLikeSignatureAlgorithm@UEC2NPoint@CryptoPP@@@CryptoPP@@UBE?AVInteger@2@ABV?$DL_GroupParameters@UEC2NPoint@CryptoPP@@@2@ABV?$DL_PublicKey@UEC2NPoint@CryptoPP@@@2@ABV32@2@Z 42922b9f f i dll.obj
 0001:00021bfb       ?GenerateRandom@?$DL_PrivateKey_WithSignaturePairwiseConsistencyTest@V?$DL_PrivateKey_EC@VECP@CryptoPP@@@CryptoPP@@U?$ECDSA@VECP@CryptoPP@@VSHA256@2@@2@@CryptoPP@@UAEXAAVRandomNumberGenerator@2@ABVNameValuePairs@2@@Z 42922bfb f i dll.obj
 0001:00021ca7       ?GenerateRandom@?$DL_PrivateKey_WithSignaturePairwiseConsistencyTest@V?$DL_PrivateKey_EC@VEC2N@CryptoPP@@@CryptoPP@@U?$ECDSA@VEC2N@CryptoPP@@VSHA256@2@@2@@CryptoPP@@UAEXAAVRandomNumberGenerator@2@ABVNameValuePairs@2@@Z 42922ca7 f i dll.obj
 0001:00021d53       ??0?$SourceTemplate@VFileStore@CryptoPP@@@CryptoPP@@QAE@PAVBufferedTransformation@1@@Z 42922d53 f i dll.obj
 0001:00021da6       ?PumpAll2@?$SourceTemplate@VStringStore@CryptoPP@@@CryptoPP@@UAEI_N@Z 42922da6 f i dll.obj
 0001:00021da6       ?PumpAll2@?$SourceTemplate@VRandomNumberStore@CryptoPP@@@CryptoPP@@UAEI_N@Z 42922da6 f i dll.obj
 0001:00021da6       ?PumpAll2@?$SourceTemplate@VFileStore@CryptoPP@@@CryptoPP@@UAEI_N@Z 42922da6 f i dll.obj
 0001:00021dc7       ?GetAutoSignalPropagation@?$AutoSignaling@V?$InputRejecting@VBufferedTransformation@CryptoPP@@@CryptoPP@@@CryptoPP@@UBEHXZ 42922dc7 f i dll.obj
 0001:00021dc7       ?MandatoryBlockSize@BlockOrientedCipherModeBase@CryptoPP@@UBEIXZ 42922dc7 f i dll.obj
 0001:00021dc7       ?length@pcharNode@@UBEHXZ  42922dc7 f i dll.obj
 0001:00021dc7       ?front@?$deque@_KV?$allocator@_K@std@@@std@@QBEAB_KXZ 42922dc7 f i dll.obj
 0001:00021dc7       ?length@DNameStatusNode@@UBEHXZ 42922dc7 f i dll.obj
 0001:00021dc7       ?GetAutoSignalPropagation@?$AutoSignaling@VBufferedTransformation@CryptoPP@@@CryptoPP@@UBEHXZ 42922dc7 f i dll.obj
 0001:00021dc7       ?GetErrorType@Exception@CryptoPP@@QBE?AW4ErrorType@12@XZ 42922dc7 f i dll.obj
 0001:00021dcb       ??0?$deque@_KV?$allocator@_K@std@@@std@@QAE@ABV01@@Z 42922dcb f i dll.obj
 0001:00021e4f       ??1?$deque@_KV?$allocator@_K@std@@@std@@QAE@XZ 42922e4f f i dll.obj
 0001:00021e63       ??4?$deque@_KV?$allocator@_K@std@@@std@@QAEAAV01@ABV01@@Z 42922e63 f i dll.obj
 0001:00021ffe       ?push_back@?$deque@_KV?$allocator@_K@std@@@std@@QAEXAB_K@Z 42922ffe f i dll.obj
 0001:0002205f       ??0?$deque@IV?$allocator@I@std@@@std@@QAE@ABV01@@Z 4292305f f i dll.obj
 0001:000220e3       ??4?$deque@IV?$allocator@I@std@@@std@@QAEAAV01@ABV01@@Z 429230e3 f i dll.obj
 0001:0002226c       ??A?$deque@IV?$allocator@I@std@@@std@@QBEABII@Z 4292326c f i dll.obj
 0001:000222aa       ?push_back@?$deque@IV?$allocator@I@std@@@std@@QAEXABI@Z 429232aa f i dll.obj
 0001:0002230d       ?Flush@?$Unflushable@V?$Multichannel@VFilter@CryptoPP@@@CryptoPP@@@CryptoPP@@UAE_N_NH0@Z 4292330d f i dll.obj
 0001:0002230d       ?Flush@?$Multichannel@VSink@CryptoPP@@@CryptoPP@@UAE_N_NH0@Z 4292330d f i dll.obj
 0001:0002230d       ?Flush@?$Unflushable@VFilter@CryptoPP@@@CryptoPP@@UAE_N_NH0@Z 4292330d f i dll.obj
 0001:00022329       ?ChannelFlush@?$Unflushable@V?$Multichannel@VFilter@CryptoPP@@@CryptoPP@@@CryptoPP@@UAE_NABV?$basic_string@DU?$char_traits@D@std@@V?$allocator@D@2@@std@@_NH1@Z 42923329 f i dll.obj
 0001:000223d5       ?Put2@?$Multichannel@VSink@CryptoPP@@@CryptoPP@@UAEIPBEIH_N@Z 429233d5 f i dll.obj
 0001:000223d5       ?Put2@?$Multichannel@VFilter@CryptoPP@@@CryptoPP@@UAEIPBEIH_N@Z 429233d5 f i dll.obj
 0001:000223f5       ?ChannelCreatePutSpace@?$Multichannel@VFilter@CryptoPP@@@CryptoPP@@UAEPAEABV?$basic_string@DU?$char_traits@D@std@@V?$allocator@D@2@@std@@AAI@Z 429233f5 f i dll.obj
 0001:00022401       ?ChannelPutModifiable2@?$Multichannel@VFilter@CryptoPP@@@CryptoPP@@UAEIABV?$basic_string@DU?$char_traits@D@std@@V?$allocator@D@2@@std@@PAEIH_N@Z 42923401 f i dll.obj
 0001:0002241f       ?StaticAlgorithmName@?$OAEP@VSHA1@CryptoPP@@VP1363_MGF1@2@@CryptoPP@@SA?AV?$basic_string@DU?$char_traits@D@std@@V?$allocator@D@2@@std@@XZ 4292341f f i dll.obj
 0001:000224f2       ?NewHash@?$OAEP@VSHA1@CryptoPP@@VP1363_MGF1@2@@CryptoPP@@MBEPAVHashTransformation@2@XZ 429234f2 f i dll.obj
 0001:00022545       ?NewMGF@?$OAEP@VSHA1@CryptoPP@@VP1363_MGF1@2@@CryptoPP@@MBEPAVMaskGeneratingFunction@2@XZ 42923545 f i dll.obj
 0001:0002256a       ?GenerateAndMask@P1363_MGF1@CryptoPP@@UBEXAAVHashTransformation@2@PAEIPBEI_N@Z 4292356a f i dll.obj
 0001:00022590       ??0?$SecBlock@EV?$FixedSizeAllocatorWithCleanup@E$0KAA@V?$NullAllocator@E@CryptoPP@@$0A@@CryptoPP@@@CryptoPP@@QAE@ABV01@@Z 42923590 f i dll.obj
 0001:000225e4       ??1?$SecBlock@EV?$FixedSizeAllocatorWithCleanup@E$0KAA@V?$NullAllocator@E@CryptoPP@@$0A@@CryptoPP@@@CryptoPP@@QAE@XZ 429235e4 f i dll.obj
 0001:00022604       ??0?$DL_GroupParametersImpl@V?$EcPrecomputation@VECP@CryptoPP@@@CryptoPP@@V?$DL_FixedBasePrecomputationImpl@UECPPoint@CryptoPP@@@2@V?$DL_GroupParameters@UECPPoint@CryptoPP@@@2@@CryptoPP@@QAE@XZ 42923604 f i dll.obj
 0001:00022686       ??0?$DL_GroupParametersImpl@V?$EcPrecomputation@VEC2N@CryptoPP@@@CryptoPP@@V?$DL_FixedBasePrecomputationImpl@UEC2NPoint@CryptoPP@@@2@V?$DL_GroupParameters@UEC2NPoint@CryptoPP@@@2@@CryptoPP@@QAE@XZ 42923686 f i dll.obj
 0001:00022711       ??1?$PK_FinalTemplate@V?$DL_SignerImpl@U?$DL_SignatureSchemeOptions@V?$DL_SS@U?$DL_Keys_ECDSA@VECP@CryptoPP@@@CryptoPP@@V?$DL_Algorithm_ECDSA@VECP@CryptoPP@@@2@VDL_SignatureMessageEncodingMethod_DSA@2@VSHA256@2@H@CryptoPP@@U?$DL_Keys_ECDSA@VECP@CryptoPP@@@2@V?$DL_Algorithm_ECDSA@VECP@CryptoPP@@@2@VDL_SignatureMessageEncodingMethod_DSA@2@VSHA256@2@@CryptoPP@@@CryptoPP@@@CryptoPP@@UAE@XZ 42923711 f i dll.obj
 0001:0002274b       ??1?$PK_FinalTemplate@V?$DL_VerifierImpl@U?$DL_SignatureSchemeOptions@V?$DL_SS@U?$DL_Keys_ECDSA@VECP@CryptoPP@@@CryptoPP@@V?$DL_Algorithm_ECDSA@VECP@CryptoPP@@@2@VDL_SignatureMessageEncodingMethod_DSA@2@VSHA256@2@H@CryptoPP@@U?$DL_Keys_ECDSA@VECP@CryptoPP@@@2@V?$DL_Algorithm_ECDSA@VECP@CryptoPP@@@2@VDL_SignatureMessageEncodingMethod_DSA@2@VSHA256@2@@CryptoPP@@@CryptoPP@@@CryptoPP@@UAE@XZ 4292374b f i dll.obj
 0001:0002274b       ??1?$DL_VerifierImpl@U?$DL_SignatureSchemeOptions@V?$DL_SS@U?$DL_Keys_ECDSA@VECP@CryptoPP@@@CryptoPP@@V?$DL_Algorithm_ECDSA@VECP@CryptoPP@@@2@VDL_SignatureMessageEncodingMethod_DSA@2@VSHA256@2@H@CryptoPP@@U?$DL_Keys_ECDSA@VECP@CryptoPP@@@2@V?$DL_Algorithm_ECDSA@VECP@CryptoPP@@@2@VDL_SignatureMessageEncodingMethod_DSA@2@VSHA256@2@@CryptoPP@@@CryptoPP@@UAE@XZ 4292374b f i dll.obj
 0001:00022750       ??1?$PK_FinalTemplate@V?$DL_SignerImpl@U?$DL_SignatureSchemeOptions@V?$DL_SS@U?$DL_Keys_ECDSA@VEC2N@CryptoPP@@@CryptoPP@@V?$DL_Algorithm_ECDSA@VEC2N@CryptoPP@@@2@VDL_SignatureMessageEncodingMethod_DSA@2@VSHA256@2@H@CryptoPP@@U?$DL_Keys_ECDSA@VEC2N@CryptoPP@@@2@V?$DL_Algorithm_ECDSA@VEC2N@CryptoPP@@@2@VDL_SignatureMessageEncodingMethod_DSA@2@VSHA256@2@@CryptoPP@@@CryptoPP@@@CryptoPP@@UAE@XZ 42923750 f i dll.obj
 0001:0002278a       ??1?$DL_VerifierImpl@U?$DL_SignatureSchemeOptions@V?$DL_SS@U?$DL_Keys_ECDSA@VEC2N@CryptoPP@@@CryptoPP@@V?$DL_Algorithm_ECDSA@VEC2N@CryptoPP@@@2@VDL_SignatureMessageEncodingMethod_DSA@2@VSHA256@2@H@CryptoPP@@U?$DL_Keys_ECDSA@VEC2N@CryptoPP@@@2@V?$DL_Algorithm_ECDSA@VEC2N@CryptoPP@@@2@VDL_SignatureMessageEncodingMethod_DSA@2@VSHA256@2@@CryptoPP@@@CryptoPP@@UAE@XZ 4292378a f i dll.obj
 0001:0002278a       ??1?$PK_FinalTemplate@V?$DL_VerifierImpl@U?$DL_SignatureSchemeOptions@V?$DL_SS@U?$DL_Keys_ECDSA@VEC2N@CryptoPP@@@CryptoPP@@V?$DL_Algorithm_ECDSA@VEC2N@CryptoPP@@@2@VDL_SignatureMessageEncodingMethod_DSA@2@VSHA256@2@H@CryptoPP@@U?$DL_Keys_ECDSA@VEC2N@CryptoPP@@@2@V?$DL_Algorithm_ECDSA@VEC2N@CryptoPP@@@2@VDL_SignatureMessageEncodingMethod_DSA@2@VSHA256@2@@CryptoPP@@@CryptoPP@@@CryptoPP@@UAE@XZ 4292378a f i dll.obj
 0001:0002278f       ??_E?$SourceTemplate@VFileStore@CryptoPP@@@CryptoPP@@UAEPAXI@Z 4292378f f i dll.obj
 0001:0002278f       ??_G?$SourceTemplate@VFileStore@CryptoPP@@@CryptoPP@@UAEPAXI@Z 4292378f f i dll.obj
 0001:000227ac       ??_EMultiplicativeGroupT@?$AbstractRing@VPolynomialMod2@CryptoPP@@@CryptoPP@@UAEPAXI@Z 429237ac f i dll.obj
 0001:000227ac       ??_GMultiplicativeGroupT@?$AbstractRing@VPolynomialMod2@CryptoPP@@@CryptoPP@@UAEPAXI@Z 429237ac f i dll.obj
 0001:000227c9       ??_EP1363_MGF1@CryptoPP@@UAEPAXI@Z 429237c9 f i dll.obj
 0001:000227c9       ??_GP1363_MGF1@CryptoPP@@UAEPAXI@Z 429237c9 f i dll.obj
 0001:000227e6       ??1?$DL_ObjectImplBase@V?$DL_SignerBase@UECPPoint@CryptoPP@@@CryptoPP@@U?$DL_SignatureSchemeOptions@V?$DL_SS@U?$DL_Keys_ECDSA@VECP@CryptoPP@@@CryptoPP@@V?$DL_Algorithm_ECDSA@VECP@CryptoPP@@@2@VDL_SignatureMessageEncodingMethod_DSA@2@VSHA256@2@H@CryptoPP@@U?$DL_Keys_ECDSA@VECP@CryptoPP@@@2@V?$DL_Algorithm_ECDSA@VECP@CryptoPP@@@2@VDL_SignatureMessageEncodingMethod_DSA@2@VSHA256@2@@2@V?$DL_PrivateKey_WithSignaturePairwiseConsistencyTest@V?$DL_PrivateKey_EC@VECP@CryptoPP@@@CryptoPP@@U?$ECDSA@VECP@CryptoPP@@VSHA256@2@@2@@2@@CryptoPP@@UAE@XZ 429237e6 f i dll.obj
 0001:0002280c       ??1?$DL_ObjectImplBase@V?$DL_VerifierBase@UECPPoint@CryptoPP@@@CryptoPP@@U?$DL_SignatureSchemeOptions@V?$DL_SS@U?$DL_Keys_ECDSA@VECP@CryptoPP@@@CryptoPP@@V?$DL_Algorithm_ECDSA@VECP@CryptoPP@@@2@VDL_SignatureMessageEncodingMethod_DSA@2@VSHA256@2@H@CryptoPP@@U?$DL_Keys_ECDSA@VECP@CryptoPP@@@2@V?$DL_Algorithm_ECDSA@VECP@CryptoPP@@@2@VDL_SignatureMessageEncodingMethod_DSA@2@VSHA256@2@@2@V?$DL_PublicKey_EC@VECP@CryptoPP@@@2@@CryptoPP@@UAE@XZ 4292380c f i dll.obj
 0001:00022832       ??1?$DL_ObjectImplBase@V?$DL_SignerBase@UEC2NPoint@CryptoPP@@@CryptoPP@@U?$DL_SignatureSchemeOptions@V?$DL_SS@U?$DL_Keys_ECDSA@VEC2N@CryptoPP@@@CryptoPP@@V?$DL_Algorithm_ECDSA@VEC2N@CryptoPP@@@2@VDL_SignatureMessageEncodingMethod_DSA@2@VSHA256@2@H@CryptoPP@@U?$DL_Keys_ECDSA@VEC2N@CryptoPP@@@2@V?$DL_Algorithm_ECDSA@VEC2N@CryptoPP@@@2@VDL_SignatureMessageEncodingMethod_DSA@2@VSHA256@2@@2@V?$DL_PrivateKey_WithSignaturePairwiseConsistencyTest@V?$DL_PrivateKey_EC@VEC2N@CryptoPP@@@CryptoPP@@U?$ECDSA@VEC2N@CryptoPP@@VSHA256@2@@2@@2@@CryptoPP@@UAE@XZ 42923832 f i dll.obj
 0001:00022858       ??1?$DL_ObjectImplBase@V?$DL_VerifierBase@UEC2NPoint@CryptoPP@@@CryptoPP@@U?$DL_SignatureSchemeOptions@V?$DL_SS@U?$DL_Keys_ECDSA@VEC2N@CryptoPP@@@CryptoPP@@V?$DL_Algorithm_ECDSA@VEC2N@CryptoPP@@@2@VDL_SignatureMessageEncodingMethod_DSA@2@VSHA256@2@H@CryptoPP@@U?$DL_Keys_ECDSA@VEC2N@CryptoPP@@@2@V?$DL_Algorithm_ECDSA@VEC2N@CryptoPP@@@2@VDL_SignatureMessageEncodingMethod_DSA@2@VSHA256@2@@2@V?$DL_PublicKey_EC@VEC2N@CryptoPP@@@2@@CryptoPP@@UAE@XZ 42923858 f i dll.obj
 0001:0002287e       ?CheckSize@?$AllocatorBase@G@CryptoPP@@KAXI@Z 4292387e f i dll.obj
 0001:000228ef       ?CheckSize@?$AllocatorBase@_K@CryptoPP@@KAXI@Z 429238ef f i dll.obj
 0001:00022960       ?pop_front@?$deque@_KV?$allocator@_K@std@@@std@@QAEXXZ 42923960 f i dll.obj
 0001:00022977       ?insert@?$deque@_KV?$allocator@_K@std@@@std@@QAEXViterator@12@IAB_K@Z 42923977 f i dll.obj
 0001:00022de0       ?erase@?$deque@_KV?$allocator@_K@std@@@std@@QAE?AViterator@12@V312@0@Z 42923de0 f i dll.obj
 0001:00022f38       ?_Buyback@?$deque@_KV?$allocator@_K@std@@@std@@IAEXXZ 42923f38 f i dll.obj
 0001:00023048       ?pop_front@?$deque@IV?$allocator@I@std@@@std@@QAEXXZ 42924048 f i dll.obj
 0001:0002305f       ?insert@?$deque@IV?$allocator@I@std@@@std@@QAEXViterator@12@IABI@Z 4292405f f i dll.obj
 0001:00023495       ?erase@?$deque@IV?$allocator@I@std@@@std@@QAE?AViterator@12@V312@0@Z 42924495 f i dll.obj
 0001:000235de       ?_Buyback@?$deque@IV?$allocator@I@std@@@std@@IAEXXZ 429245de f i dll.obj
 0001:000236ee       ??0?$SecBlock@EV?$FixedSizeAllocatorWithCleanup@E$0KAA@V?$NullAllocator@E@CryptoPP@@$0A@@CryptoPP@@@CryptoPP@@QAE@I@Z 429246ee f i dll.obj
 0001:00023721       ?Assign@?$SecBlock@EV?$FixedSizeAllocatorWithCleanup@E$0KAA@V?$NullAllocator@E@CryptoPP@@$0A@@CryptoPP@@@CryptoPP@@QAEXABV12@@Z 42924721 f i dll.obj
 0001:00023759       ?Assignable@?$GetValueHelperClass@V?$DL_PublicKeyImpl@V?$DL_GroupParameters_EC@VECP@CryptoPP@@@CryptoPP@@@CryptoPP@@V?$DL_PublicKey@UECPPoint@CryptoPP@@@2@@CryptoPP@@QAEAAV12@XZ 42924759 f i dll.obj
 0001:00023808       ?Assignable@?$GetValueHelperClass@V?$DL_PublicKeyImpl@V?$DL_GroupParameters_EC@VEC2N@CryptoPP@@@CryptoPP@@@CryptoPP@@V?$DL_PublicKey@UEC2NPoint@CryptoPP@@@2@@CryptoPP@@QAEAAV12@XZ 42924808 f i dll.obj
 0001:000238b7       ?Assignable@?$GetValueHelperClass@V?$DL_PrivateKeyImpl@V?$DL_GroupParameters_EC@VECP@CryptoPP@@@CryptoPP@@@CryptoPP@@V?$DL_PrivateKey@UECPPoint@CryptoPP@@@2@@CryptoPP@@QAEAAV12@XZ 429248b7 f i dll.obj
 0001:00023966       ?Assignable@?$GetValueHelperClass@V?$DL_PrivateKeyImpl@V?$DL_GroupParameters_EC@VEC2N@CryptoPP@@@CryptoPP@@@CryptoPP@@V?$DL_PrivateKey@UEC2NPoint@CryptoPP@@@2@@CryptoPP@@QAEAAV12@XZ 42924966 f i dll.obj
 0001:00023a15       ??0?$PK_FinalTemplate@V?$DL_SignerImpl@U?$DL_SignatureSchemeOptions@V?$DL_SS@U?$DL_Keys_ECDSA@VECP@CryptoPP@@@CryptoPP@@V?$DL_Algorithm_ECDSA@VECP@CryptoPP@@@2@VDL_SignatureMessageEncodingMethod_DSA@2@VSHA256@2@H@CryptoPP@@U?$DL_Keys_ECDSA@VECP@CryptoPP@@@2@V?$DL_Algorithm_ECDSA@VECP@CryptoPP@@@2@VDL_SignatureMessageEncodingMethod_DSA@2@VSHA256@2@@CryptoPP@@@CryptoPP@@@CryptoPP@@QAE@ABVCryptoMaterial@1@@Z 42924a15 f i dll.obj
 0001:00023a68       ??1?$DL_SignerImpl@U?$DL_SignatureSchemeOptions@V?$DL_SS@U?$DL_Keys_ECDSA@VECP@CryptoPP@@@CryptoPP@@V?$DL_Algorithm_ECDSA@VECP@CryptoPP@@@2@VDL_SignatureMessageEncodingMethod_DSA@2@VSHA256@2@H@CryptoPP@@U?$DL_Keys_ECDSA@VECP@CryptoPP@@@2@V?$DL_Algorithm_ECDSA@VECP@CryptoPP@@@2@VDL_SignatureMessageEncodingMethod_DSA@2@VSHA256@2@@CryptoPP@@@CryptoPP@@UAE@XZ 42924a68 f i dll.obj
 0001:00023aa2       ?NewSignatureAccumulator@?$DL_SignerImpl@U?$DL_SignatureSchemeOptions@V?$DL_SS@U?$DL_Keys_ECDSA@VECP@CryptoPP@@@CryptoPP@@V?$DL_Algorithm_ECDSA@VECP@CryptoPP@@@2@VDL_SignatureMessageEncodingMethod_DSA@2@VSHA256@2@H@CryptoPP@@U?$DL_Keys_ECDSA@VECP@CryptoPP@@@2@V?$DL_Algorithm_ECDSA@VECP@CryptoPP@@@2@VDL_SignatureMessageEncodingMethod_DSA@2@VSHA256@2@@CryptoPP@@@CryptoPP@@UBEPAVPK_MessageAccumulator@2@AAVRandomNumberGenerator@2@@Z 42924aa2 f i dll.obj
 0001:00023b06       ?AlgorithmName@?$AlgorithmImpl@V?$DL_SignerBase@UECPPoint@CryptoPP@@@CryptoPP@@V?$DL_SS@U?$DL_Keys_ECDSA@VECP@CryptoPP@@@CryptoPP@@V?$DL_Algorithm_ECDSA@VECP@CryptoPP@@@2@VDL_SignatureMessageEncodingMethod_DSA@2@VSHA256@2@H@2@@CryptoPP@@UBE?AV?$basic_string@DU?$char_traits@D@std@@V?$allocator@D@2@@std@@XZ 42924b06 f i dll.obj
 0001:00023b06       ?AlgorithmName@?$AlgorithmImpl@V?$DL_VerifierBase@UECPPoint@CryptoPP@@@CryptoPP@@V?$DL_SS@U?$DL_Keys_ECDSA@VECP@CryptoPP@@@CryptoPP@@V?$DL_Algorithm_ECDSA@VECP@CryptoPP@@@2@VDL_SignatureMessageEncodingMethod_DSA@2@VSHA256@2@H@2@@CryptoPP@@UBE?AV?$basic_string@DU?$char_traits@D@std@@V?$allocator@D@2@@std@@XZ 42924b06 f i dll.obj
 0001:00023b1e       ?InputRecoverableMessage@?$DL_SignerBase@UEC2NPoint@CryptoPP@@@CryptoPP@@UBEXAAVPK_MessageAccumulator@2@PBEI@Z 42924b1e f i dll.obj
 0001:00023b1e       ?InputRecoverableMessage@?$DL_SignerBase@UECPPoint@CryptoPP@@@CryptoPP@@UBEXAAVPK_MessageAccumulator@2@PBEI@Z 42924b1e f i dll.obj
 0001:00023b1e       ?InputRecoverableMessage@?$DL_SignerBase@VInteger@CryptoPP@@@CryptoPP@@UBEXAAVPK_MessageAccumulator@2@PBEI@Z 42924b1e f i dll.obj
 0001:00023b86       ?SignAndRestart@?$DL_SignerBase@UECPPoint@CryptoPP@@@CryptoPP@@UBEIAAVRandomNumberGenerator@2@AAVPK_MessageAccumulator@2@PAE_N@Z 42924b86 f i dll.obj
 0001:00023e3a       ?SignatureLength@?$DL_SignatureSchemeBase@VPK_Signer@CryptoPP@@V?$DL_PrivateKey@UEC2NPoint@CryptoPP@@@2@@CryptoPP@@UBEIXZ 42924e3a f i dll.obj
 0001:00023e3a       ?SignatureLength@?$DL_SignatureSchemeBase@VPK_Signer@CryptoPP@@V?$DL_PrivateKey@VInteger@CryptoPP@@@2@@CryptoPP@@UBEIXZ 42924e3a f i dll.obj
 0001:00023e3a       ?SignatureLength@?$DL_SignatureSchemeBase@VPK_Signer@CryptoPP@@V?$DL_PrivateKey@UECPPoint@CryptoPP@@@2@@CryptoPP@@UBEIXZ 42924e3a f i dll.obj
 0001:00023e8d       ?MaxRecoverableLength@?$DL_SignatureSchemeBase@VPK_Signer@CryptoPP@@V?$DL_PrivateKey@VInteger@CryptoPP@@@2@@CryptoPP@@UBEIXZ 42924e8d f i dll.obj
 0001:00023e8d       ?MaxRecoverableLength@?$DL_SignatureSchemeBase@VPK_Signer@CryptoPP@@V?$DL_PrivateKey@UEC2NPoint@CryptoPP@@@2@@CryptoPP@@UBEIXZ 42924e8d f i dll.obj
 0001:00023e8d       ?MaxRecoverableLength@?$DL_SignatureSchemeBase@VPK_Signer@CryptoPP@@V?$DL_PrivateKey@UECPPoint@CryptoPP@@@2@@CryptoPP@@UBEIXZ 42924e8d f i dll.obj
 0001:00023ec1       ??0?$PK_FinalTemplate@V?$DL_VerifierImpl@U?$DL_SignatureSchemeOptions@V?$DL_SS@U?$DL_Keys_ECDSA@VECP@CryptoPP@@@CryptoPP@@V?$DL_Algorithm_ECDSA@VECP@CryptoPP@@@2@VDL_SignatureMessageEncodingMethod_DSA@2@VSHA256@2@H@CryptoPP@@U?$DL_Keys_ECDSA@VECP@CryptoPP@@@2@V?$DL_Algorithm_ECDSA@VECP@CryptoPP@@@2@VDL_SignatureMessageEncodingMethod_DSA@2@VSHA256@2@@CryptoPP@@@CryptoPP@@@CryptoPP@@QAE@ABVAsymmetricAlgorithm@1@@Z 42924ec1 f i dll.obj
 0001:00023f13       ??0?$PK_FinalTemplate@V?$DL_SignerImpl@U?$DL_SignatureSchemeOptions@V?$DL_SS@U?$DL_Keys_ECDSA@VEC2N@CryptoPP@@@CryptoPP@@V?$DL_Algorithm_ECDSA@VEC2N@CryptoPP@@@2@VDL_SignatureMessageEncodingMethod_DSA@2@VSHA256@2@H@CryptoPP@@U?$DL_Keys_ECDSA@VEC2N@CryptoPP@@@2@V?$DL_Algorithm_ECDSA@VEC2N@CryptoPP@@@2@VDL_SignatureMessageEncodingMethod_DSA@2@VSHA256@2@@CryptoPP@@@CryptoPP@@@CryptoPP@@QAE@ABVCryptoMaterial@1@@Z 42924f13 f i dll.obj
 0001:00023f66       ??1?$DL_SignerImpl@U?$DL_SignatureSchemeOptions@V?$DL_SS@U?$DL_Keys_ECDSA@VEC2N@CryptoPP@@@CryptoPP@@V?$DL_Algorithm_ECDSA@VEC2N@CryptoPP@@@2@VDL_SignatureMessageEncodingMethod_DSA@2@VSHA256@2@H@CryptoPP@@U?$DL_Keys_ECDSA@VEC2N@CryptoPP@@@2@V?$DL_Algorithm_ECDSA@VEC2N@CryptoPP@@@2@VDL_SignatureMessageEncodingMethod_DSA@2@VSHA256@2@@CryptoPP@@@CryptoPP@@UAE@XZ 42924f66 f i dll.obj
 0001:00023fa0       ?NewSignatureAccumulator@?$DL_SignerImpl@U?$DL_SignatureSchemeOptions@V?$DL_SS@U?$DL_Keys_ECDSA@VEC2N@CryptoPP@@@CryptoPP@@V?$DL_Algorithm_ECDSA@VEC2N@CryptoPP@@@2@VDL_SignatureMessageEncodingMethod_DSA@2@VSHA256@2@H@CryptoPP@@U?$DL_Keys_ECDSA@VEC2N@CryptoPP@@@2@V?$DL_Algorithm_ECDSA@VEC2N@CryptoPP@@@2@VDL_SignatureMessageEncodingMethod_DSA@2@VSHA256@2@@CryptoPP@@@CryptoPP@@UBEPAVPK_MessageAccumulator@2@AAVRandomNumberGenerator@2@@Z 42924fa0 f i dll.obj
 0001:00024004       ?GetHashIdentifier@?$TF_ObjectImplBase@VTF_SignerBase@CryptoPP@@U?$TF_SignatureSchemeOptions@V?$TF_SS@UPSS@CryptoPP@@VSHA1@2@URSA@2@H@CryptoPP@@URSA@2@V?$PSSR_MEM@$0A@VP1363_MGF1@CryptoPP@@$0?0$0A@$0A@@2@VSHA1@2@@2@VInvertibleRSAFunction@2@@CryptoPP@@MBE?AU?$pair@PBEI@std@@XZ 42925004 f i dll.obj
 0001:00024004       ?GetHashIdentifier@?$DL_ObjectImpl@V?$DL_VerifierBase@UEC2NPoint@CryptoPP@@@CryptoPP@@U?$DL_SignatureSchemeOptions@V?$DL_SS@U?$DL_Keys_ECDSA@VEC2N@CryptoPP@@@CryptoPP@@V?$DL_Algorithm_ECDSA@VEC2N@CryptoPP@@@2@VDL_SignatureMessageEncodingMethod_DSA@2@VSHA256@2@H@CryptoPP@@U?$DL_Keys_ECDSA@VEC2N@CryptoPP@@@2@V?$DL_Algorithm_ECDSA@VEC2N@CryptoPP@@@2@VDL_SignatureMessageEncodingMethod_DSA@2@VSHA256@2@@2@V?$DL_PublicKey_EC@VEC2N@CryptoPP@@@2@@CryptoPP@@MBE?AU?$pair@PBEI@std@@XZ 42925004 f i dll.obj
 0001:00024004       ?GetHashIdentifier@?$DL_ObjectImpl@V?$DL_VerifierBase@VInteger@CryptoPP@@@CryptoPP@@U?$DL_SignatureSchemeOptions@UDSA@CryptoPP@@UDL_Keys_DSA@2@V?$DL_Algorithm_GDSA@VInteger@CryptoPP@@@2@VDL_SignatureMessageEncodingMethod_DSA@2@VSHA1@2@@2@V?$DL_PublicKey_GFP@VDL_GroupParameters_DSA@CryptoPP@@@2@@CryptoPP@@MBE?AU?$pair@PBEI@std@@XZ 42925004 f i dll.obj
 0001:00024004       ?GetHashIdentifier@?$DL_ObjectImpl@V?$DL_VerifierBase@UEC2NPoint@CryptoPP@@@CryptoPP@@U?$DL_SignatureSchemeOptions@V?$DL_SS@U?$DL_Keys_ECDSA@VEC2N@CryptoPP@@@CryptoPP@@V?$DL_Algorithm_ECDSA@VEC2N@CryptoPP@@@2@VDL_SignatureMessageEncodingMethod_DSA@2@VSHA1@2@H@CryptoPP@@U?$DL_Keys_ECDSA@VEC2N@CryptoPP@@@2@V?$DL_Algorithm_ECDSA@VEC2N@CryptoPP@@@2@VDL_SignatureMessageEncodingMethod_DSA@2@VSHA1@2@@2@V?$DL_PublicKey_EC@VEC2N@CryptoPP@@@2@@CryptoPP@@MBE?AU?$pair@PBEI@std@@XZ 42925004 f i dll.obj
 0001:00024004       ?GetHashIdentifier@?$DL_ObjectImpl@V?$DL_SignerBase@UECPPoint@CryptoPP@@@CryptoPP@@U?$DL_SignatureSchemeOptions@V?$DL_SS@U?$DL_Keys_ECDSA@VECP@CryptoPP@@@CryptoPP@@V?$DL_Algorithm_ECDSA@VECP@CryptoPP@@@2@VDL_SignatureMessageEncodingMethod_DSA@2@VSHA256@2@H@CryptoPP@@U?$DL_Keys_ECDSA@VECP@CryptoPP@@@2@V?$DL_Algorithm_ECDSA@VECP@CryptoPP@@@2@VDL_SignatureMessageEncodingMethod_DSA@2@VSHA256@2@@2@V?$DL_PrivateKey_WithSignaturePairwiseConsistencyTest@V?$DL_PrivateKey_EC@VECP@CryptoPP@@@CryptoPP@@U?$ECDSA@VECP@CryptoPP@@VSHA256@2@@2@@2@@CryptoPP@@MBE?AU?$pair@PBEI@std@@XZ 42925004 f i dll.obj
 0001:00024004       ?GetHashIdentifier@?$DL_ObjectImpl@V?$DL_SignerBase@UEC2NPoint@CryptoPP@@@CryptoPP@@U?$DL_SignatureSchemeOptions@V?$DL_SS@U?$DL_Keys_ECDSA@VEC2N@CryptoPP@@@CryptoPP@@V?$DL_Algorithm_ECDSA@VEC2N@CryptoPP@@@2@VDL_SignatureMessageEncodingMethod_DSA@2@VSHA256@2@H@CryptoPP@@U?$DL_Keys_ECDSA@VEC2N@CryptoPP@@@2@V?$DL_Algorithm_ECDSA@VEC2N@CryptoPP@@@2@VDL_SignatureMessageEncodingMethod_DSA@2@VSHA256@2@@2@V?$DL_PrivateKey_WithSignaturePairwiseConsistencyTest@V?$DL_PrivateKey_EC@VEC2N@CryptoPP@@@CryptoPP@@U?$ECDSA@VEC2N@CryptoPP@@VSHA256@2@@2@@2@@CryptoPP@@MBE?AU?$pair@PBEI@std@@XZ 42925004 f i dll.obj
 0001:00024004       ?GetHashIdentifier@?$DL_ObjectImpl@V?$DL_SignerBase@VInteger@CryptoPP@@@CryptoPP@@U?$DL_SignatureSchemeOptions@UDSA@CryptoPP@@UDL_Keys_DSA@2@V?$DL_Algorithm_GDSA@VInteger@CryptoPP@@@2@VDL_SignatureMessageEncodingMethod_DSA@2@VSHA1@2@@2@V?$DL_PrivateKey_WithSignaturePairwiseConsistencyTest@V?$DL_PrivateKey_GFP@VDL_GroupParameters_DSA@CryptoPP@@@CryptoPP@@UDSA@2@@2@@CryptoPP@@MBE?AU?$pair@PBEI@std@@XZ 42925004 f i dll.obj
 0001:00024004       ?GetHashIdentifier@?$DL_ObjectImpl@V?$DL_VerifierBase@UECPPoint@CryptoPP@@@CryptoPP@@U?$DL_SignatureSchemeOptions@V?$DL_SS@U?$DL_Keys_ECDSA@VECP@CryptoPP@@@CryptoPP@@V?$DL_Algorithm_ECDSA@VECP@CryptoPP@@@2@VDL_SignatureMessageEncodingMethod_DSA@2@VSHA1@2@H@CryptoPP@@U?$DL_Keys_ECDSA@VECP@CryptoPP@@@2@V?$DL_Algorithm_ECDSA@VECP@CryptoPP@@@2@VDL_SignatureMessageEncodingMethod_DSA@2@VSHA1@2@@2@V?$DL_PublicKey_EC@VECP@CryptoPP@@@2@@CryptoPP@@MBE?AU?$pair@PBEI@std@@XZ 42925004 f i dll.obj
 0001:00024004       ?GetHashIdentifier@?$DL_ObjectImpl@V?$DL_SignerBase@UECPPoint@CryptoPP@@@CryptoPP@@U?$DL_SignatureSchemeOptions@V?$DL_SS@U?$DL_Keys_ECDSA@VECP@CryptoPP@@@CryptoPP@@V?$DL_Algorithm_ECDSA@VECP@CryptoPP@@@2@VDL_SignatureMessageEncodingMethod_DSA@2@VSHA1@2@H@CryptoPP@@U?$DL_Keys_ECDSA@VECP@CryptoPP@@@2@V?$DL_Algorithm_ECDSA@VECP@CryptoPP@@@2@VDL_SignatureMessageEncodingMethod_DSA@2@VSHA1@2@@2@V?$DL_PrivateKey_WithSignaturePairwiseConsistencyTest@V?$DL_PrivateKey_EC@VECP@CryptoPP@@@CryptoPP@@U?$ECDSA@VECP@CryptoPP@@VSHA256@2@@2@@2@@CryptoPP@@MBE?AU?$pair@PBEI@std@@XZ 42925004 f i dll.obj
 0001:00024004       ?GetHashIdentifier@?$TF_ObjectImplBase@VTF_VerifierBase@CryptoPP@@U?$TF_SignatureSchemeOptions@V?$TF_SS@UPSS@CryptoPP@@VSHA1@2@URSA@2@H@CryptoPP@@URSA@2@V?$PSSR_MEM@$0A@VP1363_MGF1@CryptoPP@@$0?0$0A@$0A@@2@VSHA1@2@@2@VRSAFunction@2@@CryptoPP@@MBE?AU?$pair@PBEI@std@@XZ 42925004 f i dll.obj
 0001:00024004       ?GetHashIdentifier@?$DL_ObjectImpl@V?$DL_VerifierBase@UECPPoint@CryptoPP@@@CryptoPP@@U?$DL_SignatureSchemeOptions@V?$DL_SS@U?$DL_Keys_ECDSA@VECP@CryptoPP@@@CryptoPP@@V?$DL_Algorithm_ECDSA@VECP@CryptoPP@@@2@VDL_SignatureMessageEncodingMethod_DSA@2@VSHA256@2@H@CryptoPP@@U?$DL_Keys_ECDSA@VECP@CryptoPP@@@2@V?$DL_Algorithm_ECDSA@VECP@CryptoPP@@@2@VDL_SignatureMessageEncodingMethod_DSA@2@VSHA256@2@@2@V?$DL_PublicKey_EC@VECP@CryptoPP@@@2@@CryptoPP@@MBE?AU?$pair@PBEI@std@@XZ 42925004 f i dll.obj
 0001:00024004       ?GetHashIdentifier@?$DL_ObjectImpl@V?$DL_SignerBase@UEC2NPoint@CryptoPP@@@CryptoPP@@U?$DL_SignatureSchemeOptions@V?$DL_SS@U?$DL_Keys_ECDSA@VEC2N@CryptoPP@@@CryptoPP@@V?$DL_Algorithm_ECDSA@VEC2N@CryptoPP@@@2@VDL_SignatureMessageEncodingMethod_DSA@2@VSHA1@2@H@CryptoPP@@U?$DL_Keys_ECDSA@VEC2N@CryptoPP@@@2@V?$DL_Algorithm_ECDSA@VEC2N@CryptoPP@@@2@VDL_SignatureMessageEncodingMethod_DSA@2@VSHA1@2@@2@V?$DL_PrivateKey_WithSignaturePairwiseConsistencyTest@V?$DL_PrivateKey_EC@VEC2N@CryptoPP@@@CryptoPP@@U?$ECDSA@VEC2N@CryptoPP@@VSHA256@2@@2@@2@@CryptoPP@@MBE?AU?$pair@PBEI@std@@XZ 42925004 f i dll.obj
 0001:00024014       ?AlgorithmName@?$AlgorithmImpl@V?$DL_VerifierBase@UEC2NPoint@CryptoPP@@@CryptoPP@@V?$DL_SS@U?$DL_Keys_ECDSA@VEC2N@CryptoPP@@@CryptoPP@@V?$DL_Algorithm_ECDSA@VEC2N@CryptoPP@@@2@VDL_SignatureMessageEncodingMethod_DSA@2@VSHA256@2@H@2@@CryptoPP@@UBE?AV?$basic_string@DU?$char_traits@D@std@@V?$allocator@D@2@@std@@XZ 42925014 f i dll.obj
 0001:00024014       ?AlgorithmName@?$AlgorithmImpl@V?$DL_SignerBase@UEC2NPoint@CryptoPP@@@CryptoPP@@V?$DL_SS@U?$DL_Keys_ECDSA@VEC2N@CryptoPP@@@CryptoPP@@V?$DL_Algorithm_ECDSA@VEC2N@CryptoPP@@@2@VDL_SignatureMessageEncodingMethod_DSA@2@VSHA256@2@H@2@@CryptoPP@@UBE?AV?$basic_string@DU?$char_traits@D@std@@V?$allocator@D@2@@std@@XZ 42925014 f i dll.obj
 0001:0002402c       ?SignAndRestart@?$DL_SignerBase@UEC2NPoint@CryptoPP@@@CryptoPP@@UBEIAAVRandomNumberGenerator@2@AAVPK_MessageAccumulator@2@PAE_N@Z 4292502c f i dll.obj
 0001:000242e0       ?RecoverablePartFirst@?$DL_SignatureSchemeBase@VPK_Signer@CryptoPP@@V?$DL_PrivateKey@UECPPoint@CryptoPP@@@2@@CryptoPP@@UBE_NXZ 429252e0 f i dll.obj
 0001:000242e0       ?RecoverablePartFirst@?$DL_SignatureSchemeBase@VPK_Signer@CryptoPP@@V?$DL_PrivateKey@VInteger@CryptoPP@@@2@@CryptoPP@@UBE_NXZ 429252e0 f i dll.obj
 0001:000242e0       ?RecoverablePartFirst@?$DL_SignatureSchemeBase@VPK_Signer@CryptoPP@@V?$DL_PrivateKey@UEC2NPoint@CryptoPP@@@2@@CryptoPP@@UBE_NXZ 429252e0 f i dll.obj
 0001:000242ec       ??0?$PK_FinalTemplate@V?$DL_VerifierImpl@U?$DL_SignatureSchemeOptions@V?$DL_SS@U?$DL_Keys_ECDSA@VEC2N@CryptoPP@@@CryptoPP@@V?$DL_Algorithm_ECDSA@VEC2N@CryptoPP@@@2@VDL_SignatureMessageEncodingMethod_DSA@2@VSHA256@2@H@CryptoPP@@U?$DL_Keys_ECDSA@VEC2N@CryptoPP@@@2@V?$DL_Algorithm_ECDSA@VEC2N@CryptoPP@@@2@VDL_SignatureMessageEncodingMethod_DSA@2@VSHA256@2@@CryptoPP@@@CryptoPP@@@CryptoPP@@QAE@ABVAsymmetricAlgorithm@1@@Z 429252ec f i dll.obj
 0001:0002433e       ??0?$PK_MessageAccumulatorImpl@VSHA256@CryptoPP@@@CryptoPP@@QAE@XZ 4292533e f i dll.obj
 0001:0002437f       ??0?$DL_VerifierImpl@U?$DL_SignatureSchemeOptions@V?$DL_SS@U?$DL_Keys_ECDSA@VECP@CryptoPP@@@CryptoPP@@V?$DL_Algorithm_ECDSA@VECP@CryptoPP@@@2@VDL_SignatureMessageEncodingMethod_DSA@2@VSHA256@2@H@CryptoPP@@U?$DL_Keys_ECDSA@VECP@CryptoPP@@@2@V?$DL_Algorithm_ECDSA@VECP@CryptoPP@@@2@VDL_SignatureMessageEncodingMethod_DSA@2@VSHA256@2@@CryptoPP@@@CryptoPP@@QAE@XZ 4292537f f i dll.obj
 0001:000243a6       ?NewVerificationAccumulator@?$DL_VerifierImpl@U?$DL_SignatureSchemeOptions@V?$DL_SS@U?$DL_Keys_ECDSA@VECP@CryptoPP@@@CryptoPP@@V?$DL_Algorithm_ECDSA@VECP@CryptoPP@@@2@VDL_SignatureMessageEncodingMethod_DSA@2@VSHA256@2@H@CryptoPP@@U?$DL_Keys_ECDSA@VECP@CryptoPP@@@2@V?$DL_Algorithm_ECDSA@VECP@CryptoPP@@@2@VDL_SignatureMessageEncodingMethod_DSA@2@VSHA256@2@@CryptoPP@@@CryptoPP@@UBEPAVPK_MessageAccumulator@2@XZ 429253a6 f i dll.obj
 0001:000243ed       ?VerifyAndRestart@?$DL_VerifierBase@UECPPoint@CryptoPP@@@CryptoPP@@UBE_NAAVPK_MessageAccumulator@2@@Z 429253ed f i dll.obj
 0001:00024535       ?RecoverAndRestart@?$DL_VerifierBase@UECPPoint@CryptoPP@@@CryptoPP@@UBE?AUDecodingResult@2@PAEAAVPK_MessageAccumulator@2@@Z 42925535 f i dll.obj
 0001:00024728       ?MaxRecoverableLength@?$DL_SignatureSchemeBase@VPK_Verifier@CryptoPP@@V?$DL_PublicKey@UECPPoint@CryptoPP@@@2@@CryptoPP@@UBEIXZ 42925728 f i dll.obj
 0001:00024728       ?MaxRecoverableLength@?$DL_SignatureSchemeBase@VPK_Verifier@CryptoPP@@V?$DL_PublicKey@UEC2NPoint@CryptoPP@@@2@@CryptoPP@@UBEIXZ 42925728 f i dll.obj
 0001:00024728       ?MaxRecoverableLength@?$DL_SignatureSchemeBase@VPK_Verifier@CryptoPP@@V?$DL_PublicKey@VInteger@CryptoPP@@@2@@CryptoPP@@UBEIXZ 42925728 f i dll.obj
 0001:0002475c       ?MaxRecoverableLengthFromSignatureLength@?$DL_SignatureSchemeBase@VPK_Signer@CryptoPP@@V?$DL_PrivateKey@UEC2NPoint@CryptoPP@@@2@@CryptoPP@@UBEII@Z 4292575c f i dll.obj
 0001:0002475c       ?MaxRecoverableLengthFromSignatureLength@?$DL_SignatureSchemeBase@VPK_Verifier@CryptoPP@@V?$DL_PublicKey@UEC2NPoint@CryptoPP@@@2@@CryptoPP@@UBEII@Z 4292575c f i dll.obj
 0001:0002475c       ?MaxRecoverableLengthFromSignatureLength@?$DL_SignatureSchemeBase@VPK_Signer@CryptoPP@@V?$DL_PrivateKey@UECPPoint@CryptoPP@@@2@@CryptoPP@@UBEII@Z 4292575c f i dll.obj
 0001:0002475c       ?MaxRecoverableLengthFromSignatureLength@?$DL_SignatureSchemeBase@VPK_Verifier@CryptoPP@@V?$DL_PublicKey@VInteger@CryptoPP@@@2@@CryptoPP@@UBEII@Z 4292575c f i dll.obj
 0001:0002475c       ?MaxRecoverableLengthFromSignatureLength@?$DL_SignatureSchemeBase@VPK_Signer@CryptoPP@@V?$DL_PrivateKey@VInteger@CryptoPP@@@2@@CryptoPP@@UBEII@Z 4292575c f i dll.obj
 0001:0002475c       ?MinPadLen@?$PSSR_MEM@$0A@VP1363_MGF1@CryptoPP@@$0?0$0A@$0A@@CryptoPP@@EBEII@Z 4292575c f i dll.obj
 0001:0002475c       ?MaxRecoverableLengthFromSignatureLength@?$DL_SignatureSchemeBase@VPK_Verifier@CryptoPP@@V?$DL_PublicKey@UECPPoint@CryptoPP@@@2@@CryptoPP@@UBEII@Z 4292575c f i dll.obj
 0001:00024761       ?AllowNonrecoverablePart@?$DL_SignatureSchemeBase@VPK_Verifier@CryptoPP@@V?$DL_PublicKey@VInteger@CryptoPP@@@2@@CryptoPP@@UBE_NXZ 42925761 f i dll.obj
 0001:00024761       ?AllowNonrecoverablePart@?$DL_SignatureSchemeBase@VPK_Verifier@CryptoPP@@V?$DL_PublicKey@UECPPoint@CryptoPP@@@2@@CryptoPP@@UBE_NXZ 42925761 f i dll.obj
 0001:00024761       ?AllowNonrecoverablePart@?$DL_SignatureSchemeBase@VPK_Verifier@CryptoPP@@V?$DL_PublicKey@UEC2NPoint@CryptoPP@@@2@@CryptoPP@@UBE_NXZ 42925761 f i dll.obj
 0001:0002476d       ??0?$DL_VerifierImpl@U?$DL_SignatureSchemeOptions@V?$DL_SS@U?$DL_Keys_ECDSA@VEC2N@CryptoPP@@@CryptoPP@@V?$DL_Algorithm_ECDSA@VEC2N@CryptoPP@@@2@VDL_SignatureMessageEncodingMethod_DSA@2@VSHA256@2@H@CryptoPP@@U?$DL_Keys_ECDSA@VEC2N@CryptoPP@@@2@V?$DL_Algorithm_ECDSA@VEC2N@CryptoPP@@@2@VDL_SignatureMessageEncodingMethod_DSA@2@VSHA256@2@@CryptoPP@@@CryptoPP@@QAE@XZ 4292576d f i dll.obj
 0001:00024794       ?NewVerificationAccumulator@?$DL_VerifierImpl@U?$DL_SignatureSchemeOptions@V?$DL_SS@U?$DL_Keys_ECDSA@VEC2N@CryptoPP@@@CryptoPP@@V?$DL_Algorithm_ECDSA@VEC2N@CryptoPP@@@2@VDL_SignatureMessageEncodingMethod_DSA@2@VSHA256@2@H@CryptoPP@@U?$DL_Keys_ECDSA@VEC2N@CryptoPP@@@2@V?$DL_Algorithm_ECDSA@VEC2N@CryptoPP@@@2@VDL_SignatureMessageEncodingMethod_DSA@2@VSHA256@2@@CryptoPP@@@CryptoPP@@UBEPAVPK_MessageAccumulator@2@XZ 42925794 f i dll.obj
 0001:000247db       ?InputSignature@?$DL_VerifierBase@VInteger@CryptoPP@@@CryptoPP@@UBEXAAVPK_MessageAccumulator@2@PBEI@Z 429257db f i dll.obj
 0001:000247db       ?InputSignature@?$DL_VerifierBase@UECPPoint@CryptoPP@@@CryptoPP@@UBEXAAVPK_MessageAccumulator@2@PBEI@Z 429257db f i dll.obj
 0001:000247db       ?InputSignature@?$DL_VerifierBase@UEC2NPoint@CryptoPP@@@CryptoPP@@UBEXAAVPK_MessageAccumulator@2@PBEI@Z 429257db f i dll.obj
 0001:0002487f       ?VerifyAndRestart@?$DL_VerifierBase@UEC2NPoint@CryptoPP@@@CryptoPP@@UBE_NAAVPK_MessageAccumulator@2@@Z 4292587f f i dll.obj
 0001:000249c7       ?RecoverAndRestart@?$DL_VerifierBase@UEC2NPoint@CryptoPP@@@CryptoPP@@UBE?AUDecodingResult@2@PAEAAVPK_MessageAccumulator@2@@Z 429259c7 f i dll.obj
 0001:00024bba       ??_E?$DL_SignerImpl@U?$DL_SignatureSchemeOptions@V?$DL_SS@U?$DL_Keys_ECDSA@VECP@CryptoPP@@@CryptoPP@@V?$DL_Algorithm_ECDSA@VECP@CryptoPP@@@2@VDL_SignatureMessageEncodingMethod_DSA@2@VSHA256@2@H@CryptoPP@@U?$DL_Keys_ECDSA@VECP@CryptoPP@@@2@V?$DL_Algorithm_ECDSA@VECP@CryptoPP@@@2@VDL_SignatureMessageEncodingMethod_DSA@2@VSHA256@2@@CryptoPP@@@CryptoPP@@UAEPAXI@Z 42925bba f i dll.obj
 0001:00024bba       ??_G?$DL_SignerImpl@U?$DL_SignatureSchemeOptions@V?$DL_SS@U?$DL_Keys_ECDSA@VECP@CryptoPP@@@CryptoPP@@V?$DL_Algorithm_ECDSA@VECP@CryptoPP@@@2@VDL_SignatureMessageEncodingMethod_DSA@2@VSHA256@2@H@CryptoPP@@U?$DL_Keys_ECDSA@VECP@CryptoPP@@@2@V?$DL_Algorithm_ECDSA@VECP@CryptoPP@@@2@VDL_SignatureMessageEncodingMethod_DSA@2@VSHA256@2@@CryptoPP@@@CryptoPP@@UAEPAXI@Z 42925bba f i dll.obj
 0001:00024bd7       ??_G?$PK_MessageAccumulatorImpl@VSHA256@CryptoPP@@@CryptoPP@@UAEPAXI@Z 42925bd7 f i dll.obj
 0001:00024bd7       ??_E?$PK_MessageAccumulatorImpl@VSHA256@CryptoPP@@@CryptoPP@@UAEPAXI@Z 42925bd7 f i dll.obj
 0001:00024bf4       ??_E?$DL_VerifierImpl@U?$DL_SignatureSchemeOptions@V?$DL_SS@U?$DL_Keys_ECDSA@VECP@CryptoPP@@@CryptoPP@@V?$DL_Algorithm_ECDSA@VECP@CryptoPP@@@2@VDL_SignatureMessageEncodingMethod_DSA@2@VSHA256@2@H@CryptoPP@@U?$DL_Keys_ECDSA@VECP@CryptoPP@@@2@V?$DL_Algorithm_ECDSA@VECP@CryptoPP@@@2@VDL_SignatureMessageEncodingMethod_DSA@2@VSHA256@2@@CryptoPP@@@CryptoPP@@UAEPAXI@Z 42925bf4 f i dll.obj
 0001:00024bf4       ??_G?$DL_VerifierImpl@U?$DL_SignatureSchemeOptions@V?$DL_SS@U?$DL_Keys_ECDSA@VECP@CryptoPP@@@CryptoPP@@V?$DL_Algorithm_ECDSA@VECP@CryptoPP@@@2@VDL_SignatureMessageEncodingMethod_DSA@2@VSHA256@2@H@CryptoPP@@U?$DL_Keys_ECDSA@VECP@CryptoPP@@@2@V?$DL_Algorithm_ECDSA@VECP@CryptoPP@@@2@VDL_SignatureMessageEncodingMethod_DSA@2@VSHA256@2@@CryptoPP@@@CryptoPP@@UAEPAXI@Z 42925bf4 f i dll.obj
 0001:00024c11       ??_E?$DL_SignerImpl@U?$DL_SignatureSchemeOptions@V?$DL_SS@U?$DL_Keys_ECDSA@VEC2N@CryptoPP@@@CryptoPP@@V?$DL_Algorithm_ECDSA@VEC2N@CryptoPP@@@2@VDL_SignatureMessageEncodingMethod_DSA@2@VSHA256@2@H@CryptoPP@@U?$DL_Keys_ECDSA@VEC2N@CryptoPP@@@2@V?$DL_Algorithm_ECDSA@VEC2N@CryptoPP@@@2@VDL_SignatureMessageEncodingMethod_DSA@2@VSHA256@2@@CryptoPP@@@CryptoPP@@UAEPAXI@Z 42925c11 f i dll.obj
 0001:00024c11       ??_G?$DL_SignerImpl@U?$DL_SignatureSchemeOptions@V?$DL_SS@U?$DL_Keys_ECDSA@VEC2N@CryptoPP@@@CryptoPP@@V?$DL_Algorithm_ECDSA@VEC2N@CryptoPP@@@2@VDL_SignatureMessageEncodingMethod_DSA@2@VSHA256@2@H@CryptoPP@@U?$DL_Keys_ECDSA@VEC2N@CryptoPP@@@2@V?$DL_Algorithm_ECDSA@VEC2N@CryptoPP@@@2@VDL_SignatureMessageEncodingMethod_DSA@2@VSHA256@2@@CryptoPP@@@CryptoPP@@UAEPAXI@Z 42925c11 f i dll.obj
 0001:00024c2e       ??_E?$DL_VerifierImpl@U?$DL_SignatureSchemeOptions@V?$DL_SS@U?$DL_Keys_ECDSA@VEC2N@CryptoPP@@@CryptoPP@@V?$DL_Algorithm_ECDSA@VEC2N@CryptoPP@@@2@VDL_SignatureMessageEncodingMethod_DSA@2@VSHA256@2@H@CryptoPP@@U?$DL_Keys_ECDSA@VEC2N@CryptoPP@@@2@V?$DL_Algorithm_ECDSA@VEC2N@CryptoPP@@@2@VDL_SignatureMessageEncodingMethod_DSA@2@VSHA256@2@@CryptoPP@@@CryptoPP@@UAEPAXI@Z 42925c2e f i dll.obj
 0001:00024c2e       ??_G?$DL_VerifierImpl@U?$DL_SignatureSchemeOptions@V?$DL_SS@U?$DL_Keys_ECDSA@VEC2N@CryptoPP@@@CryptoPP@@V?$DL_Algorithm_ECDSA@VEC2N@CryptoPP@@@2@VDL_SignatureMessageEncodingMethod_DSA@2@VSHA256@2@H@CryptoPP@@U?$DL_Keys_ECDSA@VEC2N@CryptoPP@@@2@V?$DL_Algorithm_ECDSA@VEC2N@CryptoPP@@@2@VDL_SignatureMessageEncodingMethod_DSA@2@VSHA256@2@@CryptoPP@@@CryptoPP@@UAEPAXI@Z 42925c2e f i dll.obj
 0001:00024c4b       ??0?$DL_ObjectImplBase@V?$DL_SignerBase@UECPPoint@CryptoPP@@@CryptoPP@@U?$DL_SignatureSchemeOptions@V?$DL_SS@U?$DL_Keys_ECDSA@VECP@CryptoPP@@@CryptoPP@@V?$DL_Algorithm_ECDSA@VECP@CryptoPP@@@2@VDL_SignatureMessageEncodingMethod_DSA@2@VSHA256@2@H@CryptoPP@@U?$DL_Keys_ECDSA@VECP@CryptoPP@@@2@V?$DL_Algorithm_ECDSA@VECP@CryptoPP@@@2@VDL_SignatureMessageEncodingMethod_DSA@2@VSHA256@2@@2@V?$DL_PrivateKey_WithSignaturePairwiseConsistencyTest@V?$DL_PrivateKey_EC@VECP@CryptoPP@@@CryptoPP@@U?$ECDSA@VECP@CryptoPP@@VSHA256@2@@2@@2@@CryptoPP@@QAE@XZ 42925c4b f i dll.obj
 0001:00024c8a       ??1?$PK_MessageAccumulatorImpl@VSHA256@CryptoPP@@@CryptoPP@@UAE@XZ 42925c8a f i dll.obj
 0001:00024cdf       ??0?$DL_ObjectImplBase@V?$DL_VerifierBase@UECPPoint@CryptoPP@@@CryptoPP@@U?$DL_SignatureSchemeOptions@V?$DL_SS@U?$DL_Keys_ECDSA@VECP@CryptoPP@@@CryptoPP@@V?$DL_Algorithm_ECDSA@VECP@CryptoPP@@@2@VDL_SignatureMessageEncodingMethod_DSA@2@VSHA256@2@H@CryptoPP@@U?$DL_Keys_ECDSA@VECP@CryptoPP@@@2@V?$DL_Algorithm_ECDSA@VECP@CryptoPP@@@2@VDL_SignatureMessageEncodingMethod_DSA@2@VSHA256@2@@2@V?$DL_PublicKey_EC@VECP@CryptoPP@@@2@@CryptoPP@@QAE@XZ 42925cdf f i dll.obj
 0001:00024d23       ??0?$DL_ObjectImplBase@V?$DL_SignerBase@UEC2NPoint@CryptoPP@@@CryptoPP@@U?$DL_SignatureSchemeOptions@V?$DL_SS@U?$DL_Keys_ECDSA@VEC2N@CryptoPP@@@CryptoPP@@V?$DL_Algorithm_ECDSA@VEC2N@CryptoPP@@@2@VDL_SignatureMessageEncodingMethod_DSA@2@VSHA256@2@H@CryptoPP@@U?$DL_Keys_ECDSA@VEC2N@CryptoPP@@@2@V?$DL_Algorithm_ECDSA@VEC2N@CryptoPP@@@2@VDL_SignatureMessageEncodingMethod_DSA@2@VSHA256@2@@2@V?$DL_PrivateKey_WithSignaturePairwiseConsistencyTest@V?$DL_PrivateKey_EC@VEC2N@CryptoPP@@@CryptoPP@@U?$ECDSA@VEC2N@CryptoPP@@VSHA256@2@@2@@2@@CryptoPP@@QAE@XZ 42925d23 f i dll.obj
 0001:00024d62       ??0?$DL_ObjectImplBase@V?$DL_VerifierBase@UEC2NPoint@CryptoPP@@@CryptoPP@@U?$DL_SignatureSchemeOptions@V?$DL_SS@U?$DL_Keys_ECDSA@VEC2N@CryptoPP@@@CryptoPP@@V?$DL_Algorithm_ECDSA@VEC2N@CryptoPP@@@2@VDL_SignatureMessageEncodingMethod_DSA@2@VSHA256@2@H@CryptoPP@@U?$DL_Keys_ECDSA@VEC2N@CryptoPP@@@2@V?$DL_Algorithm_ECDSA@VEC2N@CryptoPP@@@2@VDL_SignatureMessageEncodingMethod_DSA@2@VSHA256@2@@2@V?$DL_PublicKey_EC@VEC2N@CryptoPP@@@2@@CryptoPP@@QAE@XZ 42925d62 f i dll.obj
 0001:00024da6       ?push_front@?$deque@_KV?$allocator@_K@std@@@std@@QAEXAB_K@Z 42925da6 f i dll.obj
 0001:00024dde       ?pop_back@?$deque@_KV?$allocator@_K@std@@@std@@QAEXXZ 42925dde f i dll.obj
 0001:00024e0a       ?_Freefront@?$deque@_KV?$allocator@_K@std@@@std@@IAEXXZ 42925e0a f i dll.obj
 0001:00024e82       ?_Getmap@?$deque@_KV?$allocator@_K@std@@@std@@IAEXXZ 42925e82 f i dll.obj
 0001:00024eac       ?_Growmap@?$deque@_KV?$allocator@_K@std@@@std@@IAEPAPA_KI@Z 42925eac f i dll.obj
 0001:00024f20       ??0const_iterator@?$deque@IV?$allocator@I@std@@@std@@QAE@XZ 42925f20 f i dll.obj
 0001:00024f20       ??0const_iterator@?$deque@_KV?$allocator@_K@std@@@std@@QAE@XZ 42925f20 f i dll.obj
 0001:00024f30       ??Hiterator@?$deque@_KV?$allocator@_K@std@@@std@@QBE?AV012@H@Z 42925f30 f i dll.obj
 0001:00024f5e       ??Giterator@?$deque@_KV?$allocator@_K@std@@@std@@QBEHABV012@@Z 42925f5e f i dll.obj
 0001:00024fa1       ?push_front@?$deque@IV?$allocator@I@std@@@std@@QAEXABI@Z 42925fa1 f i dll.obj
 0001:00024fd3       ?pop_back@?$deque@IV?$allocator@I@std@@@std@@QAEXXZ 42925fd3 f i dll.obj
 0001:00024fff       ?_Freefront@?$deque@IV?$allocator@I@std@@@std@@IAEXXZ 42925fff f i dll.obj
 0001:00025077       ?_Getmap@?$deque@IV?$allocator@I@std@@@std@@IAEXXZ 42926077 f i dll.obj
 0001:000250a1       ?_Growmap@?$deque@IV?$allocator@I@std@@@std@@IAEPAPAII@Z 429260a1 f i dll.obj
 0001:00025115       ??Hiterator@?$deque@IV?$allocator@I@std@@@std@@QBE?AV012@H@Z 42926115 f i dll.obj
 0001:00025143       ??Giterator@?$deque@IV?$allocator@I@std@@@std@@QBEHABV012@@Z 42926143 f i dll.obj
 0001:00025186       ?New@?$SecBlock@EV?$FixedSizeAllocatorWithCleanup@E$0KAA@V?$NullAllocator@E@CryptoPP@@$0A@@CryptoPP@@@CryptoPP@@QAEXI@Z 42926186 f i dll.obj
 0001:000251af       ?AccessHash@?$PK_MessageAccumulatorImpl@VSHA256@CryptoPP@@@CryptoPP@@UAEAAVHashTransformation@2@XZ 429261af f i dll.obj
 0001:000251af       ?AccessHash@?$PK_MessageAccumulatorImpl@VSHA1@CryptoPP@@@CryptoPP@@UAEAAVHashTransformation@2@XZ 429261af f i dll.obj
 0001:000251b3       ?StaticAlgorithmName@?$DL_SS@U?$DL_Keys_ECDSA@VECP@CryptoPP@@@CryptoPP@@V?$DL_Algorithm_ECDSA@VECP@CryptoPP@@@2@VDL_SignatureMessageEncodingMethod_DSA@2@VSHA256@2@H@CryptoPP@@SA?AV?$basic_string@DU?$char_traits@D@std@@V?$allocator@D@2@@std@@XZ 429261b3 f i dll.obj
 0001:00025266       ?StaticAlgorithmName@?$DL_SS@U?$DL_Keys_ECDSA@VEC2N@CryptoPP@@@CryptoPP@@V?$DL_Algorithm_ECDSA@VEC2N@CryptoPP@@@2@VDL_SignatureMessageEncodingMethod_DSA@2@VSHA256@2@H@CryptoPP@@SA?AV?$basic_string@DU?$char_traits@D@std@@V?$allocator@D@2@@std@@XZ 42926266 f i dll.obj
 0001:00025319       ?_Buyfront@?$deque@_KV?$allocator@_K@std@@@std@@IAEXXZ 42926319 f i dll.obj
 0001:0002546a       ?_Freeback@?$deque@_KV?$allocator@_K@std@@@std@@IAEXXZ 4292646a f i dll.obj
 0001:000254f9       ?_Add@const_iterator@?$deque@_KV?$allocator@_K@std@@@std@@IAEXH@Z 429264f9 f i dll.obj
 0001:00025552       ?_Buyfront@?$deque@IV?$allocator@I@std@@@std@@IAEXXZ 42926552 f i dll.obj
 0001:000256a3       ?_Freeback@?$deque@IV?$allocator@I@std@@@std@@IAEXXZ 429266a3 f i dll.obj
 0001:00025732       ?_Add@const_iterator@?$deque@IV?$allocator@I@std@@@std@@IAEXH@Z 42926732 f i dll.obj
 0001:0002578b       ?reallocate@?$FixedSizeAllocatorWithCleanup@E$0KAA@V?$NullAllocator@E@CryptoPP@@$0A@@CryptoPP@@QAEPAEPAEII_N@Z 4292678b f i dll.obj
 0001:0002581a       ?GenerateBlock@?$AdditiveCipherTemplate@V?$AbstractPolicyHolder@UAdditiveCipherAbstractPolicy@CryptoPP@@VSymmetricCipher@2@@CryptoPP@@@CryptoPP@@UAEXPAEI@Z 4292681a f i dll.obj
 0001:000258fe       ?ProcessData@?$AdditiveCipherTemplate@V?$AbstractPolicyHolder@UAdditiveCipherAbstractPolicy@CryptoPP@@VSymmetricCipher@2@@CryptoPP@@@CryptoPP@@UAEXPAEPBEI@Z 429268fe f i dll.obj
 0001:00025a7f       ?Resynchronize@?$AdditiveCipherTemplate@V?$AbstractPolicyHolder@UAdditiveCipherAbstractPolicy@CryptoPP@@VSymmetricCipher@2@@CryptoPP@@@CryptoPP@@UAEXPBEH@Z 42926a7f f i dll.obj
 0001:00025ad4       ?Seek@?$AdditiveCipherTemplate@V?$AbstractPolicyHolder@UAdditiveCipherAbstractPolicy@CryptoPP@@VSymmetricCipher@2@@CryptoPP@@@CryptoPP@@UAEX_K@Z 42926ad4 f i dll.obj
 0001:00025b56       ?UncheckedSetKey@?$AdditiveCipherTemplate@V?$AbstractPolicyHolder@UAdditiveCipherAbstractPolicy@CryptoPP@@VSymmetricCipher@2@@CryptoPP@@@CryptoPP@@MAEXPBEIABVNameValuePairs@2@@Z 42926b56 f i dll.obj
 0001:00025bfb       ?ProcessData@?$CFB_CipherTemplate@V?$AbstractPolicyHolder@VCFB_CipherAbstractPolicy@CryptoPP@@VSymmetricCipher@2@@CryptoPP@@@CryptoPP@@UAEXPAEPBEI@Z 42926bfb f i dll.obj
 0001:00025d95       ?Resynchronize@?$CFB_CipherTemplate@V?$AbstractPolicyHolder@VCFB_CipherAbstractPolicy@CryptoPP@@VSymmetricCipher@2@@CryptoPP@@@CryptoPP@@UAEXPBEH@Z 42926d95 f i dll.obj
 0001:00025dc8       ?UncheckedSetKey@?$CFB_CipherTemplate@V?$AbstractPolicyHolder@VCFB_CipherAbstractPolicy@CryptoPP@@VSymmetricCipher@2@@CryptoPP@@@CryptoPP@@MAEXPBEIABVNameValuePairs@2@@Z 42926dc8 f i dll.obj
 0001:00025e1b       ?ProcessData@?$CFB_CipherTemplate@V?$AbstractPolicyHolder@VCFB_CipherAbstractPolicy@CryptoPP@@VCFB_ModePolicy@2@@CryptoPP@@@CryptoPP@@UAEXPAEPBEI@Z 42926e1b f i dll.obj
 0001:00025fb5       ?Resynchronize@?$CFB_CipherTemplate@V?$AbstractPolicyHolder@VCFB_CipherAbstractPolicy@CryptoPP@@VCFB_ModePolicy@2@@CryptoPP@@@CryptoPP@@UAEXPBEH@Z 42926fb5 f i dll.obj
 0001:00025fe8       ?UncheckedSetKey@?$CFB_CipherTemplate@V?$AbstractPolicyHolder@VCFB_CipherAbstractPolicy@CryptoPP@@VCFB_ModePolicy@2@@CryptoPP@@@CryptoPP@@MAEXPBEIABVNameValuePairs@2@@Z 42926fe8 f i dll.obj
 0001:0002603b       ?CombineMessageAndShiftRegister@?$CFB_EncryptionTemplate@V?$AbstractPolicyHolder@VCFB_CipherAbstractPolicy@CryptoPP@@VSymmetricCipher@2@@CryptoPP@@@CryptoPP@@EAEXPAE0PBEI@Z 4292703b f i dll.obj
 0001:0002603b       ?CombineMessageAndShiftRegister@?$CFB_EncryptionTemplate@V?$AbstractPolicyHolder@VCFB_CipherAbstractPolicy@CryptoPP@@VCFB_ModePolicy@2@@CryptoPP@@@CryptoPP@@EAEXPAE0PBEI@Z 4292703b f i dll.obj
 0001:00026061       ?CombineMessageAndShiftRegister@?$CFB_DecryptionTemplate@V?$AbstractPolicyHolder@VCFB_CipherAbstractPolicy@CryptoPP@@VCFB_ModePolicy@2@@CryptoPP@@@CryptoPP@@EAEXPAE0PBEI@Z 42927061 f i dll.obj
 0001:00026061       ?CombineMessageAndShiftRegister@?$CFB_DecryptionTemplate@V?$AbstractPolicyHolder@VCFB_CipherAbstractPolicy@CryptoPP@@VSymmetricCipher@2@@CryptoPP@@@CryptoPP@@EAEXPAE0PBEI@Z 42927061 f i dll.obj
 0001:00026099       ?GenerateBlock@?$AdditiveCipherTemplate@V?$AbstractPolicyHolder@UAdditiveCipherAbstractPolicy@CryptoPP@@VOFB_ModePolicy@2@@CryptoPP@@@CryptoPP@@UAEXPAEI@Z 42927099 f i dll.obj
 0001:0002617d       ?ProcessData@?$AdditiveCipherTemplate@V?$AbstractPolicyHolder@UAdditiveCipherAbstractPolicy@CryptoPP@@VOFB_ModePolicy@2@@CryptoPP@@@CryptoPP@@UAEXPAEPBEI@Z 4292717d f i dll.obj
 0001:000262fe       ?Resynchronize@?$AdditiveCipherTemplate@V?$AbstractPolicyHolder@UAdditiveCipherAbstractPolicy@CryptoPP@@VOFB_ModePolicy@2@@CryptoPP@@@CryptoPP@@UAEXPBEH@Z 429272fe f i dll.obj
 0001:00026353       ?Seek@?$AdditiveCipherTemplate@V?$AbstractPolicyHolder@UAdditiveCipherAbstractPolicy@CryptoPP@@VOFB_ModePolicy@2@@CryptoPP@@@CryptoPP@@UAEX_K@Z 42927353 f i dll.obj
 0001:000263d5       ?UncheckedSetKey@?$AdditiveCipherTemplate@V?$AbstractPolicyHolder@UAdditiveCipherAbstractPolicy@CryptoPP@@VOFB_ModePolicy@2@@CryptoPP@@@CryptoPP@@MAEXPBEIABVNameValuePairs@2@@Z 429273d5 f i dll.obj
 0001:0002647a       ?GenerateBlock@?$AdditiveCipherTemplate@V?$AbstractPolicyHolder@UAdditiveCipherAbstractPolicy@CryptoPP@@VCTR_ModePolicy@2@@CryptoPP@@@CryptoPP@@UAEXPAEI@Z 4292747a f i dll.obj
 0001:0002655e       ?ProcessData@?$AdditiveCipherTemplate@V?$AbstractPolicyHolder@UAdditiveCipherAbstractPolicy@CryptoPP@@VCTR_ModePolicy@2@@CryptoPP@@@CryptoPP@@UAEXPAEPBEI@Z 4292755e f i dll.obj
 0001:000266df       ?Resynchronize@?$AdditiveCipherTemplate@V?$AbstractPolicyHolder@UAdditiveCipherAbstractPolicy@CryptoPP@@VCTR_ModePolicy@2@@CryptoPP@@@CryptoPP@@UAEXPBEH@Z 429276df f i dll.obj
 0001:00026734       ?Seek@?$AdditiveCipherTemplate@V?$AbstractPolicyHolder@UAdditiveCipherAbstractPolicy@CryptoPP@@VCTR_ModePolicy@2@@CryptoPP@@@CryptoPP@@UAEX_K@Z 42927734 f i dll.obj
 0001:000267b6       ?UncheckedSetKey@?$AdditiveCipherTemplate@V?$AbstractPolicyHolder@UAdditiveCipherAbstractPolicy@CryptoPP@@VCTR_ModePolicy@2@@CryptoPP@@@CryptoPP@@MAEXPBEIABVNameValuePairs@2@@Z 429277b6 f i dll.obj
 0001:0002685b       ?Double@?$AbstractGroup@UEC2NPoint@CryptoPP@@@CryptoPP@@UBEABUEC2NPoint@2@ABU32@@Z 4292785b f i dll.obj
 0001:0002685b       ?Double@?$AbstractGroup@VInteger@CryptoPP@@@CryptoPP@@UBEABVInteger@2@ABV32@@Z 4292785b f i dll.obj
 0001:0002685b       ?Double@?$AbstractGroup@VPolynomialMod2@CryptoPP@@@CryptoPP@@UBEABVPolynomialMod2@2@ABV32@@Z 4292785b f i dll.obj
 0001:0002685b       ?Double@ModularArithmetic@CryptoPP@@UBEABVInteger@2@ABV32@@Z 4292785b f i dll.obj
 0001:0002685b       ?Double@?$AbstractGroup@UECPPoint@CryptoPP@@@CryptoPP@@UBEABUECPPoint@2@ABU32@@Z 4292785b f i dll.obj
 0001:0002686b       ?Subtract@?$AbstractGroup@VInteger@CryptoPP@@@CryptoPP@@UBEABVInteger@2@ABV32@0@Z 4292786b f i dll.obj
 0001:000268c2       ?Accumulate@?$AbstractGroup@VInteger@CryptoPP@@@CryptoPP@@UBEAAVInteger@2@AAV32@ABV32@@Z 429278c2 f i dll.obj
 0001:000268dc       ?Reduce@?$AbstractGroup@VInteger@CryptoPP@@@CryptoPP@@UBEAAVInteger@2@AAV32@ABV32@@Z 429278dc f i dll.obj
 0001:000268f6       ?ScalarMultiply@?$AbstractGroup@VInteger@CryptoPP@@@CryptoPP@@UBE?AVInteger@2@ABV32@0@Z 429278f6 f i dll.obj
 0001:0002695c       ?CascadeScalarMultiply@?$AbstractGroup@VInteger@CryptoPP@@@CryptoPP@@UBE?AVInteger@2@ABV32@000@Z 4292795c f i dll.obj
 0001:00026d6c       ?SimultaneousMultiply@?$AbstractGroup@VInteger@CryptoPP@@@CryptoPP@@UBEXPAVInteger@2@ABV32@PBV32@I@Z 42927d6c f i dll.obj
 0001:00027088       ??0WindowSlider@CryptoPP@@QAE@ABVInteger@1@_NI@Z 42928088 f i dll.obj
 0001:0002713c       ?FindNextWindow@WindowSlider@CryptoPP@@QAEXXZ 4292813c f i dll.obj
 0001:000271ce       ?Square@?$AbstractRing@VPolynomialMod2@CryptoPP@@@CryptoPP@@UBEABVPolynomialMod2@2@ABV32@@Z 429281ce f i dll.obj
 0001:000271ce       ?Square@?$AbstractRing@VInteger@CryptoPP@@@CryptoPP@@UBEABVInteger@2@ABV32@@Z 429281ce f i dll.obj
 0001:000271de       ?Divide@?$AbstractRing@VInteger@CryptoPP@@@CryptoPP@@UBEABVInteger@2@ABV32@0@Z 429281de f i dll.obj
 0001:00027235       ?Exponentiate@?$AbstractRing@VInteger@CryptoPP@@@CryptoPP@@UBE?AVInteger@2@ABV32@0@Z 42928235 f i dll.obj
 0001:0002729b       ?CascadeExponentiate@?$AbstractRing@VInteger@CryptoPP@@@CryptoPP@@UBE?AVInteger@2@ABV32@000@Z 4292829b f i dll.obj
 0001:000272c5       ?SimultaneousExponentiate@?$AbstractRing@VInteger@CryptoPP@@@CryptoPP@@UBEXPAVInteger@2@ABV32@PBV32@I@Z 429282c5 f i dll.obj
 0001:000272e4       ?Mod@?$AbstractEuclideanDomain@VInteger@CryptoPP@@@CryptoPP@@UBEABVInteger@2@ABV32@0@Z 429282e4 f i dll.obj
 0001:00027337       ?Gcd@?$AbstractEuclideanDomain@VInteger@CryptoPP@@@CryptoPP@@UBEABVInteger@2@ABV32@0@Z 42928337 f i dll.obj
 0001:00027472       ?SetBase@?$DL_FixedBasePrecomputationImpl@VInteger@CryptoPP@@@CryptoPP@@UAEXABV?$DL_GroupPrecomputation@VInteger@CryptoPP@@@2@ABVInteger@2@@Z 42928472 f i dll.obj
 0001:0002755d       ?Precompute@?$DL_FixedBasePrecomputationImpl@VInteger@CryptoPP@@@CryptoPP@@UAEXABV?$DL_GroupPrecomputation@VInteger@CryptoPP@@@2@II@Z 4292855d f i dll.obj
 0001:00027643       ?Load@?$DL_FixedBasePrecomputationImpl@VInteger@CryptoPP@@@CryptoPP@@UAEXABV?$DL_GroupPrecomputation@VInteger@CryptoPP@@@2@AAVBufferedTransformation@2@@Z 42928643 f i dll.obj
 0001:0002776d       ?Save@?$DL_FixedBasePrecomputationImpl@VInteger@CryptoPP@@@CryptoPP@@UBEXABV?$DL_GroupPrecomputation@VInteger@CryptoPP@@@2@AAVBufferedTransformation@2@@Z 4292876d f i dll.obj
 0001:00027816       ?Exponentiate@?$DL_FixedBasePrecomputationImpl@VInteger@CryptoPP@@@CryptoPP@@UBE?AVInteger@2@ABV?$DL_GroupPrecomputation@VInteger@CryptoPP@@@2@ABV32@@Z 42928816 f i dll.obj
 0001:000278c7       ?CascadeExponentiate@?$DL_FixedBasePrecomputationImpl@VInteger@CryptoPP@@@CryptoPP@@UBE?AVInteger@2@ABV?$DL_GroupPrecomputation@VInteger@CryptoPP@@@2@ABV32@ABV?$DL_FixedBasePrecomputation@VInteger@CryptoPP@@@2@1@Z 429288c7 f i dll.obj
 0001:000279ad       ?PrepareCascade@?$DL_FixedBasePrecomputationImpl@VInteger@CryptoPP@@@CryptoPP@@ABEXABV?$DL_GroupPrecomputation@VInteger@CryptoPP@@@2@AAV?$vector@U?$BaseAndExponent@VInteger@CryptoPP@@V12@@CryptoPP@@V?$allocator@U?$BaseAndExponent@VInteger@CryptoPP@@V12@@CryptoPP@@@std@@@std@@ABVInteger@2@@Z 429289ad f i dll.obj
 0001:00027c03       ?Subtract@?$AbstractGroup@VPolynomialMod2@CryptoPP@@@CryptoPP@@UBEABVPolynomialMod2@2@ABV32@0@Z 42928c03 f i dll.obj
 0001:00027c57       ?Accumulate@?$AbstractGroup@VPolynomialMod2@CryptoPP@@@CryptoPP@@UBEAAVPolynomialMod2@2@AAV32@ABV32@@Z 42928c57 f i dll.obj
 0001:00027c71       ?Reduce@?$AbstractGroup@VPolynomialMod2@CryptoPP@@@CryptoPP@@UBEAAVPolynomialMod2@2@AAV32@ABV32@@Z 42928c71 f i dll.obj
 0001:00027c8b       ?ScalarMultiply@?$AbstractGroup@VPolynomialMod2@CryptoPP@@@CryptoPP@@UBE?AVPolynomialMod2@2@ABV32@ABVInteger@2@@Z 42928c8b f i dll.obj
 0001:00027cee       ?CascadeScalarMultiply@?$AbstractGroup@VPolynomialMod2@CryptoPP@@@CryptoPP@@UBE?AVPolynomialMod2@2@ABV32@ABVInteger@2@01@Z 42928cee f i dll.obj
 0001:000280fa       ?SimultaneousMultiply@?$AbstractGroup@VPolynomialMod2@CryptoPP@@@CryptoPP@@UBEXPAVPolynomialMod2@2@ABV32@PBVInteger@2@I@Z 429290fa f i dll.obj
 0001:00028413       ?Divide@?$AbstractRing@VPolynomialMod2@CryptoPP@@@CryptoPP@@UBEABVPolynomialMod2@2@ABV32@0@Z 42929413 f i dll.obj
 0001:00028467       ?Exponentiate@?$AbstractRing@VPolynomialMod2@CryptoPP@@@CryptoPP@@UBE?AVPolynomialMod2@2@ABV32@ABVInteger@2@@Z 42929467 f i dll.obj
 0001:000284ca       ?CascadeExponentiate@?$AbstractRing@VPolynomialMod2@CryptoPP@@@CryptoPP@@UBE?AVPolynomialMod2@2@ABV32@ABVInteger@2@01@Z 429294ca f i dll.obj
 0001:000284f4       ?SimultaneousExponentiate@?$AbstractRing@VPolynomialMod2@CryptoPP@@@CryptoPP@@UBEXPAVPolynomialMod2@2@ABV32@PBVInteger@2@I@Z 429294f4 f i dll.obj
 0001:00028513       ?Mod@?$AbstractEuclideanDomain@VPolynomialMod2@CryptoPP@@@CryptoPP@@UBEABVPolynomialMod2@2@ABV32@0@Z 42929513 f i dll.obj
 0001:00028563       ?Gcd@?$AbstractEuclideanDomain@VPolynomialMod2@CryptoPP@@@CryptoPP@@UBEABVPolynomialMod2@2@ABV32@0@Z 42929563 f i dll.obj
 0001:00028699       ?MultiplicativeInverse@?$QuotientRing@V?$EuclideanDomainOf@VPolynomialMod2@CryptoPP@@@CryptoPP@@@CryptoPP@@UBEABVPolynomialMod2@2@ABV32@@Z 42929699 f i dll.obj
 0001:000288be       ?Subtract@?$AbstractGroup@UEC2NPoint@CryptoPP@@@CryptoPP@@UBEABUEC2NPoint@2@ABU32@0@Z 429298be f i dll.obj
 0001:00028912       ?Accumulate@?$AbstractGroup@UEC2NPoint@CryptoPP@@@CryptoPP@@UBEAAUEC2NPoint@2@AAU32@ABU32@@Z 42929912 f i dll.obj
 0001:0002892c       ?Reduce@?$AbstractGroup@UEC2NPoint@CryptoPP@@@CryptoPP@@UBEAAUEC2NPoint@2@AAU32@ABU32@@Z 4292992c f i dll.obj
 0001:00028946       ?ScalarMultiply@?$AbstractGroup@UEC2NPoint@CryptoPP@@@CryptoPP@@UBE?AUEC2NPoint@2@ABU32@ABVInteger@2@@Z 42929946 f i dll.obj
 0001:000289bb       ?CascadeScalarMultiply@?$AbstractGroup@UEC2NPoint@CryptoPP@@@CryptoPP@@UBE?AUEC2NPoint@2@ABU32@ABVInteger@2@01@Z 429299bb f i dll.obj
 0001:00028dec       ?SimultaneousMultiply@?$AbstractGroup@UEC2NPoint@CryptoPP@@@CryptoPP@@UBEXPAUEC2NPoint@2@ABU32@PBVInteger@2@I@Z 42929dec f i dll.obj
 0001:00029106       ??1?$member_ptr@VRandomNumberGenerator@CryptoPP@@@CryptoPP@@QAE@XZ 4292a106 f i dll.obj
 0001:00029106       ??1?$member_ptr@VGF2NP@CryptoPP@@@CryptoPP@@QAE@XZ 4292a106 f i dll.obj
 0001:00029106       ??1?$member_ptr@VPK_MessageAccumulator@CryptoPP@@@CryptoPP@@QAE@XZ 4292a106 f i dll.obj
 0001:00029106       ??1?$member_ptr@VKDF2_RNG@CryptoPP@@@CryptoPP@@QAE@XZ 4292a106 f i dll.obj
 0001:00029106       ??1?$member_ptr@VModularArithmetic@CryptoPP@@@CryptoPP@@QAE@XZ 4292a106 f i dll.obj
 0001:00029106       ??1?$member_ptr@VBlockTransformation@CryptoPP@@@CryptoPP@@QAE@XZ 4292a106 f i dll.obj
 0001:00029106       ??1?$member_ptr@VMontgomeryRepresentation@CryptoPP@@@CryptoPP@@QAE@XZ 4292a106 f i dll.obj
 0001:00029106       ??1?$member_ptr@VBlockCipher@CryptoPP@@@CryptoPP@@QAE@XZ 4292a106 f i dll.obj
 0001:00029106       ??1?$member_ptr@VECP@CryptoPP@@@CryptoPP@@QAE@XZ 4292a106 f i dll.obj
 0001:00029106       ??1?$member_ptr@VBufferedTransformation@CryptoPP@@@CryptoPP@@QAE@XZ 4292a106 f i dll.obj
 0001:00029106       ??1?$member_ptr@VAlgorithmParametersBase@CryptoPP@@@CryptoPP@@QAE@XZ 4292a106 f i dll.obj
 0001:00029113       ?SetBase@?$DL_FixedBasePrecomputationImpl@UEC2NPoint@CryptoPP@@@CryptoPP@@UAEXABV?$DL_GroupPrecomputation@UEC2NPoint@CryptoPP@@@2@ABUEC2NPoint@2@@Z 4292a113 f i dll.obj
 0001:00029202       ?Precompute@?$DL_FixedBasePrecomputationImpl@UEC2NPoint@CryptoPP@@@CryptoPP@@UAEXABV?$DL_GroupPrecomputation@UEC2NPoint@CryptoPP@@@2@II@Z 4292a202 f i dll.obj
 0001:000292f0       ?Load@?$DL_FixedBasePrecomputationImpl@UEC2NPoint@CryptoPP@@@CryptoPP@@UAEXABV?$DL_GroupPrecomputation@UEC2NPoint@CryptoPP@@@2@AAVBufferedTransformation@2@@Z 4292a2f0 f i dll.obj
 0001:00029412       ?Save@?$DL_FixedBasePrecomputationImpl@UEC2NPoint@CryptoPP@@@CryptoPP@@UBEXABV?$DL_GroupPrecomputation@UEC2NPoint@CryptoPP@@@2@AAVBufferedTransformation@2@@Z 4292a412 f i dll.obj
 0001:000294bb       ?Exponentiate@?$DL_FixedBasePrecomputationImpl@UEC2NPoint@CryptoPP@@@CryptoPP@@UBE?AUEC2NPoint@2@ABV?$DL_GroupPrecomputation@UEC2NPoint@CryptoPP@@@2@ABVInteger@2@@Z 4292a4bb f i dll.obj
 0001:0002956b       ?CascadeExponentiate@?$DL_FixedBasePrecomputationImpl@UEC2NPoint@CryptoPP@@@CryptoPP@@UBE?AUEC2NPoint@2@ABV?$DL_GroupPrecomputation@UEC2NPoint@CryptoPP@@@2@ABVInteger@2@ABV?$DL_FixedBasePrecomputation@UEC2NPoint@CryptoPP@@@2@1@Z 4292a56b f i dll.obj
 0001:00029651       ?PrepareCascade@?$DL_FixedBasePrecomputationImpl@UEC2NPoint@CryptoPP@@@CryptoPP@@ABEXABV?$DL_GroupPrecomputation@UEC2NPoint@CryptoPP@@@2@AAV?$vector@U?$BaseAndExponent@UEC2NPoint@CryptoPP@@VInteger@2@@CryptoPP@@V?$allocator@U?$BaseAndExponent@UEC2NPoint@CryptoPP@@VInteger@2@@CryptoPP@@@std@@@std@@ABVInteger@2@@Z 4292a651 f i dll.obj
 0001:000298a6       ?Subtract@?$AbstractGroup@UECPPoint@CryptoPP@@@CryptoPP@@UBEABUECPPoint@2@ABU32@0@Z 4292a8a6 f i dll.obj
 0001:000298fa       ?Accumulate@?$AbstractGroup@UECPPoint@CryptoPP@@@CryptoPP@@UBEAAUECPPoint@2@AAU32@ABU32@@Z 4292a8fa f i dll.obj
 0001:00029914       ?Reduce@?$AbstractGroup@UECPPoint@CryptoPP@@@CryptoPP@@UBEAAUECPPoint@2@AAU32@ABU32@@Z 4292a914 f i dll.obj
 0001:0002992e       ?ScalarMultiply@?$AbstractGroup@UECPPoint@CryptoPP@@@CryptoPP@@UBE?AUECPPoint@2@ABU32@ABVInteger@2@@Z 4292a92e f i dll.obj
 0001:000299a3       ?CascadeScalarMultiply@?$AbstractGroup@UECPPoint@CryptoPP@@@CryptoPP@@UBE?AUECPPoint@2@ABU32@ABVInteger@2@01@Z 4292a9a3 f i dll.obj
 0001:00029de0       ?SimultaneousMultiply@?$AbstractGroup@UECPPoint@CryptoPP@@@CryptoPP@@UBEXPAUECPPoint@2@ABU32@PBVInteger@2@I@Z 4292ade0 f i dll.obj
 0001:0002a0fa       ??4?$clonable_ptr@VModularArithmetic@CryptoPP@@@CryptoPP@@QAEAAV01@ABV01@@Z 4292b0fa f i dll.obj
 0001:0002a0fa       ??4?$clonable_ptr@VGF2NP@CryptoPP@@@CryptoPP@@QAEAAV01@ABV01@@Z 4292b0fa f i dll.obj
 0001:0002a128       ?SetBase@?$DL_FixedBasePrecomputationImpl@UECPPoint@CryptoPP@@@CryptoPP@@UAEXABV?$DL_GroupPrecomputation@UECPPoint@CryptoPP@@@2@ABUECPPoint@2@@Z 4292b128 f i dll.obj
 0001:0002a217       ?Precompute@?$DL_FixedBasePrecomputationImpl@UECPPoint@CryptoPP@@@CryptoPP@@UAEXABV?$DL_GroupPrecomputation@UECPPoint@CryptoPP@@@2@II@Z 4292b217 f i dll.obj
 0001:0002a305       ?Load@?$DL_FixedBasePrecomputationImpl@UECPPoint@CryptoPP@@@CryptoPP@@UAEXABV?$DL_GroupPrecomputation@UECPPoint@CryptoPP@@@2@AAVBufferedTransformation@2@@Z 4292b305 f i dll.obj
 0001:0002a427       ?Save@?$DL_FixedBasePrecomputationImpl@UECPPoint@CryptoPP@@@CryptoPP@@UBEXABV?$DL_GroupPrecomputation@UECPPoint@CryptoPP@@@2@AAVBufferedTransformation@2@@Z 4292b427 f i dll.obj
 0001:0002a4d0       ?Exponentiate@?$DL_FixedBasePrecomputationImpl@UECPPoint@CryptoPP@@@CryptoPP@@UBE?AUECPPoint@2@ABV?$DL_GroupPrecomputation@UECPPoint@CryptoPP@@@2@ABVInteger@2@@Z 4292b4d0 f i dll.obj
 0001:0002a580       ?CascadeExponentiate@?$DL_FixedBasePrecomputationImpl@UECPPoint@CryptoPP@@@CryptoPP@@UBE?AUECPPoint@2@ABV?$DL_GroupPrecomputation@UECPPoint@CryptoPP@@@2@ABVInteger@2@ABV?$DL_FixedBasePrecomputation@UECPPoint@CryptoPP@@@2@1@Z 4292b580 f i dll.obj
 0001:0002a666       ?PrepareCascade@?$DL_FixedBasePrecomputationImpl@UECPPoint@CryptoPP@@@CryptoPP@@ABEXABV?$DL_GroupPrecomputation@UECPPoint@CryptoPP@@@2@AAV?$vector@U?$BaseAndExponent@UECPPoint@CryptoPP@@VInteger@2@@CryptoPP@@V?$allocator@U?$BaseAndExponent@UECPPoint@CryptoPP@@VInteger@2@@CryptoPP@@@std@@@std@@ABVInteger@2@@Z 4292b666 f i dll.obj
 0001:0002a8cd       ??4?$value_ptr@VECP@CryptoPP@@@CryptoPP@@QAEAAV01@ABV01@@Z 4292b8cd f i dll.obj
 0001:0002a943       ?MakeParameters@CryptoPP@@YA?AVAlgorithmParameters@1@PBDAB_N_N@Z 4292b943 f i dll.obj
 0001:0002a99e       ?Initialize@?$DL_GroupParameters_EC@VECP@CryptoPP@@@CryptoPP@@QAEXABVOID@2@@Z 4292b99e f i dll.obj
 0001:0002abcf       ?NewEC@?$EcRecommendedParameters@VECP@CryptoPP@@@CryptoPP@@QBEPAVECP@2@XZ 4292bbcf f i dll.obj
 0001:0002b5b6       ?secp192r1@ASN1@CryptoPP@@YA?AVOID@2@XZ 4292c5b6 f i dll.obj
 0001:0002b603       ??HCryptoPP@@YA?AVOID@0@ABV10@K@Z 4292c603 f i dll.obj
 0001:0002b663       ?ansi_x9_62_curves_prime@ASN1@CryptoPP@@YA?AVOID@2@XZ 4292c663 f i dll.obj
 0001:0002b6b0       ?ansi_x9_62_curves@ASN1@CryptoPP@@YA?AVOID@2@XZ 4292c6b0 f i dll.obj
 0001:0002b6fe       ?ansi_x9_62@ASN1@CryptoPP@@YA?AVOID@2@XZ 4292c6fe f i dll.obj
 0001:0002b751       ?iso_us@ASN1@CryptoPP@@YA?AVOID@2@XZ 4292c751 f i dll.obj
 0001:0002b7a4       ?member_body@ASN1@CryptoPP@@YA?AVOID@2@XZ 4292c7a4 f i dll.obj
 0001:0002b7f2       ?iso@ASN1@CryptoPP@@YA?AVOID@2@XZ 4292c7f2 f i dll.obj
 0001:0002b817       ?secp256r1@ASN1@CryptoPP@@YA?AVOID@2@XZ 4292c817 f i dll.obj
 0001:0002b865       ?brainpoolP160r1@ASN1@CryptoPP@@YA?AVOID@2@XZ 4292c865 f i dll.obj
 0001:0002b8cc       ?teletrust_ellipticCurve@ASN1@CryptoPP@@YA?AVOID@2@XZ 4292c8cc f i dll.obj
 0001:0002b96c       ?teletrust_algorithm@ASN1@CryptoPP@@YA?AVOID@2@XZ 4292c96c f i dll.obj
 0001:0002b9ba       ?teletrust@ASN1@CryptoPP@@YA?AVOID@2@XZ 4292c9ba f i dll.obj
 0001:0002ba08       ?identified_organization@ASN1@CryptoPP@@YA?AVOID@2@XZ 4292ca08 f i dll.obj
 0001:0002ba56       ?brainpoolP192r1@ASN1@CryptoPP@@YA?AVOID@2@XZ 4292ca56 f i dll.obj
 0001:0002babe       ?brainpoolP224r1@ASN1@CryptoPP@@YA?AVOID@2@XZ 4292cabe f i dll.obj
 0001:0002bb26       ?brainpoolP256r1@ASN1@CryptoPP@@YA?AVOID@2@XZ 4292cb26 f i dll.obj
 0001:0002bb8e       ?brainpoolP320r1@ASN1@CryptoPP@@YA?AVOID@2@XZ 4292cb8e f i dll.obj
 0001:0002bbf6       ?brainpoolP384r1@ASN1@CryptoPP@@YA?AVOID@2@XZ 4292cbf6 f i dll.obj
 0001:0002bc5e       ?brainpoolP512r1@ASN1@CryptoPP@@YA?AVOID@2@XZ 4292cc5e f i dll.obj
 0001:0002bcc6       ?secp112r1@ASN1@CryptoPP@@YA?AVOID@2@XZ 4292ccc6 f i dll.obj
 0001:0002bd14       ?certicom_ellipticCurve@ASN1@CryptoPP@@YA?AVOID@2@XZ 4292cd14 f i dll.obj
 0001:0002bd62       ?certicom@ASN1@CryptoPP@@YA?AVOID@2@XZ 4292cd62 f i dll.obj
 0001:0002bdb3       ?secp112r2@ASN1@CryptoPP@@YA?AVOID@2@XZ 4292cdb3 f i dll.obj
 0001:0002be01       ?secp160r1@ASN1@CryptoPP@@YA?AVOID@2@XZ 4292ce01 f i dll.obj
 0001:0002be4f       ?secp160k1@ASN1@CryptoPP@@YA?AVOID@2@XZ 4292ce4f f i dll.obj
 0001:0002be9d       ?secp256k1@ASN1@CryptoPP@@YA?AVOID@2@XZ 4292ce9d f i dll.obj
 0001:0002beeb       ?secp128r1@ASN1@CryptoPP@@YA?AVOID@2@XZ 4292ceeb f i dll.obj
 0001:0002bf39       ?secp128r2@ASN1@CryptoPP@@YA?AVOID@2@XZ 4292cf39 f i dll.obj
 0001:0002bf87       ?secp160r2@ASN1@CryptoPP@@YA?AVOID@2@XZ 4292cf87 f i dll.obj
 0001:0002bfd5       ?secp192k1@ASN1@CryptoPP@@YA?AVOID@2@XZ 4292cfd5 f i dll.obj
 0001:0002c023       ?secp224k1@ASN1@CryptoPP@@YA?AVOID@2@XZ 4292d023 f i dll.obj
 0001:0002c071       ?secp224r1@ASN1@CryptoPP@@YA?AVOID@2@XZ 4292d071 f i dll.obj
 0001:0002c0bf       ?secp384r1@ASN1@CryptoPP@@YA?AVOID@2@XZ 4292d0bf f i dll.obj
 0001:0002c10d       ?secp521r1@ASN1@CryptoPP@@YA?AVOID@2@XZ 4292d10d f i dll.obj
 0001:0002c15b       ??0?$EcRecommendedParameters@VECP@CryptoPP@@@CryptoPP@@QAE@ABVOID@1@PBD1111I@Z 4292d15b f i dll.obj
 0001:0002c1a8       ?GetVoidValue@?$DL_GroupParameters_EC@VECP@CryptoPP@@@CryptoPP@@UBE_NPBDABVtype_info@@PAX@Z 4292d1a8 f i dll.obj
 0001:0002c25a       ?AssignFrom@?$DL_GroupParameters_EC@VECP@CryptoPP@@@CryptoPP@@UAEXABVNameValuePairs@2@@Z 4292d25a f i dll.obj
 0001:0002c3df       ?Cofactor@Name@CryptoPP@@YAPBDXZ 4292d3df f i dll.obj
 0001:0002c3e5       ?GenerateRandom@?$DL_GroupParameters_EC@VECP@CryptoPP@@@CryptoPP@@UAEXAAVRandomNumberGenerator@2@ABVNameValuePairs@2@@Z 4292d3e5 f i dll.obj
 0001:0002c46c       ?GetCofactor@?$DL_GroupParameters_EC@VECP@CryptoPP@@@CryptoPP@@UBE?AVInteger@2@XZ 4292d46c f i dll.obj
 0001:0002c5c3       ?ValidateGroup@?$DL_GroupParameters_EC@VECP@CryptoPP@@@CryptoPP@@UBE_NAAVRandomNumberGenerator@2@I@Z 4292d5c3 f i dll.obj
 0001:0002c94a       ?ValidateElement@?$DL_GroupParameters_EC@VECP@CryptoPP@@@CryptoPP@@UBE_NIABUECPPoint@2@PBV?$DL_FixedBasePrecomputation@UECPPoint@CryptoPP@@@2@@Z 4292d94a f i dll.obj
 0001:0002ca97       ?ConvertElementToInteger@?$DL_GroupParameters_EC@VECP@CryptoPP@@@CryptoPP@@UBE?AVInteger@2@ABUECPPoint@2@@Z 4292da97 f i dll.obj
 0001:0002cacf       ?SimultaneousExponentiate@?$DL_GroupParameters_EC@VECP@CryptoPP@@@CryptoPP@@UBEXPAUECPPoint@2@ABU32@PBVInteger@2@I@Z 4292dacf f i dll.obj
 0001:0002caea       ?id_ecPublicKey@ASN1@CryptoPP@@YA?AVOID@2@XZ 4292daea f i dll.obj
 0001:0002cb37       ?id_publicKeyType@ASN1@CryptoPP@@YA?AVOID@2@XZ 4292db37 f i dll.obj
 0001:0002cb85       ?MultiplyElements@?$DL_GroupParameters_EC@VECP@CryptoPP@@@CryptoPP@@QBE?AUECPPoint@2@ABU32@0@Z 4292db85 f i dll.obj
 0001:0002cbab       ?CascadeExponentiate@?$DL_GroupParameters_EC@VECP@CryptoPP@@@CryptoPP@@QBE?AUECPPoint@2@ABU32@ABVInteger@2@01@Z 4292dbab f i dll.obj
 0001:0002cbd1       ?GetNextRecommendedParametersOID@?$DL_GroupParameters_EC@VECP@CryptoPP@@@CryptoPP@@SA?AVOID@2@ABV32@@Z 4292dbd1 f i dll.obj
 0001:0002cc59       ?BERDecode@?$DL_GroupParameters_EC@VECP@CryptoPP@@@CryptoPP@@QAEXAAVBufferedTransformation@2@@Z 4292dc59 f i dll.obj
 0001:0002ce0d       ?DEREncode@?$DL_GroupParameters_EC@VECP@CryptoPP@@@CryptoPP@@QBEXAAVBufferedTransformation@2@@Z 4292de0d f i dll.obj
 0001:0002cef6       ?Initialize@?$DL_GroupParameters_EC@VEC2N@CryptoPP@@@CryptoPP@@QAEXABVOID@2@@Z 4292def6 f i dll.obj
 0001:0002d12d       ?NewEC@?$EcRecommendedParameters@VEC2N@CryptoPP@@@CryptoPP@@QBEPAVEC2N@2@XZ 4292e12d f i dll.obj
 0001:0002da1b       ?sect163k1@ASN1@CryptoPP@@YA?AVOID@2@XZ 4292ea1b f i dll.obj
 0001:0002da68       ?sect163r1@ASN1@CryptoPP@@YA?AVOID@2@XZ 4292ea68 f i dll.obj
 0001:0002dab6       ?sect239k1@ASN1@CryptoPP@@YA?AVOID@2@XZ 4292eab6 f i dll.obj
 0001:0002db04       ?sect113r1@ASN1@CryptoPP@@YA?AVOID@2@XZ 4292eb04 f i dll.obj
 0001:0002db52       ?sect113r2@ASN1@CryptoPP@@YA?AVOID@2@XZ 4292eb52 f i dll.obj
 0001:0002dba0       ?sect163r2@ASN1@CryptoPP@@YA?AVOID@2@XZ 4292eba0 f i dll.obj
 0001:0002dbee       ?sect283k1@ASN1@CryptoPP@@YA?AVOID@2@XZ 4292ebee f i dll.obj
 0001:0002dc3c       ?sect283r1@ASN1@CryptoPP@@YA?AVOID@2@XZ 4292ec3c f i dll.obj
 0001:0002dc8a       ?sect131r1@ASN1@CryptoPP@@YA?AVOID@2@XZ 4292ec8a f i dll.obj
 0001:0002dcd8       ?sect131r2@ASN1@CryptoPP@@YA?AVOID@2@XZ 4292ecd8 f i dll.obj
 0001:0002dd26       ?sect193r1@ASN1@CryptoPP@@YA?AVOID@2@XZ 4292ed26 f i dll.obj
 0001:0002dd74       ?sect193r2@ASN1@CryptoPP@@YA?AVOID@2@XZ 4292ed74 f i dll.obj
 0001:0002ddc2       ?sect233k1@ASN1@CryptoPP@@YA?AVOID@2@XZ 4292edc2 f i dll.obj
 0001:0002de10       ?sect233r1@ASN1@CryptoPP@@YA?AVOID@2@XZ 4292ee10 f i dll.obj
 0001:0002de5e       ?sect409k1@ASN1@CryptoPP@@YA?AVOID@2@XZ 4292ee5e f i dll.obj
 0001:0002deac       ?sect409r1@ASN1@CryptoPP@@YA?AVOID@2@XZ 4292eeac f i dll.obj
 0001:0002defa       ?sect571k1@ASN1@CryptoPP@@YA?AVOID@2@XZ 4292eefa f i dll.obj
 0001:0002df48       ?sect571r1@ASN1@CryptoPP@@YA?AVOID@2@XZ 4292ef48 f i dll.obj
 0001:0002df96       ??0?$EcRecommendedParameters@VEC2N@CryptoPP@@@CryptoPP@@QAE@ABVOID@1@IIIPBD111I@Z 4292ef96 f i dll.obj
 0001:0002dfe3       ??0?$EcRecommendedParameters@VEC2N@CryptoPP@@@CryptoPP@@QAE@ABVOID@1@IIIIIPBD111I@Z 4292efe3 f i dll.obj
 0001:0002e048       ?GetVoidValue@?$DL_GroupParameters_EC@VEC2N@CryptoPP@@@CryptoPP@@UBE_NPBDABVtype_info@@PAX@Z 4292f048 f i dll.obj
 0001:0002e0fa       ?AssignFrom@?$DL_GroupParameters_EC@VEC2N@CryptoPP@@@CryptoPP@@UAEXABVNameValuePairs@2@@Z 4292f0fa f i dll.obj
 0001:0002e27b       ?GenerateRandom@?$DL_GroupParameters_EC@VEC2N@CryptoPP@@@CryptoPP@@UAEXAAVRandomNumberGenerator@2@ABVNameValuePairs@2@@Z 4292f27b f i dll.obj
 0001:0002e302       ?GetCofactor@?$DL_GroupParameters_EC@VEC2N@CryptoPP@@@CryptoPP@@UBE?AVInteger@2@XZ 4292f302 f i dll.obj
 0001:0002e459       ?ValidateGroup@?$DL_GroupParameters_EC@VEC2N@CryptoPP@@@CryptoPP@@UBE_NAAVRandomNumberGenerator@2@I@Z 4292f459 f i dll.obj
 0001:0002e675       ?ValidateElement@?$DL_GroupParameters_EC@VEC2N@CryptoPP@@@CryptoPP@@UBE_NIABUEC2NPoint@2@PBV?$DL_FixedBasePrecomputation@UEC2NPoint@CryptoPP@@@2@@Z 4292f675 f i dll.obj
 0001:0002e7b3       ?ConvertElementToInteger@?$DL_GroupParameters_EC@VEC2N@CryptoPP@@@CryptoPP@@UBE?AVInteger@2@ABUEC2NPoint@2@@Z 4292f7b3 f i dll.obj
 0001:0002e839       ?SimultaneousExponentiate@?$DL_GroupParameters_EC@VEC2N@CryptoPP@@@CryptoPP@@UBEXPAUEC2NPoint@2@ABU32@PBVInteger@2@I@Z 4292f839 f i dll.obj
 0001:0002e855       ?GetAlgorithmID@?$DL_GroupParameters_EC@VEC2N@CryptoPP@@@CryptoPP@@QBE?AVOID@2@XZ 4292f855 f i dll.obj
 0001:0002e855       ?GetAlgorithmID@?$DL_GroupParameters_EC@VECP@CryptoPP@@@CryptoPP@@QBE?AVOID@2@XZ 4292f855 f i dll.obj
 0001:0002e86d       ?MultiplyElements@?$DL_GroupParameters_EC@VEC2N@CryptoPP@@@CryptoPP@@QBE?AUEC2NPoint@2@ABU32@0@Z 4292f86d f i dll.obj
 0001:0002e894       ?CascadeExponentiate@?$DL_GroupParameters_EC@VEC2N@CryptoPP@@@CryptoPP@@QBE?AUEC2NPoint@2@ABU32@ABVInteger@2@01@Z 4292f894 f i dll.obj
 0001:0002e8ba       ?GetNextRecommendedParametersOID@?$DL_GroupParameters_EC@VEC2N@CryptoPP@@@CryptoPP@@SA?AVOID@2@ABV32@@Z 4292f8ba f i dll.obj
 0001:0002e942       ?BERDecode@?$DL_GroupParameters_EC@VEC2N@CryptoPP@@@CryptoPP@@QAEXAAVBufferedTransformation@2@@Z 4292f942 f i dll.obj
 0001:0002eaf6       ?DEREncode@?$DL_GroupParameters_EC@VEC2N@CryptoPP@@@CryptoPP@@QBEXAAVBufferedTransformation@2@@Z 4292faf6 f i dll.obj
 0001:0002ebe4       ?BERDecodePublicKey@?$DL_PublicKey_EC@VECP@CryptoPP@@@CryptoPP@@UAEXAAVBufferedTransformation@2@_NI@Z 4292fbe4 f i dll.obj
 0001:0002ec56       ?DEREncodePublicKey@?$DL_PublicKey_EC@VECP@CryptoPP@@@CryptoPP@@UBEXAAVBufferedTransformation@2@@Z 4292fc56 f i dll.obj
 0001:0002ec82       ?BERDecodePublicKey@?$DL_PublicKey_EC@VEC2N@CryptoPP@@@CryptoPP@@UAEXAAVBufferedTransformation@2@_NI@Z 4292fc82 f i dll.obj
 0001:0002ecf4       ?DEREncodePublicKey@?$DL_PublicKey_EC@VEC2N@CryptoPP@@@CryptoPP@@UBEXAAVBufferedTransformation@2@@Z 4292fcf4 f i dll.obj
 0001:0002ed20       ?BERDecodePrivateKey@?$DL_PrivateKey_EC@VECP@CryptoPP@@@CryptoPP@@UAEXAAVBufferedTransformation@2@_NI@Z 4292fd20 f i dll.obj
 0001:0002ef24       ?DEREncodePrivateKey@?$DL_PrivateKey_EC@VECP@CryptoPP@@@CryptoPP@@UBEXAAVBufferedTransformation@2@@Z 4292ff24 f i dll.obj
 0001:0002efac       ?BERDecodePrivateKey@?$DL_PrivateKey_EC@VEC2N@CryptoPP@@@CryptoPP@@UAEXAAVBufferedTransformation@2@_NI@Z 4292ffac f i dll.obj
 0001:0002f1ad       ?DEREncodePrivateKey@?$DL_PrivateKey_EC@VEC2N@CryptoPP@@@CryptoPP@@UBEXAAVBufferedTransformation@2@@Z 429301ad f i dll.obj
 0001:0002f235       ??1?$member_ptr@V?$basic_ofstream@DU?$char_traits@D@std@@@std@@@CryptoPP@@QAE@XZ 42930235 f i dll.obj
 0001:0002f235       ??1?$member_ptr@V?$basic_ifstream@DU?$char_traits@D@std@@@std@@@CryptoPP@@QAE@XZ 42930235 f i dll.obj
 0001:0002f249       ?MakeParameters@CryptoPP@@YA?AVAlgorithmParameters@1@PBDABQAV?$basic_istream@DU?$char_traits@D@std@@@std@@_N@Z 42930249 f i dll.obj
 0001:0002f2a4       ?MakeParameters@CryptoPP@@YA?AVAlgorithmParameters@1@PBDABQBD_N@Z 429302a4 f i dll.obj
 0001:0002f2ff       ?MakeParameters@CryptoPP@@YA?AVAlgorithmParameters@1@PBDABQAV?$basic_ostream@DU?$char_traits@D@std@@@std@@_N@Z 429302ff f i dll.obj
 0001:0002f35a       ?Reseed@?$AutoSeededX917RNG@VRijndael@CryptoPP@@@CryptoPP@@QAEXPBEI00@Z 4293035a f i dll.obj
 0001:0002f40a       ?Reseed@?$AutoSeededX917RNG@VRijndael@CryptoPP@@@CryptoPP@@QAEX_NPBEI@Z 4293040a f i dll.obj
 0001:0002f4f9       ?SecureWipeArray@CryptoPP@@YAXPAGI@Z 429304f9 f i dll.obj
 0001:0002f54f       ?StandardReallocate@CryptoPP@@YAPAGAAV?$AllocatorWithCleanup@G$0A@@1@PAGII_N@Z 4293054f f i dll.obj
 0001:0002f5ed       ?StandardReallocate@CryptoPP@@YAPA_KAAV?$AllocatorWithCleanup@_K$0A@@1@PA_KII_N@Z 429305ed f i dll.obj
 0001:0002f692       ?MakeParameters@CryptoPP@@YA?AVAlgorithmParameters@1@PBDABVInteger@1@_N@Z 42930692 f i dll.obj
 0001:0002f6ed       ??RAlgorithmParameters@CryptoPP@@QAEAAV01@PBDABVInteger@1@@Z 429306ed f i dll.obj
 0001:0002f701       ?GetThisObject@NameValuePairs@CryptoPP@@QBE_NAAV?$DL_GroupParameters_EC@VECP@CryptoPP@@@2@@Z 42930701 f i dll.obj
 0001:0002f7a9       ?GetThisObject@NameValuePairs@CryptoPP@@QBE_NAAV?$DL_GroupParameters_EC@VEC2N@CryptoPP@@@2@@Z 429307a9 f i dll.obj
 0001:0002f851       ?copy@std@@YA?AV?$insert_iterator@V?$deque@_KV?$allocator@_K@std@@@std@@@1@Vconst_iterator@?$deque@_KV?$allocator@_K@std@@@1@0V21@@Z 42930851 f i dll.obj
 0001:0002f8a7       ?copy@std@@YA?AV?$insert_iterator@V?$deque@IV?$allocator@I@std@@@std@@@1@Vconst_iterator@?$deque@IV?$allocator@I@std@@@1@0V21@@Z 429308a7 f i dll.obj
 0001:0002f8fd       ?Ref@?$Singleton@V?$DL_Algorithm_ECDSA@VECP@CryptoPP@@@CryptoPP@@U?$NewObject@V?$DL_Algorithm_ECDSA@VECP@CryptoPP@@@CryptoPP@@@2@$0A@@CryptoPP@@QBAABV?$DL_Algorithm_ECDSA@VECP@CryptoPP@@@2@ZZ 429308fd f i dll.obj
 0001:0002f94f       ?Ref@?$Singleton@V?$DL_Algorithm_ECDSA@VEC2N@CryptoPP@@@CryptoPP@@U?$NewObject@V?$DL_Algorithm_ECDSA@VEC2N@CryptoPP@@@CryptoPP@@@2@$0A@@CryptoPP@@QBAABV?$DL_Algorithm_ECDSA@VEC2N@CryptoPP@@@2@ZZ 4293094f f i dll.obj
 0001:0002f9a1       ?_Construct@std@@YAXPAUEC2NPoint@CryptoPP@@ABU23@@Z 429309a1 f i dll.obj
 0001:0002f9ce       ?_Construct@std@@YAXPAUECPPoint@CryptoPP@@ABU23@@Z 429309ce f i dll.obj
 0001:0002f9fb       ?s_pObject@?1??Ref@?$Singleton@V?$DL_Algorithm_ECDSA@VEC2N@CryptoPP@@@CryptoPP@@U?$NewObject@V?$DL_Algorithm_ECDSA@VEC2N@CryptoPP@@@CryptoPP@@@2@$0A@@CryptoPP@@QBAABV?$DL_Algorithm_ECDSA@VEC2N@CryptoPP@@@2@ZZ@$AV?$simple_ptr@V?$DL_Algorithm_ECDSA@VEC2N@CryptoPP@@@CryptoPP@@@2@C 429309fb f i dll.obj
 0001:0002fa10       ?s_pObject@?1??Ref@?$Singleton@V?$DL_Algorithm_ECDSA@VECP@CryptoPP@@@CryptoPP@@U?$NewObject@V?$DL_Algorithm_ECDSA@VECP@CryptoPP@@@CryptoPP@@@2@$0A@@CryptoPP@@QBAABV?$DL_Algorithm_ECDSA@VECP@CryptoPP@@@2@ZZ@$AV?$simple_ptr@V?$DL_Algorithm_ECDSA@VECP@CryptoPP@@@CryptoPP@@@2@C 42930a10 f i dll.obj
 0001:0002fa25       ??1WindowSlider@CryptoPP@@QAE@XZ 42930a25 f i dll.obj
 0001:0002fa69       ??1?$BaseAndExponent@VInteger@CryptoPP@@V12@@CryptoPP@@QAE@XZ 42930a69 f i dll.obj
 0001:0002faad       ??1?$BaseAndExponent@UEC2NPoint@CryptoPP@@VInteger@2@@CryptoPP@@QAE@XZ 42930aad f i dll.obj
 0001:0002faed       ??1?$BaseAndExponent@UECPPoint@CryptoPP@@VInteger@2@@CryptoPP@@QAE@XZ 42930aed f i dll.obj
 0001:0002fb2d       ??_GEC2NPoint@CryptoPP@@QAEPAXI@Z 42930b2d f i dll.obj
 0001:0002fb4a       ??_GECPPoint@CryptoPP@@QAEPAXI@Z 42930b4a f i dll.obj
 0001:0002fb67       ??0?$vector@VInteger@CryptoPP@@V?$allocator@VInteger@CryptoPP@@@std@@@std@@QAE@IABVInteger@CryptoPP@@ABV?$allocator@VInteger@CryptoPP@@@1@@Z 42930b67 f i dll.obj
 0001:0002fbd4       ?resize@?$vector@VInteger@CryptoPP@@V?$allocator@VInteger@CryptoPP@@@std@@@std@@QAEXIABVInteger@CryptoPP@@@Z 42930bd4 f i dll.obj
 0001:0002fc41       ?push_back@?$vector@VInteger@CryptoPP@@V?$allocator@VInteger@CryptoPP@@@std@@@std@@QAEXABVInteger@CryptoPP@@@Z 42930c41 f i dll.obj
 0001:0002fc52       ??0?$vector@UEC2NPoint@CryptoPP@@V?$allocator@UEC2NPoint@CryptoPP@@@std@@@std@@QAE@IABUEC2NPoint@CryptoPP@@ABV?$allocator@UEC2NPoint@CryptoPP@@@1@@Z 42930c52 f i dll.obj
 0001:0002fcbb       ?resize@?$vector@UEC2NPoint@CryptoPP@@V?$allocator@UEC2NPoint@CryptoPP@@@std@@@std@@QAEXIABUEC2NPoint@CryptoPP@@@Z 42930cbb f i dll.obj
 0001:0002fd27       ?push_back@?$vector@UEC2NPoint@CryptoPP@@V?$allocator@UEC2NPoint@CryptoPP@@@std@@@std@@QAEXABUEC2NPoint@CryptoPP@@@Z 42930d27 f i dll.obj
 0001:0002fd38       ??0?$vector@UECPPoint@CryptoPP@@V?$allocator@UECPPoint@CryptoPP@@@std@@@std@@QAE@IABUECPPoint@CryptoPP@@ABV?$allocator@UECPPoint@CryptoPP@@@1@@Z 42930d38 f i dll.obj
 0001:0002fda1       ?resize@?$vector@UECPPoint@CryptoPP@@V?$allocator@UECPPoint@CryptoPP@@@std@@@std@@QAEXIABUECPPoint@CryptoPP@@@Z 42930da1 f i dll.obj
 0001:0002fe0d       ?push_back@?$vector@UECPPoint@CryptoPP@@V?$allocator@UECPPoint@CryptoPP@@@std@@@std@@QAEXABUECPPoint@CryptoPP@@@Z 42930e0d f i dll.obj
 0001:0002fe1e       ??Econst_iterator@?$deque@_KV?$allocator@_K@std@@@std@@QAEAAV012@XZ 42930e1e f i dll.obj
 0001:0002fe1e       ??Eiterator@?$deque@_KV?$allocator@_K@std@@@std@@QAEAAV012@XZ 42930e1e f i dll.obj
 0001:0002fe46       ??Eiterator@?$deque@IV?$allocator@I@std@@@std@@QAEAAV012@XZ 42930e46 f i dll.obj
 0001:0002fe46       ??Econst_iterator@?$deque@IV?$allocator@I@std@@@std@@QAEAAV012@XZ 42930e46 f i dll.obj
 0001:0002fe6e       ??Fiterator@?$deque@IV?$allocator@I@std@@@std@@QAEAAV012@XZ 42930e6e f i dll.obj
 0001:0002fe93       ??0?$GetValueHelperClass@V?$DL_PublicKeyImpl@V?$DL_GroupParameters_EC@VECP@CryptoPP@@@CryptoPP@@@CryptoPP@@V?$DL_PublicKey@UECPPoint@CryptoPP@@@2@@CryptoPP@@QAE@PBV?$DL_PublicKeyImpl@V?$DL_GroupParameters_EC@VECP@CryptoPP@@@CryptoPP@@@1@PBDABVtype_info@@PAXPBVNameValuePairs@1@@Z 42930e93 f i dll.obj
 0001:00030015       ??0?$AssignFromHelperClass@V?$DL_PublicKeyImpl@V?$DL_GroupParameters_EC@VECP@CryptoPP@@@CryptoPP@@@CryptoPP@@V?$DL_PublicKey@UECPPoint@CryptoPP@@@2@@CryptoPP@@QAE@PAV?$DL_PublicKeyImpl@V?$DL_GroupParameters_EC@VECP@CryptoPP@@@CryptoPP@@@1@ABVNameValuePairs@1@@Z 42931015 f i dll.obj
 0001:00030060       ??0?$GetValueHelperClass@V?$DL_PublicKeyImpl@V?$DL_GroupParameters_EC@VEC2N@CryptoPP@@@CryptoPP@@@CryptoPP@@V?$DL_PublicKey@UEC2NPoint@CryptoPP@@@2@@CryptoPP@@QAE@PBV?$DL_PublicKeyImpl@V?$DL_GroupParameters_EC@VEC2N@CryptoPP@@@CryptoPP@@@1@PBDABVtype_info@@PAXPBVNameValuePairs@1@@Z 42931060 f i dll.obj
 0001:000301e2       ??0?$AssignFromHelperClass@V?$DL_PublicKeyImpl@V?$DL_GroupParameters_EC@VEC2N@CryptoPP@@@CryptoPP@@@CryptoPP@@V?$DL_PublicKey@UEC2NPoint@CryptoPP@@@2@@CryptoPP@@QAE@PAV?$DL_PublicKeyImpl@V?$DL_GroupParameters_EC@VEC2N@CryptoPP@@@CryptoPP@@@1@ABVNameValuePairs@1@@Z 429311e2 f i dll.obj
 0001:0003022d       ??0?$GetValueHelperClass@V?$DL_PrivateKeyImpl@V?$DL_GroupParameters_EC@VECP@CryptoPP@@@CryptoPP@@@CryptoPP@@V?$DL_PrivateKey@UECPPoint@CryptoPP@@@2@@CryptoPP@@QAE@PBV?$DL_PrivateKeyImpl@V?$DL_GroupParameters_EC@VECP@CryptoPP@@@CryptoPP@@@1@PBDABVtype_info@@PAXPBVNameValuePairs@1@@Z 4293122d f i dll.obj
 0001:000303af       ??0?$AssignFromHelperClass@V?$DL_PrivateKeyImpl@V?$DL_GroupParameters_EC@VECP@CryptoPP@@@CryptoPP@@@CryptoPP@@V?$DL_PrivateKey@UECPPoint@CryptoPP@@@2@@CryptoPP@@QAE@PAV?$DL_PrivateKeyImpl@V?$DL_GroupParameters_EC@VECP@CryptoPP@@@CryptoPP@@@1@ABVNameValuePairs@1@@Z 429313af f i dll.obj
 0001:000303fa       ??0?$GetValueHelperClass@V?$DL_PrivateKeyImpl@V?$DL_GroupParameters_EC@VEC2N@CryptoPP@@@CryptoPP@@@CryptoPP@@V?$DL_PrivateKey@UEC2NPoint@CryptoPP@@@2@@CryptoPP@@QAE@PBV?$DL_PrivateKeyImpl@V?$DL_GroupParameters_EC@VEC2N@CryptoPP@@@CryptoPP@@@1@PBDABVtype_info@@PAXPBVNameValuePairs@1@@Z 429313fa f i dll.obj
 0001:0003057c       ??0?$AssignFromHelperClass@V?$DL_PrivateKeyImpl@V?$DL_GroupParameters_EC@VEC2N@CryptoPP@@@CryptoPP@@@CryptoPP@@V?$DL_PrivateKey@UEC2NPoint@CryptoPP@@@2@@CryptoPP@@QAE@PAV?$DL_PrivateKeyImpl@V?$DL_GroupParameters_EC@VEC2N@CryptoPP@@@CryptoPP@@@1@ABVNameValuePairs@1@@Z 4293157c f i dll.obj
 0001:000305c7       ??R?$NewObject@V?$DL_Algorithm_ECDSA@VECP@CryptoPP@@@CryptoPP@@@CryptoPP@@QBEPAV?$DL_Algorithm_ECDSA@VECP@CryptoPP@@@1@XZ 429315c7 f i dll.obj
 0001:000305ec       ??R?$NewObject@V?$DL_Algorithm_ECDSA@VEC2N@CryptoPP@@@CryptoPP@@@CryptoPP@@QBEPAV?$DL_Algorithm_ECDSA@VEC2N@CryptoPP@@@1@XZ 429315ec f i dll.obj
 0001:00030611       ??0?$vector@V?$vector@VInteger@CryptoPP@@V?$allocator@VInteger@CryptoPP@@@std@@@std@@V?$allocator@V?$vector@VInteger@CryptoPP@@V?$allocator@VInteger@CryptoPP@@@std@@@std@@@2@@std@@QAE@IABV?$vector@VInteger@CryptoPP@@V?$allocator@VInteger@CryptoPP@@@std@@@1@ABV?$allocator@V?$vector@VInteger@CryptoPP@@V?$allocator@VInteger@CryptoPP@@@std@@@std@@@1@@Z 42931611 f i dll.obj
 0001:0003067a       ??1?$vector@V?$vector@VInteger@CryptoPP@@V?$allocator@VInteger@CryptoPP@@@std@@@std@@V?$allocator@V?$vector@VInteger@CryptoPP@@V?$allocator@VInteger@CryptoPP@@@std@@@std@@@2@@std@@QAE@XZ 4293167a f i dll.obj
 0001:000306ae       ??1?$vector@UWindowSlider@CryptoPP@@V?$allocator@UWindowSlider@CryptoPP@@@std@@@std@@QAE@XZ 429316ae f i dll.obj
 0001:000306e2       ?reserve@?$vector@UWindowSlider@CryptoPP@@V?$allocator@UWindowSlider@CryptoPP@@@std@@@std@@QAEXI@Z 429316e2 f i dll.obj
 0001:000307b1       ??1?$vector@U?$BaseAndExponent@VInteger@CryptoPP@@V12@@CryptoPP@@V?$allocator@U?$BaseAndExponent@VInteger@CryptoPP@@V12@@CryptoPP@@@std@@@std@@QAE@XZ 429317b1 f i dll.obj
 0001:000307e5       ?reserve@?$vector@U?$BaseAndExponent@VInteger@CryptoPP@@V12@@CryptoPP@@V?$allocator@U?$BaseAndExponent@VInteger@CryptoPP@@V12@@CryptoPP@@@std@@@std@@QAEXI@Z 429317e5 f i dll.obj
 0001:000308ae       ?push_back@?$vector@U?$BaseAndExponent@VInteger@CryptoPP@@V12@@CryptoPP@@V?$allocator@U?$BaseAndExponent@VInteger@CryptoPP@@V12@@CryptoPP@@@std@@@std@@QAEXABU?$BaseAndExponent@VInteger@CryptoPP@@V12@@CryptoPP@@@Z 429318ae f i dll.obj
 0001:000308bf       ??0?$vector@VPolynomialMod2@CryptoPP@@V?$allocator@VPolynomialMod2@CryptoPP@@@std@@@std@@QAE@IABVPolynomialMod2@CryptoPP@@ABV?$allocator@VPolynomialMod2@CryptoPP@@@1@@Z 429318bf f i dll.obj
 0001:0003092c       ??1?$vector@VPolynomialMod2@CryptoPP@@V?$allocator@VPolynomialMod2@CryptoPP@@@std@@@std@@QAE@XZ 4293192c f i dll.obj
 0001:00030960       ?resize@?$vector@VPolynomialMod2@CryptoPP@@V?$allocator@VPolynomialMod2@CryptoPP@@@std@@@std@@QAEXIABVPolynomialMod2@CryptoPP@@@Z 42931960 f i dll.obj
 0001:000309cd       ??0?$vector@V?$vector@VPolynomialMod2@CryptoPP@@V?$allocator@VPolynomialMod2@CryptoPP@@@std@@@std@@V?$allocator@V?$vector@VPolynomialMod2@CryptoPP@@V?$allocator@VPolynomialMod2@CryptoPP@@@std@@@std@@@2@@std@@QAE@IABV?$vector@VPolynomialMod2@CryptoPP@@V?$allocator@VPolynomialMod2@CryptoPP@@@std@@@1@ABV?$allocator@V?$vector@VPolynomialMod2@CryptoPP@@V?$allocator@VPolynomialMod2@CryptoPP@@@std@@@std@@@1@@Z 429319cd f i dll.obj
 0001:00030a36       ??1?$vector@V?$vector@VPolynomialMod2@CryptoPP@@V?$allocator@VPolynomialMod2@CryptoPP@@@std@@@std@@V?$allocator@V?$vector@VPolynomialMod2@CryptoPP@@V?$allocator@VPolynomialMod2@CryptoPP@@@std@@@std@@@2@@std@@QAE@XZ 42931a36 f i dll.obj
 0001:00030a6a       ??0?$vector@V?$vector@UEC2NPoint@CryptoPP@@V?$allocator@UEC2NPoint@CryptoPP@@@std@@@std@@V?$allocator@V?$vector@UEC2NPoint@CryptoPP@@V?$allocator@UEC2NPoint@CryptoPP@@@std@@@std@@@2@@std@@QAE@IABV?$vector@UEC2NPoint@CryptoPP@@V?$allocator@UEC2NPoint@CryptoPP@@@std@@@1@ABV?$allocator@V?$vector@UEC2NPoint@CryptoPP@@V?$allocator@UEC2NPoint@CryptoPP@@@std@@@std@@@1@@Z 42931a6a f i dll.obj
 0001:00030ad3       ??1?$vector@V?$vector@UEC2NPoint@CryptoPP@@V?$allocator@UEC2NPoint@CryptoPP@@@std@@@std@@V?$allocator@V?$vector@UEC2NPoint@CryptoPP@@V?$allocator@UEC2NPoint@CryptoPP@@@std@@@std@@@2@@std@@QAE@XZ 42931ad3 f i dll.obj
 0001:00030b07       ??1?$vector@U?$BaseAndExponent@UEC2NPoint@CryptoPP@@VInteger@2@@CryptoPP@@V?$allocator@U?$BaseAndExponent@UEC2NPoint@CryptoPP@@VInteger@2@@CryptoPP@@@std@@@std@@QAE@XZ 42931b07 f i dll.obj
 0001:00030b3b       ?reserve@?$vector@U?$BaseAndExponent@UEC2NPoint@CryptoPP@@VInteger@2@@CryptoPP@@V?$allocator@U?$BaseAndExponent@UEC2NPoint@CryptoPP@@VInteger@2@@CryptoPP@@@std@@@std@@QAEXI@Z 42931b3b f i dll.obj
 0001:00030c08       ?push_back@?$vector@U?$BaseAndExponent@UEC2NPoint@CryptoPP@@VInteger@2@@CryptoPP@@V?$allocator@U?$BaseAndExponent@UEC2NPoint@CryptoPP@@VInteger@2@@CryptoPP@@@std@@@std@@QAEXABU?$BaseAndExponent@UEC2NPoint@CryptoPP@@VInteger@2@@CryptoPP@@@Z 42931c08 f i dll.obj
 0001:00030c19       ??0?$vector@V?$vector@UECPPoint@CryptoPP@@V?$allocator@UECPPoint@CryptoPP@@@std@@@std@@V?$allocator@V?$vector@UECPPoint@CryptoPP@@V?$allocator@UECPPoint@CryptoPP@@@std@@@std@@@2@@std@@QAE@IABV?$vector@UECPPoint@CryptoPP@@V?$allocator@UECPPoint@CryptoPP@@@std@@@1@ABV?$allocator@V?$vector@UECPPoint@CryptoPP@@V?$allocator@UECPPoint@CryptoPP@@@std@@@std@@@1@@Z 42931c19 f i dll.obj
 0001:00030c82       ??1?$vector@V?$vector@UECPPoint@CryptoPP@@V?$allocator@UECPPoint@CryptoPP@@@std@@@std@@V?$allocator@V?$vector@UECPPoint@CryptoPP@@V?$allocator@UECPPoint@CryptoPP@@@std@@@std@@@2@@std@@QAE@XZ 42931c82 f i dll.obj
 0001:00030cb6       ??1?$vector@U?$BaseAndExponent@UECPPoint@CryptoPP@@VInteger@2@@CryptoPP@@V?$allocator@U?$BaseAndExponent@UECPPoint@CryptoPP@@VInteger@2@@CryptoPP@@@std@@@std@@QAE@XZ 42931cb6 f i dll.obj
 0001:00030cea       ?reserve@?$vector@U?$BaseAndExponent@UECPPoint@CryptoPP@@VInteger@2@@CryptoPP@@V?$allocator@U?$BaseAndExponent@UECPPoint@CryptoPP@@VInteger@2@@CryptoPP@@@std@@@std@@QAEXI@Z 42931cea f i dll.obj
 0001:00030da8       ?push_back@?$vector@U?$BaseAndExponent@UECPPoint@CryptoPP@@VInteger@2@@CryptoPP@@V?$allocator@U?$BaseAndExponent@UECPPoint@CryptoPP@@VInteger@2@@CryptoPP@@@std@@@std@@QAEXABU?$BaseAndExponent@UECPPoint@CryptoPP@@VInteger@2@@CryptoPP@@@Z 42931da8 f i dll.obj
 0001:00030db9       ?Assignable@?$GetValueHelperClass@V?$DL_GroupParameters_EC@VECP@CryptoPP@@@CryptoPP@@V?$DL_GroupParameters@UECPPoint@CryptoPP@@@2@@CryptoPP@@QAEAAV12@XZ 42931db9 f i dll.obj
 0001:00030e68       ??1?$auto_ptr@VECP@CryptoPP@@@std@@QAE@XZ 42931e68 f i dll.obj
 0001:00030e68       ??1?$auto_ptr@VHashTransformation@CryptoPP@@@std@@QAE@XZ 42931e68 f i dll.obj
 0001:00030e68       ??1?$auto_ptr@VMessageAuthenticationCode@CryptoPP@@@std@@QAE@XZ 42931e68 f i dll.obj
 0001:00030e68       ??1?$auto_ptr@VMaskGeneratingFunction@CryptoPP@@@std@@QAE@XZ 42931e68 f i dll.obj
 0001:00030e68       ??1?$auto_ptr@VEC2N@CryptoPP@@@std@@QAE@XZ 42931e68 f i dll.obj
 0001:00030e68       ??1?$auto_ptr@VPK_MessageAccumulator@CryptoPP@@@std@@QAE@XZ 42931e68 f i dll.obj
 0001:00030e68       ??1?$auto_ptr@VPK_MessageAccumulatorBase@CryptoPP@@@std@@QAE@XZ 42931e68 f i dll.obj
 0001:00030e68       ??1?$auto_ptr@VOutputProxy@CryptoPP@@@std@@QAE@XZ 42931e68 f i dll.obj
 0001:00030e7b       ?Assignable@?$GetValueHelperClass@V?$DL_GroupParameters_EC@VEC2N@CryptoPP@@@CryptoPP@@V?$DL_GroupParameters@UEC2NPoint@CryptoPP@@@2@@CryptoPP@@QAEAAV12@XZ 42931e7b f i dll.obj
 0001:00030f2a       ??0?$BlockCipherFinal@$0A@VEnc@Rijndael@CryptoPP@@@CryptoPP@@QAE@PBEI@Z 42931f2a f i dll.obj
 0001:00030f75       ?DefaultKeyLength@?$SimpleKeyingInterfaceImpl@V?$TwoBases@VBlockCipher@CryptoPP@@URijndael_Info@2@@CryptoPP@@V12@@CryptoPP@@UBEIXZ 42931f75 f i dll.obj
 0001:00030f75       ?DigestSize@GCM_Base@CryptoPP@@UBEIXZ 42931f75 f i dll.obj
 0001:00030f75       ?MinKeyLength@?$SimpleKeyingInterfaceImpl@V?$TwoBases@VBlockCipher@CryptoPP@@URijndael_Info@2@@CryptoPP@@V12@@CryptoPP@@UBEIXZ 42931f75 f i dll.obj
 0001:00030f75       ?AuthenticationBlockSize@GCM_Base@CryptoPP@@MBEIXZ 42931f75 f i dll.obj
 0001:00030f75       ?DefaultKeyLength@?$SimpleKeyingInterfaceImpl@VHMAC_Base@CryptoPP@@V?$HMAC@VSHA1@CryptoPP@@@2@@CryptoPP@@UBEIXZ 42931f75 f i dll.obj
 0001:00030f75       ?BlockSize@?$BlockCipherImpl@URijndael_Info@CryptoPP@@VBlockCipher@2@@CryptoPP@@UBEIXZ 42931f75 f i dll.obj
 0001:00030f79       ?AlgorithmName@?$AlgorithmImpl@V?$SimpleKeyingInterfaceImpl@V?$TwoBases@VBlockCipher@CryptoPP@@URijndael_Info@2@@CryptoPP@@V12@@CryptoPP@@V12@@CryptoPP@@UBE?AV?$basic_string@DU?$char_traits@D@std@@V?$allocator@D@2@@std@@XZ 42931f79 f i dll.obj
 0001:00030fb1       ?DigestSize@?$IteratedHashWithStaticTransform@IU?$EnumToType@W4ByteOrder@CryptoPP@@$00@CryptoPP@@$0EA@$0CA@VSHA256@2@$0CA@$00@CryptoPP@@UBEIXZ 42931fb1 f i dll.obj
 0001:00030fb1       ?GetDigestSize@?$DL_ObjectImplBase@V?$DL_SignerBase@UECPPoint@CryptoPP@@@CryptoPP@@U?$DL_SignatureSchemeOptions@V?$DL_SS@U?$DL_Keys_ECDSA@VECP@CryptoPP@@@CryptoPP@@V?$DL_Algorithm_ECDSA@VECP@CryptoPP@@@2@VDL_SignatureMessageEncodingMethod_DSA@2@VSHA256@2@H@CryptoPP@@U?$DL_Keys_ECDSA@VECP@CryptoPP@@@2@V?$DL_Algorithm_ECDSA@VECP@CryptoPP@@@2@VDL_SignatureMessageEncodingMethod_DSA@2@VSHA256@2@@2@V?$DL_PrivateKey_WithSignaturePairwiseConsistencyTest@V?$DL_PrivateKey_EC@VECP@CryptoPP@@@CryptoPP@@U?$ECDSA@VECP@CryptoPP@@VSHA256@2@@2@@2@@CryptoPP@@MBEIXZ 42931fb1 f i dll.obj
 0001:00030fb1       ?GetDigestSize@?$DL_ObjectImplBase@V?$DL_VerifierBase@UEC2NPoint@CryptoPP@@@CryptoPP@@U?$DL_SignatureSchemeOptions@V?$DL_SS@U?$DL_Keys_ECDSA@VEC2N@CryptoPP@@@CryptoPP@@V?$DL_Algorithm_ECDSA@VEC2N@CryptoPP@@@2@VDL_SignatureMessageEncodingMethod_DSA@2@VSHA256@2@H@CryptoPP@@U?$DL_Keys_ECDSA@VEC2N@CryptoPP@@@2@V?$DL_Algorithm_ECDSA@VEC2N@CryptoPP@@@2@VDL_SignatureMessageEncodingMethod_DSA@2@VSHA256@2@@2@V?$DL_PublicKey_EC@VEC2N@CryptoPP@@@2@@CryptoPP@@MBEIXZ 42931fb1 f i dll.obj
 0001:00030fb1       ?MaxKeyLength@?$SimpleKeyingInterfaceImpl@V?$TwoBases@VBlockCipher@CryptoPP@@URijndael_Info@2@@CryptoPP@@V12@@CryptoPP@@UBEIXZ 42931fb1 f i dll.obj
 0001:00030fb1       ?GetDigestSize@?$DL_ObjectImplBase@V?$DL_VerifierBase@UECPPoint@CryptoPP@@@CryptoPP@@U?$DL_SignatureSchemeOptions@V?$DL_SS@U?$DL_Keys_ECDSA@VECP@CryptoPP@@@CryptoPP@@V?$DL_Algorithm_ECDSA@VECP@CryptoPP@@@2@VDL_SignatureMessageEncodingMethod_DSA@2@VSHA256@2@H@CryptoPP@@U?$DL_Keys_ECDSA@VECP@CryptoPP@@@2@V?$DL_Algorithm_ECDSA@VECP@CryptoPP@@@2@VDL_SignatureMessageEncodingMethod_DSA@2@VSHA256@2@@2@V?$DL_PublicKey_EC@VECP@CryptoPP@@@2@@CryptoPP@@MBEIXZ 42931fb1 f i dll.obj
 0001:00030fb1       ?GetDigestSize@?$DL_ObjectImplBase@V?$DL_SignerBase@UEC2NPoint@CryptoPP@@@CryptoPP@@U?$DL_SignatureSchemeOptions@V?$DL_SS@U?$DL_Keys_ECDSA@VEC2N@CryptoPP@@@CryptoPP@@V?$DL_Algorithm_ECDSA@VEC2N@CryptoPP@@@2@VDL_SignatureMessageEncodingMethod_DSA@2@VSHA256@2@H@CryptoPP@@U?$DL_Keys_ECDSA@VEC2N@CryptoPP@@@2@V?$DL_Algorithm_ECDSA@VEC2N@CryptoPP@@@2@VDL_SignatureMessageEncodingMethod_DSA@2@VSHA256@2@@2@V?$DL_PrivateKey_WithSignaturePairwiseConsistencyTest@V?$DL_PrivateKey_EC@VEC2N@CryptoPP@@@CryptoPP@@U?$ECDSA@VEC2N@CryptoPP@@VSHA256@2@@2@@2@@CryptoPP@@MBEIXZ 42931fb1 f i dll.obj
 0001:00030fb5       ?GetValidKeyLength@?$SimpleKeyingInterfaceImpl@V?$TwoBases@VBlockCipher@CryptoPP@@URijndael_Info@2@@CryptoPP@@V12@@CryptoPP@@UBEII@Z 42931fb5 f i dll.obj
 0001:00030fd9       ?Clone@?$ClonableImpl@V?$BlockCipherFinal@$0A@VEnc@Rijndael@CryptoPP@@@CryptoPP@@VEnc@Rijndael@2@@CryptoPP@@UBEPAVClonable@2@XZ 42931fd9 f i dll.obj
 0001:00031044       ??_E?$BlockCipherFinal@$0A@VEnc@Rijndael@CryptoPP@@@CryptoPP@@UAEPAXI@Z 42932044 f i dll.obj
 0001:00031044       ??_G?$BlockCipherFinal@$0A@VEnc@Rijndael@CryptoPP@@@CryptoPP@@UAEPAXI@Z 42932044 f i dll.obj
 0001:00031061       ?insert@?$vector@VInteger@CryptoPP@@V?$allocator@VInteger@CryptoPP@@@std@@@std@@QAEXPAVInteger@CryptoPP@@IABV34@@Z 42932061 f i dll.obj
 0001:000312c5       ?erase@?$vector@VInteger@CryptoPP@@V?$allocator@VInteger@CryptoPP@@@std@@@std@@QAEPAVInteger@CryptoPP@@PAV34@0@Z 429322c5 f i dll.obj
 0001:0003131c       ?insert@?$vector@UEC2NPoint@CryptoPP@@V?$allocator@UEC2NPoint@CryptoPP@@@std@@@std@@QAEXPAUEC2NPoint@CryptoPP@@IABU34@@Z 4293231c f i dll.obj
 0001:0003154d       ?erase@?$vector@UEC2NPoint@CryptoPP@@V?$allocator@UEC2NPoint@CryptoPP@@@std@@@std@@QAEPAUEC2NPoint@CryptoPP@@PAU34@0@Z 4293254d f i dll.obj
 0001:000315a3       ?insert@?$vector@UECPPoint@CryptoPP@@V?$allocator@UECPPoint@CryptoPP@@@std@@@std@@QAEXPAUECPPoint@CryptoPP@@IABU34@@Z 429325a3 f i dll.obj
 0001:000317d4       ?erase@?$vector@UECPPoint@CryptoPP@@V?$allocator@UECPPoint@CryptoPP@@@std@@@std@@QAEPAUECPPoint@CryptoPP@@PAU34@0@Z 429327d4 f i dll.obj
 0001:0003182a       ?GetVoidValue@?$DL_PublicKey@UECPPoint@CryptoPP@@@CryptoPP@@QBE_NPBDABVtype_info@@PAX@Z 4293282a f i dll.obj
 0001:0003187e       ?GetVoidValue@?$DL_PublicKey@UEC2NPoint@CryptoPP@@@CryptoPP@@QBE_NPBDABVtype_info@@PAX@Z 4293287e f i dll.obj
 0001:000318d2       ?GetVoidValue@?$DL_PrivateKey@UECPPoint@CryptoPP@@@CryptoPP@@QBE_NPBDABVtype_info@@PAX@Z 429328d2 f i dll.obj
 0001:00031926       ?AssignFrom@?$DL_PrivateKey@UECPPoint@CryptoPP@@@CryptoPP@@QAEXABVNameValuePairs@2@@Z 42932926 f i dll.obj
 0001:00031973       ?GetVoidValue@?$DL_PrivateKey@UEC2NPoint@CryptoPP@@@CryptoPP@@QBE_NPBDABVtype_info@@PAX@Z 42932973 f i dll.obj
 0001:000319c7       ?AssignFrom@?$DL_PrivateKey@UEC2NPoint@CryptoPP@@@CryptoPP@@QAEXABVNameValuePairs@2@@Z 429329c7 f i dll.obj
 0001:00031a14       ?insert@?$deque@_KV?$allocator@_K@std@@@std@@QAE?AViterator@12@V312@AB_K@Z 42932a14 f i dll.obj
